 better_sqlite3

 Timestamp is 5d4af036 (Wed Aug  7 16:37:26 2019)

 Preferred load address is 10000000

 Start         Length     Name                   Class
 0001:00000000 000003b0H .text$di                CODE
 0001:000003b0 000de960H .text$mn                CODE
 0001:000ded10 00000820H .text$x                 CODE
 0001:000df530 00000681H .text$yd                CODE
 0002:00000000 000001d8H .idata$5                DATA
 0002:000001d8 00000004H .00cfg                  DATA
 0002:000001dc 00000004H .CRT$XCA                DATA
 0002:000001e0 00000070H .CRT$XCU                DATA
 0002:00000250 00000004H .CRT$XCZ                DATA
 0002:00000254 00000004H .CRT$XIA                DATA
 0002:00000258 00000010H .CRT$XIC                DATA
 0002:00000268 00000004H .CRT$XIZ                DATA
 0002:0000026c 00000004H .CRT$XPA                DATA
 0002:00000270 00000008H .CRT$XPX                DATA
 0002:00000278 00000004H .CRT$XPXA               DATA
 0002:0000027c 00000004H .CRT$XPZ                DATA
 0002:00000280 00000004H .CRT$XTA                DATA
 0002:00000284 0000000cH .CRT$XTZ                DATA
 0002:00000290 00017c40H .rdata                  DATA
 0002:00017ed0 00000270H .rdata$r                DATA
 0002:00018140 000000b4H .rdata$sxdata           DATA
 0002:000181f4 00000410H .rdata$zzzdbg           DATA
 0002:00018604 00000004H .rtc$IAA                DATA
 0002:00018608 00000004H .rtc$IZZ                DATA
 0002:0001860c 00000004H .rtc$TAA                DATA
 0002:00018610 00000008H .rtc$TZZ                DATA
 0002:00018618 00000dc4H .xdata$x                DATA
 0002:000193dc 00000020H .didat$2                DATA
 0002:000193fc 00000020H .didat$3                DATA
 0002:0001941c 00000114H .didat$4                DATA
 0002:00019530 00001240H .didat$6                DATA
 0002:0001a770 00000120H .didat$7                DATA
 0002:0001a890 00000060H .edata                  DATA
 0002:0001a8f0 00000014H .idata$2                DATA
 0002:0001a904 00000014H .idata$3                DATA
 0002:0001a918 000001d8H .idata$4                DATA
 0002:0001aaf0 00000854H .idata$6                DATA
 0003:00000000 00001e10H .data                   DATA
 0003:00001e10 000000f8H .data$r                 DATA
 0003:00001f08 00000118H .didat$5                DATA
 0003:00002020 00000f6cH .bss                    DATA
 0004:00000000 00000090H .gfids$x                DATA
 0004:00000090 00000084H .gfids$y                DATA
 0005:00000000 00000060H .rsrc$01                DATA
 0005:00000060 00000180H .rsrc$02                DATA

  Address         Publics by Value              Rva+Base       Lib:Object

 0000:00000000       ___guard_longjmp_count     00000000     <absolute>
 0000:00000000       ___guard_fids_count        00000000     <absolute>
 0000:00000000       __except_list              00000000     <absolute>
 0000:00000000       ___guard_longjmp_table     00000000     <absolute>
 0000:00000000       ___guard_iat_table         00000000     <absolute>
 0000:00000000       ___guard_iat_count         00000000     <absolute>
 0000:00000000       ___dynamic_value_reloc_table 00000000     <absolute>
 0000:00000000       ___guard_fids_table        00000000     <absolute>
 0000:0000002d       ___safe_se_handler_count   0000002d     <absolute>
 0000:00000100       ___guard_flags             00000100     <absolute>
 0000:00000000       ___ImageBase               10000000     <linker-defined>
 0001:000003b0       ??3@YAXPAX0@Z              100013b0 f i better_sqlite3.obj
 0001:000003b0       ___except_validate_context_record 100013b0 f i libvcruntime:jbcxrval.obj
 0001:000003b0       ___except_validate_jump_buffer 100013b0 f i libvcruntime:jbcxrval.obj
 0001:000003b0       @_guard_check_icall_nop@4  100013b0 f i LIBCMT:guard_support.obj
 0001:000003c0       ?to_string@std@@YA?AV?$basic_string@DU?$char_traits@D@std@@V?$allocator@D@2@@1@H@Z 100013c0 f i better_sqlite3.obj
 0001:000003e0       ?NODE_SET_PROTOTYPE_METHOD@node@@YAXV?$Local@VFunctionTemplate@v8@@@v8@@PBDP6AXABV?$FunctionCallbackInfo@VValue@v8@@@3@@Z@Z 100013e0 f i better_sqlite3.obj
 0001:000004b0       ??1ObjectWrap@node@@UAE@XZ 100014b0 f i better_sqlite3.obj
 0001:00000540       ?Wrap@ObjectWrap@node@@IAEXV?$Local@VObject@v8@@@v8@@@Z 10001540 f i better_sqlite3.obj
 0001:000005b0       ?Ref@ObjectWrap@node@@MAEXXZ 100015b0 f i better_sqlite3.obj
 0001:000005d0       ?Unref@ObjectWrap@node@@MAEXXZ 100015d0 f i better_sqlite3.obj
 0001:00000600       ?WeakCallback@ObjectWrap@node@@CAXABV?$WeakCallbackInfo@VObjectWrap@node@@@v8@@@Z 10001600 f i better_sqlite3.obj
 0001:00000630       ??_GObjectWrap@node@@UAEPAXI@Z 10001630 f i better_sqlite3.obj
 0001:00000630       ??_EObjectWrap@node@@UAEPAXI@Z 10001630 f i * CIL library *:* CIL module *
 0001:000006b0       ?SetFrozen@@YAXPAVIsolate@v8@@V?$Local@VContext@v8@@@2@V?$Local@VObject@v8@@@2@AAV?$Persistent@VString@v8@@V?$NonCopyablePersistentTraits@VString@v8@@@2@@2@V?$Local@VValue@v8@@@2@@Z 100016b0 f i better_sqlite3.obj
 0001:000006f0       ?NODE_SET_PROTOTYPE_GETTER@@YAXV?$Local@VFunctionTemplate@v8@@@v8@@PBDP6AXV?$Local@VString@v8@@@2@ABV?$PropertyCallbackInfo@VValue@v8@@@2@@Z@Z 100016f0 f i better_sqlite3.obj
 0001:000007b0       ?NODE_SET_PROTOTYPE_SYMBOL_METHOD@@YAXV?$Local@VFunctionTemplate@v8@@@v8@@V?$Local@VSymbol@v8@@@2@P6AXABV?$FunctionCallbackInfo@VValue@v8@@@2@@Z@Z 100017b0 f i better_sqlite3.obj
 0001:00000860       ?Get@CS@@SA?AV?$Local@VString@v8@@@v8@@PAVIsolate@3@AAV?$Persistent@VString@v8@@V?$NonCopyablePersistentTraits@VString@v8@@@2@@3@@Z 10001860 f i better_sqlite3.obj
 0001:00000890       ?RemoveStatement@Database@@QAEXPAVStatement@@@Z 10001890 f i better_sqlite3.obj
 0001:000008f0       ?RemoveBackup@Database@@QAEXPAVBackup@@@Z 100018f0 f i better_sqlite3.obj
 0001:00000950       ?xStepBase@CustomAggregate@@CAXPAUsqlite3_context@@HPAPAUsqlite3_value@@PR1@V?$Persistent@VFunction@v8@@U?$CopyablePersistentTraits@VFunction@v8@@@2@@v8@@@Z 10001950 f i better_sqlite3.obj
 0001:00000b00       ?xValueBase@CustomAggregate@@CAXPAUsqlite3_context@@_N@Z 10001b00 f i better_sqlite3.obj
 0001:00000c30       ?ThrowError@@YAXPBD@Z      10001c30 f   better_sqlite3.obj
 0001:00000c90       ?ThrowTypeError@@YAXPBD@Z  10001c90 f   better_sqlite3.obj
 0001:00000cf0       ?ThrowRangeError@@YAXPBD@Z 10001cf0 f   better_sqlite3.obj
 0001:00000d50       ?CONCAT@@YA?AV?$basic_string@DU?$char_traits@D@std@@V?$allocator@D@2@@std@@PBD00@Z 10001d50 f   better_sqlite3.obj
 0001:00000e30       ?Require@@YA?AV?$Local@VValue@v8@@@v8@@V?$Local@VObject@v8@@@2@PBD@Z 10001e30 f   better_sqlite3.obj
 0001:00000f00       ?Code@CS@@SA?AV?$Local@VString@v8@@@v8@@PAVIsolate@3@H@Z 10001f00 f   better_sqlite3.obj
 0001:00001030       ?Init@CS@@CAXPAVIsolate@v8@@V?$Local@VObject@v8@@@3@1@Z 10002030 f   better_sqlite3.obj
 0001:000048b0       ?InternalizedFromLatin1@CS@@CA?AV?$Local@VString@v8@@@v8@@PAVIsolate@3@PBD@Z 100058b0 f   better_sqlite3.obj
 0001:000048f0       ?AddCode@CS@@CAXPAVIsolate@v8@@HPBD@Z 100058f0 f   better_sqlite3.obj
 0001:00004960       ??1BindMap@@QAE@XZ         10005960 f   better_sqlite3.obj
 0001:000049e0       ?Grow@BindMap@@AAEXPAVIsolate@v8@@@Z 100059e0 f   better_sqlite3.obj
 0001:00004ad0       ?HasInstance@Integer@@SA_NPAVIsolate@v8@@V?$Local@VValue@v8@@@3@@Z 10005ad0 f   better_sqlite3.obj
 0001:00004b40       ?GetValue@Integer@@SA_JV?$Local@VObject@v8@@@v8@@@Z 10005b40 f   better_sqlite3.obj
 0001:00004b80       ?New@Integer@@SA?AV?$Local@VValue@v8@@@v8@@PAVIsolate@3@_J_N@Z 10005b80 f   better_sqlite3.obj
 0001:00004c50       ?Init@Integer@@CAXPAVIsolate@v8@@V?$Local@VObject@v8@@@3@1@Z 10005c50 f   better_sqlite3.obj
 0001:00004db0       ?ThrowDatabaseError@Database@@QAEXXZ 10005db0 f   better_sqlite3.obj
 0001:00004df0       ?ThrowSqliteError@Database@@SAXPAUsqlite3@@@Z 10005df0 f   better_sqlite3.obj
 0001:00004e20       ?ThrowSqliteError@Database@@SAXPBDH@Z 10005e20 f   better_sqlite3.obj
 0001:00004ee0       ?Log@Database@@QAE_NPAVIsolate@v8@@V?$Local@VValue@v8@@@3@@Z 10005ee0 f   better_sqlite3.obj
 0001:00004f50       ?Log@Database@@QAE_NPAVIsolate@v8@@PAUsqlite3_stmt@@@Z 10005f50 f   better_sqlite3.obj
 0001:00005010       ??1Database@@UAE@XZ        10006010 f   better_sqlite3.obj
 0001:00005130       ??_EDatabase@@UAEPAXI@Z    10006130 f i * CIL library *:* CIL module *
 0001:00005130       ??_GDatabase@@UAEPAXI@Z    10006130 f i better_sqlite3.obj
 0001:00005150       ??1?$set@PAVBackup@@VCompareBackup@Database@@V?$allocator@PAVBackup@@@std@@@std@@QAE@XZ 10006150 f i better_sqlite3.obj
 0001:00005150       ??1?$set@PAVStatement@@VCompareStatement@Database@@V?$allocator@PAVStatement@@@std@@@std@@QAE@XZ 10006150 f i better_sqlite3.obj
 0001:00005170       ??RCompareStatement@Database@@QBE_NQBVStatement@@0@Z 10006170 f   better_sqlite3.obj
 0001:000051a0       ??RCompareBackup@Database@@QBE_NQBVBackup@@0@Z 100061a0 f   better_sqlite3.obj
 0001:000051d0       ??0Database@@AAE@PAUsqlite3@@PAVIsolate@v8@@V?$Local@VValue@v8@@@3@@Z 100061d0 f   better_sqlite3.obj
 0001:00005300       ?Init@Database@@CAXPAVIsolate@v8@@V?$Local@VObject@v8@@@3@1@Z 10006300 f   better_sqlite3.obj
 0001:00005530       ?JS_new@Database@@CAXABV?$FunctionCallbackInfo@VValue@v8@@@v8@@@Z 10006530 f   better_sqlite3.obj
 0001:000059a0       ?JS_prepare@Database@@CAXABV?$FunctionCallbackInfo@VValue@v8@@@v8@@@Z 100069a0 f   better_sqlite3.obj
 0001:00005a60       ?JS_exec@Database@@CAXABV?$FunctionCallbackInfo@VValue@v8@@@v8@@@Z 10006a60 f   better_sqlite3.obj
 0001:00005c70       ?JS_pragma@Database@@CAXABV?$FunctionCallbackInfo@VValue@v8@@@v8@@@Z 10006c70 f   better_sqlite3.obj
 0001:00005d50       ?JS_checkpoint@Database@@CAXABV?$FunctionCallbackInfo@VValue@v8@@@v8@@@Z 10006d50 f   better_sqlite3.obj
 0001:00006090       ?JS_backup@Database@@CAXABV?$FunctionCallbackInfo@VValue@v8@@@v8@@@Z 10007090 f   better_sqlite3.obj
 0001:00006210       ?JS_function@Database@@CAXABV?$FunctionCallbackInfo@VValue@v8@@@v8@@@Z 10007210 f   better_sqlite3.obj
 0001:000065b0       ?JS_aggregate@Database@@CAXABV?$FunctionCallbackInfo@VValue@v8@@@v8@@@Z 100075b0 f   better_sqlite3.obj
 0001:00006930       ?JS_loadExtension@Database@@CAXABV?$FunctionCallbackInfo@VValue@v8@@@v8@@@Z 10007930 f   better_sqlite3.obj
 0001:00006af0       ?JS_close@Database@@CAXABV?$FunctionCallbackInfo@VValue@v8@@@v8@@@Z 10007af0 f   better_sqlite3.obj
 0001:00006b90       ?JS_defaultSafeIntegers@Database@@CAXABV?$FunctionCallbackInfo@VValue@v8@@@v8@@@Z 10007b90 f   better_sqlite3.obj
 0001:00006c30       ?JS_open@Database@@CAXV?$Local@VString@v8@@@v8@@ABV?$PropertyCallbackInfo@VValue@v8@@@3@@Z 10007c30 f   better_sqlite3.obj
 0001:00006c80       ?JS_inTransaction@Database@@CAXV?$Local@VString@v8@@@v8@@ABV?$PropertyCallbackInfo@VValue@v8@@@3@@Z 10007c80 f   better_sqlite3.obj
 0001:00006cf0       ?CloseHandles@Database@@AAEXXZ 10007cf0 f   better_sqlite3.obj
 0001:00006e20       ?AtExit@Database@@CAXPAX@Z 10007e20 f   better_sqlite3.obj
 0001:00006e90       ?New@Statement@@SA?AV?$MaybeLocal@VObject@v8@@@v8@@PAVIsolate@3@V?$Local@VObject@v8@@@3@V?$Local@VString@v8@@@3@@Z 10007e90 f   better_sqlite3.obj
 0001:00006f00       ?GetBindMap@Statement@@QAEPAVBindMap@@PAVIsolate@v8@@@Z 10007f00 f   better_sqlite3.obj
 0001:00007060       ??1Statement@@UAE@XZ       10008060 f   better_sqlite3.obj
 0001:00007140       ??_GStatement@@UAEPAXI@Z   10008140 f i better_sqlite3.obj
 0001:00007140       ??_EStatement@@UAEPAXI@Z   10008140 f i * CIL library *:* CIL module *
 0001:00007160       ??0Statement@@AAE@PAVDatabase@@PAUsqlite3_stmt@@_N@Z 10008160 f   better_sqlite3.obj
 0001:00007250       ?Init@Statement@@CAXPAVIsolate@v8@@V?$Local@VObject@v8@@@3@1@Z 10008250 f   better_sqlite3.obj
 0001:00007470       ?JS_new@Statement@@CAXABV?$FunctionCallbackInfo@VValue@v8@@@v8@@@Z 10008470 f   better_sqlite3.obj
 0001:00007780       ?JS_run@Statement@@CAXABV?$FunctionCallbackInfo@VValue@v8@@@v8@@@Z 10008780 f   better_sqlite3.obj
 0001:000079e0       ?JS_get@Statement@@CAXABV?$FunctionCallbackInfo@VValue@v8@@@v8@@@Z 100089e0 f   better_sqlite3.obj
 0001:00007bb0       ?JS_all@Statement@@CAXABV?$FunctionCallbackInfo@VValue@v8@@@v8@@@Z 10008bb0 f   better_sqlite3.obj
 0001:00007df0       ?JS_iterate@Statement@@CAXABV?$FunctionCallbackInfo@VValue@v8@@@v8@@@Z 10008df0 f   better_sqlite3.obj
 0001:00007e60       ?JS_bind@Statement@@CAXABV?$FunctionCallbackInfo@VValue@v8@@@v8@@@Z 10008e60 f   better_sqlite3.obj
 0001:00007f60       ?JS_pluck@Statement@@CAXABV?$FunctionCallbackInfo@VValue@v8@@@v8@@@Z 10008f60 f   better_sqlite3.obj
 0001:00008050       ?JS_expand@Statement@@CAXABV?$FunctionCallbackInfo@VValue@v8@@@v8@@@Z 10009050 f   better_sqlite3.obj
 0001:00008140       ?JS_raw@Statement@@CAXABV?$FunctionCallbackInfo@VValue@v8@@@v8@@@Z 10009140 f   better_sqlite3.obj
 0001:00008230       ?JS_safeIntegers@Statement@@CAXABV?$FunctionCallbackInfo@VValue@v8@@@v8@@@Z 10009230 f   better_sqlite3.obj
 0001:00008300       ?JS_columns@Statement@@CAXABV?$FunctionCallbackInfo@VValue@v8@@@v8@@@Z 10009300 f   better_sqlite3.obj
 0001:00008890       ??1StatementIterator@@UAE@XZ 10009890 f   better_sqlite3.obj
 0001:00008920       ??_EStatementIterator@@UAEPAXI@Z 10009920 f i * CIL library *:* CIL module *
 0001:00008920       ??_GStatementIterator@@UAEPAXI@Z 10009920 f i better_sqlite3.obj
 0001:00008940       ??0StatementIterator@@AAE@PAVStatement@@_N@Z 10009940 f   better_sqlite3.obj
 0001:000089a0       ?Init@StatementIterator@@CAXPAVIsolate@v8@@V?$Local@VObject@v8@@@3@1@Z 100099a0 f   better_sqlite3.obj
 0001:00008ac0       ?JS_new@StatementIterator@@CAXABV?$FunctionCallbackInfo@VValue@v8@@@v8@@@Z 10009ac0 f   better_sqlite3.obj
 0001:00008c80       ?JS_next@StatementIterator@@CAXABV?$FunctionCallbackInfo@VValue@v8@@@v8@@@Z 10009c80 f   better_sqlite3.obj
 0001:00008d30       ?JS_return@StatementIterator@@CAXABV?$FunctionCallbackInfo@VValue@v8@@@v8@@@Z 10009d30 f   better_sqlite3.obj
 0001:00008de0       ?JS_symbolIterator@StatementIterator@@CAXABV?$FunctionCallbackInfo@VValue@v8@@@v8@@@Z 10009de0 f   better_sqlite3.obj
 0001:00008e00       ?Next@StatementIterator@@AAEXABV?$FunctionCallbackInfo@VValue@v8@@@v8@@@Z 10009e00 f   better_sqlite3.obj
 0001:00008ef0       ?Return@StatementIterator@@AAEXABV?$FunctionCallbackInfo@VValue@v8@@@v8@@@Z 10009ef0 f   better_sqlite3.obj
 0001:00008f80       ?Throw@StatementIterator@@AAEXXZ 10009f80 f   better_sqlite3.obj
 0001:00008ff0       ?NewRecord@StatementIterator@@CA?AV?$Local@VObject@v8@@@v8@@PAVIsolate@3@V?$Local@VContext@v8@@@3@V?$Local@VValue@v8@@@3@_N@Z 10009ff0 f   better_sqlite3.obj
 0001:00009090       ?New@Backup@@SA?AV?$MaybeLocal@VObject@v8@@@v8@@PAVIsolate@3@V?$Local@VObject@v8@@@3@V?$Local@VString@v8@@@3@2V?$Local@VBoolean@v8@@@3@@Z 1000a090 f   better_sqlite3.obj
 0001:00009130       ?CloseHandles@Backup@@QAEXXZ 1000a130 f   better_sqlite3.obj
 0001:00009240       ??1Backup@@UAE@XZ          1000a240 f   better_sqlite3.obj
 0001:000092f0       ??_EBackup@@UAEPAXI@Z      1000a2f0 f i * CIL library *:* CIL module *
 0001:000092f0       ??_GBackup@@UAEPAXI@Z      1000a2f0 f i better_sqlite3.obj
 0001:00009310       ??0Backup@@AAE@PAVDatabase@@PAUsqlite3@@PAUsqlite3_backup@@_N@Z 1000a310 f   better_sqlite3.obj
 0001:000093c0       ?Init@Backup@@CAXPAVIsolate@v8@@V?$Local@VObject@v8@@@3@1@Z 1000a3c0 f   better_sqlite3.obj
 0001:00009550       ?JS_new@Backup@@CAXABV?$FunctionCallbackInfo@VValue@v8@@@v8@@@Z 1000a550 f   better_sqlite3.obj
 0001:00009820       ?JS_transfer@Backup@@CAXABV?$FunctionCallbackInfo@VValue@v8@@@v8@@@Z 1000a820 f   better_sqlite3.obj
 0001:00009a40       ?JS_close@Backup@@CAXABV?$FunctionCallbackInfo@VValue@v8@@@v8@@@Z 1000aa40 f   better_sqlite3.obj
 0001:00009ab0       ??0CustomFunction@@QAE@PAVIsolate@v8@@PAVDatabase@@V?$Local@VFunction@v8@@@2@PBD_N@Z 1000aab0 f   better_sqlite3.obj
 0001:00009b40       ??_ECustomFunction@@UAEPAXI@Z 1000ab40 f i * CIL library *:* CIL module *
 0001:00009b40       ??_GCustomFunction@@UAEPAXI@Z 1000ab40 f i better_sqlite3.obj
 0001:00009bc0       ??1CustomFunction@@UAE@XZ  1000abc0 f   better_sqlite3.obj
 0001:00009c30       ?xDestroy@CustomFunction@@SAXPAX@Z 1000ac30 f   better_sqlite3.obj
 0001:00009c40       ?xFunc@CustomFunction@@SAXPAUsqlite3_context@@HPAPAUsqlite3_value@@@Z 1000ac40 f   better_sqlite3.obj
 0001:00009d80       ?ThrowResultValueError@CustomFunction@@QAEXPAUsqlite3_context@@@Z 1000ad80 f   better_sqlite3.obj
 0001:00009e80       ?PropagateJSError@CustomFunction@@MAEXPAUsqlite3_context@@@Z 1000ae80 f   better_sqlite3.obj
 0001:00009eb0       ??0CustomAggregate@@QAE@PAVIsolate@v8@@PAVDatabase@@V?$Local@VValue@v8@@@2@V?$Local@VFunction@v8@@@2@22PBD_N@Z 1000aeb0 f   better_sqlite3.obj
 0001:00009f90       ??_ECustomAggregate@@UAEPAXI@Z 1000af90 f i * CIL library *:* CIL module *
 0001:00009f90       ??_GCustomAggregate@@UAEPAXI@Z 1000af90 f i better_sqlite3.obj
 0001:00009fb0       ??1CustomAggregate@@UAE@XZ 1000afb0 f i better_sqlite3.obj
 0001:0000a070       ?xStep@CustomAggregate@@SAXPAUsqlite3_context@@HPAPAUsqlite3_value@@@Z 1000b070 f   better_sqlite3.obj
 0001:0000a090       ?xInverse@CustomAggregate@@SAXPAUsqlite3_context@@HPAPAUsqlite3_value@@@Z 1000b090 f   better_sqlite3.obj
 0001:0000a0b0       ?xValue@CustomAggregate@@SAXPAUsqlite3_context@@@Z 1000b0b0 f   better_sqlite3.obj
 0001:0000a0c0       ?xFinal@CustomAggregate@@SAXPAUsqlite3_context@@@Z 1000b0c0 f   better_sqlite3.obj
 0001:0000a0d0       ?GetAccumulator@CustomAggregate@@AAEPAUAccumulator@1@PAUsqlite3_context@@@Z 1000b0d0 f   better_sqlite3.obj
 0001:0000a1d0       ?DestroyAccumulator@CustomAggregate@@CAXPAUsqlite3_context@@@Z 1000b1d0 f   better_sqlite3.obj
 0001:0000a210       ?PropagateJSError@CustomAggregate@@EAEXPAUsqlite3_context@@@Z 1000b210 f   better_sqlite3.obj
 0001:0000a280       ?GetValueJS@Data@@YA?AV?$Local@VValue@v8@@@v8@@PAVIsolate@3@PAUsqlite3_stmt@@H_N@Z 1000b280 f   better_sqlite3.obj
 0001:0000a3a0       ?GetValueJS@Data@@YA?AV?$Local@VValue@v8@@@v8@@PAVIsolate@3@PAUsqlite3_value@@_N@Z 1000b3a0 f   better_sqlite3.obj
 0001:0000a4b0       ?GetFlatRowJS@Data@@YA?AV?$Local@VValue@v8@@@v8@@PAVIsolate@3@V?$Local@VContext@v8@@@3@PAUsqlite3_stmt@@_N@Z 1000b4b0 f   better_sqlite3.obj
 0001:0000a5d0       ?GetExpandedRowJS@Data@@YA?AV?$Local@VValue@v8@@@v8@@PAVIsolate@3@V?$Local@VContext@v8@@@3@PAUsqlite3_stmt@@_N@Z 1000b5d0 f   better_sqlite3.obj
 0001:0000a850       ?GetRawRowJS@Data@@YA?AV?$Local@VValue@v8@@@v8@@PAVIsolate@3@V?$Local@VContext@v8@@@3@PAUsqlite3_stmt@@_N@Z 1000b850 f   better_sqlite3.obj
 0001:0000a8f0       ?GetRowJS@Data@@YA?AV?$Local@VValue@v8@@@v8@@PAVIsolate@3@V?$Local@VContext@v8@@@3@PAUsqlite3_stmt@@_ND@Z 1000b8f0 f   better_sqlite3.obj
 0001:0000a970       ?GetArgumentsJS@Data@@YAXPAVIsolate@v8@@PAV?$Local@VValue@v8@@@3@PAPAUsqlite3_value@@H_N@Z 1000b970 f   better_sqlite3.obj
 0001:0000a9b0       ?BindValueFromJS@Data@@YAHPAVIsolate@v8@@PAUsqlite3_stmt@@HV?$Local@VValue@v8@@@3@@Z 1000b9b0 f   better_sqlite3.obj
 0001:0000ab80       ?ResultValueFromJS@Data@@YAXPAVIsolate@v8@@PAUsqlite3_context@@V?$Local@VValue@v8@@@3@PAVCustomFunction@@@Z 1000bb80 f   better_sqlite3.obj
 0001:0000ad80       ??0Binder@@QAE@PAUsqlite3_stmt@@@Z 1000bd80 f   better_sqlite3.obj
 0001:0000adc0       ?Bind@Binder@@QAE_NABV?$FunctionCallbackInfo@VValue@v8@@@v8@@HPAVStatement@@@Z 1000bdc0 f   better_sqlite3.obj
 0001:0000ae50       ?NextAnonIndex@Binder@@AAEHXZ 1000be50 f   better_sqlite3.obj
 0001:0000aea0       ?BindValue@Binder@@AAEXPAVIsolate@v8@@V?$Local@VValue@v8@@@3@H@Z 1000bea0 f   better_sqlite3.obj
 0001:0000af70       ?BindArray@Binder@@AAEHPAVIsolate@v8@@V?$Local@VArray@v8@@@3@@Z 1000bf70 f   better_sqlite3.obj
 0001:0000b020       ?BindObject@Binder@@AAEHPAVIsolate@v8@@V?$Local@VObject@v8@@@3@PAVStatement@@@Z 1000c020 f   better_sqlite3.obj
 0001:0000b190       ?BindArgs@Binder@@AAE?AUResult@1@ABV?$FunctionCallbackInfo@VValue@v8@@@v8@@HPAVStatement@@@Z 1000c190 f   better_sqlite3.obj
 0001:0000b320       ?RegisterModule@@YAXV?$Local@VObject@v8@@@v8@@0@Z 1000c320 f   better_sqlite3.obj
 0001:0000b3d0       ??1?$vector@V?$basic_string@DU?$char_traits@D@std@@V?$allocator@D@2@@std@@V?$allocator@V?$basic_string@DU?$char_traits@D@std@@V?$allocator@D@2@@std@@@2@@std@@QAE@XZ 1000c3d0 f i better_sqlite3.obj
 0001:0000b420       ?clear@?$_Tree@V?$_Tset_traits@PAVDatabase@@VCompareDatabase@1@V?$allocator@PAVDatabase@@@std@@$0A@@std@@@std@@QAEXXZ 1000c420 f i better_sqlite3.obj
 0001:0000b480       ?erase@?$_Tree@V?$_Tset_traits@PAVDatabase@@VCompareDatabase@1@V?$allocator@PAVDatabase@@@std@@$0A@@std@@@std@@QAEIABQAVDatabase@@@Z 1000c480 f i better_sqlite3.obj
 0001:0000b4d0       ??1?$_Hash@V?$_Umap_traits@HV?$Persistent@VString@v8@@V?$NonCopyablePersistentTraits@VString@v8@@@2@@v8@@V?$_Uhash_compare@HU?$hash@H@std@@U?$equal_to@H@2@@std@@V?$allocator@U?$pair@$$CBHV?$Persistent@VString@v8@@V?$NonCopyablePersistentTraits@VString@v8@@@2@@v8@@@std@@@4@$0A@@std@@@std@@QAE@XZ 1000c4d0 f i better_sqlite3.obj
 0001:0000b580       ??1?$Persistent@VFunction@v8@@U?$CopyablePersistentTraits@VFunction@v8@@@2@@v8@@QAE@XZ 1000c580 f i better_sqlite3.obj
 0001:0000b580       ??1?$Persistent@VValue@v8@@U?$CopyablePersistentTraits@VValue@v8@@@2@@v8@@QAE@XZ 1000c580 f i better_sqlite3.obj
 0001:0000b5d0       ?clear@?$_Tree@V?$_Tset_traits@PAVStatement@@VCompareStatement@Database@@V?$allocator@PAVStatement@@@std@@$0A@@std@@@std@@QAEXXZ 1000c5d0 f i better_sqlite3.obj
 0001:0000b5d0       ?clear@?$_Tree@V?$_Tset_traits@PAVBackup@@VCompareBackup@Database@@V?$allocator@PAVBackup@@@std@@$0A@@std@@@std@@QAEXXZ 1000c5d0 f i better_sqlite3.obj
 0001:0000b620       ??1?$basic_string@DU?$char_traits@D@std@@V?$allocator@D@2@@std@@QAE@XZ 1000c620 f i better_sqlite3.obj
 0001:0000b660       ?_Erase@?$_Tree@V?$_Tset_traits@PAVBackup@@VCompareBackup@Database@@V?$allocator@PAVBackup@@@std@@$0A@@std@@@std@@IAEXPAU?$_Tree_node@PAVBackup@@PAX@2@@Z 1000c660 f i better_sqlite3.obj
 0001:0000b660       ?_Erase@?$_Tree@V?$_Tset_traits@PAVDatabase@@VCompareDatabase@1@V?$allocator@PAVDatabase@@@std@@$0A@@std@@@std@@IAEXPAU?$_Tree_node@PAVDatabase@@PAX@2@@Z 1000c660 f i better_sqlite3.obj
 0001:0000b660       ?_Erase@?$_Tree@V?$_Tset_traits@PAVStatement@@VCompareStatement@Database@@V?$allocator@PAVStatement@@@std@@$0A@@std@@@std@@IAEXPAU?$_Tree_node@PAVStatement@@PAX@2@@Z 1000c660 f i better_sqlite3.obj
 0001:0000b6a0       ?erase@?$_Tree@V?$_Tset_traits@PAVDatabase@@VCompareDatabase@1@V?$allocator@PAVDatabase@@@std@@$0A@@std@@@std@@QAE?AV?$_Tree_const_iterator@V?$_Tree_val@U?$_Tree_simple_types@PAVDatabase@@@std@@@std@@@2@V32@0@Z 1000c6a0 f i better_sqlite3.obj
 0001:0000b740       ??1?$vector@V?$_List_unchecked_iterator@V?$_List_val@U?$_List_simple_types@U?$pair@$$CBHV?$Persistent@VString@v8@@V?$NonCopyablePersistentTraits@VString@v8@@@2@@v8@@@std@@@std@@@std@@@std@@U?$_Wrap_alloc@V?$allocator@V?$_List_unchecked_iterator@V?$_List_val@U?$_List_simple_types@U?$pair@$$CBHV?$Persistent@VString@v8@@V?$NonCopyablePersistentTraits@VString@v8@@@2@@v8@@@std@@@std@@@std@@@std@@@std@@@2@@std@@QAE@XZ 1000c740 f i better_sqlite3.obj
 0001:0000b770       ??1?$list@U?$pair@$$CBHV?$Persistent@VString@v8@@V?$NonCopyablePersistentTraits@VString@v8@@@2@@v8@@@std@@V?$allocator@U?$pair@$$CBHV?$Persistent@VString@v8@@V?$NonCopyablePersistentTraits@VString@v8@@@2@@v8@@@std@@@2@@std@@QAE@XZ 1000c770 f i better_sqlite3.obj
 0001:0000b7e0       ?lower_bound@?$_Hash@V?$_Umap_traits@HV?$Persistent@VString@v8@@V?$NonCopyablePersistentTraits@VString@v8@@@2@@v8@@V?$_Uhash_compare@HU?$hash@H@std@@U?$equal_to@H@2@@std@@V?$allocator@U?$pair@$$CBHV?$Persistent@VString@v8@@V?$NonCopyablePersistentTraits@VString@v8@@@2@@v8@@@std@@@4@$0A@@std@@@std@@QAE?AV?$_List_iterator@V?$_List_val@U?$_List_simple_types@U?$pair@$$CBHV?$Persistent@VString@v8@@V?$NonCopyablePersistentTraits@VString@v8@@@2@@v8@@@std@@@std@@@std@@@2@ABH@Z 1000c7e0 f i better_sqlite3.obj
 0001:0000b880       ??0?$_Hash@V?$_Umap_traits@HV?$Persistent@VString@v8@@V?$NonCopyablePersistentTraits@VString@v8@@@2@@v8@@V?$_Uhash_compare@HU?$hash@H@std@@U?$equal_to@H@2@@std@@V?$allocator@U?$pair@$$CBHV?$Persistent@VString@v8@@V?$NonCopyablePersistentTraits@VString@v8@@@2@@v8@@@std@@@4@$0A@@std@@@std@@QAE@ABV?$_Uhash_compare@HU?$hash@H@std@@U?$equal_to@H@2@@1@ABV?$allocator@U?$pair@$$CBHV?$Persistent@VString@v8@@V?$NonCopyablePersistentTraits@VString@v8@@@2@@v8@@@std@@@1@@Z 1000c880 f i better_sqlite3.obj
 0001:0000b940       ??E?$_Tree_unchecked_const_iterator@V?$_Tree_val@U?$_Tree_simple_types@PAVStatement@@@std@@@std@@U_Iterator_base0@2@@std@@QAEAAV01@XZ 1000c940 f i better_sqlite3.obj
 0001:0000b940       ??E?$_Tree_unchecked_const_iterator@V?$_Tree_val@U?$_Tree_simple_types@PAVBackup@@@std@@@std@@U_Iterator_base0@2@@std@@QAEAAV01@XZ 1000c940 f i better_sqlite3.obj
 0001:0000b990       ?erase@?$_Tree@V?$_Tset_traits@PAVStatement@@VCompareStatement@Database@@V?$allocator@PAVStatement@@@std@@$0A@@std@@@std@@QAE?AV?$_Tree_const_iterator@V?$_Tree_val@U?$_Tree_simple_types@PAVStatement@@@std@@@std@@@2@V32@0@Z 1000c990 f i better_sqlite3.obj
 0001:0000b990       ?erase@?$_Tree@V?$_Tset_traits@PAVBackup@@VCompareBackup@Database@@V?$allocator@PAVBackup@@@std@@$0A@@std@@@std@@QAE?AV?$_Tree_const_iterator@V?$_Tree_val@U?$_Tree_simple_types@PAVBackup@@@std@@@std@@@2@V32@0@Z 1000c990 f i better_sqlite3.obj
 0001:0000b9f0       ?assign@?$basic_string@DU?$char_traits@D@std@@V?$allocator@D@2@@std@@QAEAAV12@PBDI@Z 1000c9f0 f i better_sqlite3.obj
 0001:0000baf0       ?assign@?$basic_string@DU?$char_traits@D@std@@V?$allocator@D@2@@std@@QAEAAV12@ABV12@II@Z 1000caf0 f i better_sqlite3.obj
 0001:0000bc00       ?append@?$basic_string@DU?$char_traits@D@std@@V?$allocator@D@2@@std@@QAEAAV12@PBDI@Z 1000cc00 f i better_sqlite3.obj
 0001:0000bce0       ?append@?$basic_string@DU?$char_traits@D@std@@V?$allocator@D@2@@std@@QAEAAV12@ABV12@II@Z 1000cce0 f i better_sqlite3.obj
 0001:0000bd90       ?erase@?$_Tree@V?$_Tset_traits@PAVDatabase@@VCompareDatabase@1@V?$allocator@PAVDatabase@@@std@@$0A@@std@@@std@@QAE?AV?$_Tree_const_iterator@V?$_Tree_val@U?$_Tree_simple_types@PAVDatabase@@@std@@@std@@@2@V32@@Z 1000cd90 f i better_sqlite3.obj
 0001:0000c1d0       ?_Init@?$_Hash@V?$_Umap_traits@HV?$Persistent@VString@v8@@V?$NonCopyablePersistentTraits@VString@v8@@@2@@v8@@V?$_Uhash_compare@HU?$hash@H@std@@U?$equal_to@H@2@@std@@V?$allocator@U?$pair@$$CBHV?$Persistent@VString@v8@@V?$NonCopyablePersistentTraits@VString@v8@@@2@@v8@@@std@@@4@$0A@@std@@@std@@IAEXI@Z 1000d1d0 f i better_sqlite3.obj
 0001:0000c240       ?erase@?$_Tree@V?$_Tset_traits@PAVStatement@@VCompareStatement@Database@@V?$allocator@PAVStatement@@@std@@$0A@@std@@@std@@QAE?AV?$_Tree_const_iterator@V?$_Tree_val@U?$_Tree_simple_types@PAVStatement@@@std@@@std@@@2@V32@@Z 1000d240 f i better_sqlite3.obj
 0001:0000c240       ?erase@?$_Tree@V?$_Tset_traits@PAVBackup@@VCompareBackup@Database@@V?$allocator@PAVBackup@@@std@@$0A@@std@@@std@@QAE?AV?$_Tree_const_iterator@V?$_Tree_val@U?$_Tree_simple_types@PAVBackup@@@std@@@std@@@2@V32@@Z 1000d240 f i better_sqlite3.obj
 0001:0000c620       ?deallocate@?$_Wrap_alloc@V?$allocator@D@std@@@std@@QAEXPADI@Z 1000d620 f i better_sqlite3.obj
 0001:0000c670       ?_Grow@?$basic_string@DU?$char_traits@D@std@@V?$allocator@D@2@@std@@QAE_NI_N@Z 1000d670 f i better_sqlite3.obj
 0001:0000c6c0       ?erase@?$basic_string@DU?$char_traits@D@std@@V?$allocator@D@2@@std@@QAEAAV12@II@Z 1000d6c0 f i better_sqlite3.obj
 0001:0000c740       ?deallocate@?$allocator@V?$basic_string@DU?$char_traits@D@std@@V?$allocator@D@2@@std@@@std@@QAEXPAV?$basic_string@DU?$char_traits@D@std@@V?$allocator@D@2@@2@I@Z 1000d740 f i better_sqlite3.obj
 0001:0000c7a0       ?_Copy@?$basic_string@DU?$char_traits@D@std@@V?$allocator@D@2@@std@@QAEXII@Z 1000d7a0 f i better_sqlite3.obj
 0001:0000c890       ?_Reallocate@?$vector@V?$_List_unchecked_iterator@V?$_List_val@U?$_List_simple_types@U?$pair@$$CBHV?$Persistent@VString@v8@@V?$NonCopyablePersistentTraits@VString@v8@@@2@@v8@@@std@@@std@@@std@@@std@@U?$_Wrap_alloc@V?$allocator@V?$_List_unchecked_iterator@V?$_List_val@U?$_List_simple_types@U?$pair@$$CBHV?$Persistent@VString@v8@@V?$NonCopyablePersistentTraits@VString@v8@@@2@@v8@@@std@@@std@@@std@@@std@@@std@@@2@@std@@IAEXI@Z 1000d890 f i better_sqlite3.obj
 0001:0000c920       ?_Insert_n@?$vector@V?$_List_unchecked_iterator@V?$_List_val@U?$_List_simple_types@U?$pair@$$CBHV?$Persistent@VString@v8@@V?$NonCopyablePersistentTraits@VString@v8@@@2@@v8@@@std@@@std@@@std@@@std@@U?$_Wrap_alloc@V?$allocator@V?$_List_unchecked_iterator@V?$_List_val@U?$_List_simple_types@U?$pair@$$CBHV?$Persistent@VString@v8@@V?$NonCopyablePersistentTraits@VString@v8@@@2@@v8@@@std@@@std@@@std@@@std@@@std@@@2@@std@@IAE?AV?$_Vector_iterator@V?$_Vector_val@U?$_Simple_types@V?$_List_unchecked_iterator@V?$_List_val@U?$_List_simple_types@U?$pair@$$CBHV?$Persistent@VString@v8@@V?$NonCopyablePersistentTraits@VString@v8@@@2@@v8@@@std@@@std@@@std@@@std@@@std@@@std@@@2@V?$_Vector_const_iterator@V?$_Vector_val@U?$_Simple_types@V?$_List_unchecked_iterator@V?$_List_val@U?$_List_simple_types@U?$pair@$$CBHV?$Persistent@VString@v8@@V?$NonCopyablePersistentTraits@VString@v8@@@2@@v8@@@std@@@std@@@std@@@std@@@std@@@std@@@2@IABV?$_List_unchecked_iterator@V?$_List_val@U?$_List_simple_types@U?$pair@$$CBHV?$Persistent@VString@v8@@V?$NonCopyablePersistentTraits@VString@v8@@@2@@v8@@@std@@@std@@@std@@@2@@Z 1000d920 f i better_sqlite3.obj
 0001:0000cae0       ?deallocate@?$allocator@V?$_List_unchecked_iterator@V?$_List_val@U?$_List_simple_types@U?$pair@$$CBHV?$Persistent@VString@v8@@V?$NonCopyablePersistentTraits@VString@v8@@@2@@v8@@@std@@@std@@@std@@@std@@@std@@QAEXPAV?$_List_unchecked_iterator@V?$_List_val@U?$_List_simple_types@U?$pair@$$CBHV?$Persistent@VString@v8@@V?$NonCopyablePersistentTraits@VString@v8@@@2@@v8@@@std@@@std@@@std@@@2@I@Z 1000dae0 f i better_sqlite3.obj
 0001:0000cb40       ?_Ufill@?$vector@V?$_List_unchecked_iterator@V?$_List_val@U?$_List_simple_types@U?$pair@$$CBHV?$Persistent@VString@v8@@V?$NonCopyablePersistentTraits@VString@v8@@@2@@v8@@@std@@@std@@@std@@@std@@U?$_Wrap_alloc@V?$allocator@V?$_List_unchecked_iterator@V?$_List_val@U?$_List_simple_types@U?$pair@$$CBHV?$Persistent@VString@v8@@V?$NonCopyablePersistentTraits@VString@v8@@@2@@v8@@@std@@@std@@@std@@@std@@@std@@@2@@std@@IAEPAV?$_List_unchecked_iterator@V?$_List_val@U?$_List_simple_types@U?$pair@$$CBHV?$Persistent@VString@v8@@V?$NonCopyablePersistentTraits@VString@v8@@@2@@v8@@@std@@@std@@@std@@@2@PAV32@IPBV32@@Z 1000db40 f i better_sqlite3.obj
 0001:0000cb70       ?allocate@?$allocator@V?$_List_unchecked_iterator@V?$_List_val@U?$_List_simple_types@U?$pair@$$CBHV?$Persistent@VString@v8@@V?$NonCopyablePersistentTraits@VString@v8@@@2@@v8@@@std@@@std@@@std@@@std@@@std@@QAEPAV?$_List_unchecked_iterator@V?$_List_val@U?$_List_simple_types@U?$pair@$$CBHV?$Persistent@VString@v8@@V?$NonCopyablePersistentTraits@VString@v8@@@2@@v8@@@std@@@std@@@std@@@2@I@Z 1000db70 f i better_sqlite3.obj
 0001:0000cbd0       ??$_Integral_to_string@DH@std@@YA?AV?$basic_string@DU?$char_traits@D@std@@V?$allocator@D@2@@0@H@Z 1000dbd0 f i better_sqlite3.obj
 0001:0000cc90       ??$emplace@ABUpiecewise_construct_t@std@@V?$tuple@AAH@2@V?$tuple@AAPAVIsolate@v8@@$$QAV?$Local@VString@v8@@@2@@2@@?$_Hash@V?$_Umap_traits@HV?$Persistent@VString@v8@@V?$NonCopyablePersistentTraits@VString@v8@@@2@@v8@@V?$_Uhash_compare@HU?$hash@H@std@@U?$equal_to@H@2@@std@@V?$allocator@U?$pair@$$CBHV?$Persistent@VString@v8@@V?$NonCopyablePersistentTraits@VString@v8@@@2@@v8@@@std@@@4@$0A@@std@@@std@@QAE?AU?$pair@V?$_List_iterator@V?$_List_val@U?$_List_simple_types@U?$pair@$$CBHV?$Persistent@VString@v8@@V?$NonCopyablePersistentTraits@VString@v8@@@2@@v8@@@std@@@std@@@std@@@std@@_N@1@ABUpiecewise_construct_t@1@$$QAV?$tuple@AAH@1@$$QAV?$tuple@AAPAVIsolate@v8@@$$QAV?$Local@VString@v8@@@2@@1@@Z 1000dc90 f i better_sqlite3.obj
 0001:0000cd00       ??$Set@VObject@v8@@@?$ReturnValue@VValue@v8@@@v8@@QAEXV?$Local@VObject@v8@@@1@@Z 1000dd00 f i better_sqlite3.obj
 0001:0000cd20       ??$Unwrap@VDatabase@@@ObjectWrap@node@@SAPAVDatabase@@V?$Local@VObject@v8@@@v8@@@Z 1000dd20 f i better_sqlite3.obj
 0001:0000cd50       ??$_Insert_hint@ABQAVBackup@@U_Nil@std@@@?$_Tree@V?$_Tset_traits@PAVBackup@@VCompareBackup@Database@@V?$allocator@PAVBackup@@@std@@$0A@@std@@@std@@IAE?AV?$_Tree_const_iterator@V?$_Tree_val@U?$_Tree_simple_types@PAVBackup@@@std@@@std@@@1@V21@ABQAVBackup@@U_Nil@1@@Z 1000dd50 f i better_sqlite3.obj
 0001:0000cf10       ??$_Insert_hint@ABQAVStatement@@U_Nil@std@@@?$_Tree@V?$_Tset_traits@PAVStatement@@VCompareStatement@Database@@V?$allocator@PAVStatement@@@std@@$0A@@std@@@std@@IAE?AV?$_Tree_const_iterator@V?$_Tree_val@U?$_Tree_simple_types@PAVStatement@@@std@@@std@@@1@V21@ABQAVStatement@@U_Nil@1@@Z 1000df10 f i better_sqlite3.obj
 0001:0000d0d0       ??$destroy@PAU?$_Tree_node@PAVDatabase@@PAX@std@@@?$_Wrap_alloc@V?$allocator@U?$_Tree_node@PAVDatabase@@PAX@std@@@std@@@std@@QAEXPAPAU?$_Tree_node@PAVDatabase@@PAX@1@@Z 1000e0d0 f i better_sqlite3.obj
 0001:0000d0e0       ??$_Umove@PAV?$_List_unchecked_iterator@V?$_List_val@U?$_List_simple_types@U?$pair@$$CBHV?$Persistent@VString@v8@@V?$NonCopyablePersistentTraits@VString@v8@@@2@@v8@@@std@@@std@@@std@@@std@@@?$vector@V?$_List_unchecked_iterator@V?$_List_val@U?$_List_simple_types@U?$pair@$$CBHV?$Persistent@VString@v8@@V?$NonCopyablePersistentTraits@VString@v8@@@2@@v8@@@std@@@std@@@std@@@std@@U?$_Wrap_alloc@V?$allocator@V?$_List_unchecked_iterator@V?$_List_val@U?$_List_simple_types@U?$pair@$$CBHV?$Persistent@VString@v8@@V?$NonCopyablePersistentTraits@VString@v8@@@2@@v8@@@std@@@std@@@std@@@std@@@std@@@2@@std@@IAEPAV?$_List_unchecked_iterator@V?$_List_val@U?$_List_simple_types@U?$pair@$$CBHV?$Persistent@VString@v8@@V?$NonCopyablePersistentTraits@VString@v8@@@2@@v8@@@std@@@std@@@std@@@1@PAV21@00@Z 1000e0e0 f i better_sqlite3.obj
 0001:0000d120       ??$fill@PAV?$_List_unchecked_iterator@V?$_List_val@U?$_List_simple_types@U?$pair@$$CBHV?$Persistent@VString@v8@@V?$NonCopyablePersistentTraits@VString@v8@@@2@@v8@@@std@@@std@@@std@@@std@@V12@@std@@YAXPAV?$_List_unchecked_iterator@V?$_List_val@U?$_List_simple_types@U?$pair@$$CBHV?$Persistent@VString@v8@@V?$NonCopyablePersistentTraits@VString@v8@@@2@@v8@@@std@@@std@@@std@@@0@0ABV10@@Z 1000e120 f i better_sqlite3.obj
 0001:0000d150       ?_Reserve@?$vector@V?$basic_string@DU?$char_traits@D@std@@V?$allocator@D@2@@std@@V?$allocator@V?$basic_string@DU?$char_traits@D@std@@V?$allocator@D@2@@std@@@2@@std@@IAEXI@Z 1000e150 f i better_sqlite3.obj
 0001:0000d1e0       ?_Reallocate@?$vector@V?$basic_string@DU?$char_traits@D@std@@V?$allocator@D@2@@std@@V?$allocator@V?$basic_string@DU?$char_traits@D@std@@V?$allocator@D@2@@std@@@2@@std@@IAEXI@Z 1000e1e0 f i better_sqlite3.obj
 0001:0000d2d0       ??F?$_Tree_unchecked_const_iterator@V?$_Tree_val@U?$_Tree_simple_types@PAVBackup@@@std@@@std@@U_Iterator_base0@2@@std@@QAEAAV01@XZ 1000e2d0 f i better_sqlite3.obj
 0001:0000d2d0       ??F?$_Tree_unchecked_const_iterator@V?$_Tree_val@U?$_Tree_simple_types@PAVDatabase@@@std@@@std@@U_Iterator_base0@2@@std@@QAEAAV01@XZ 1000e2d0 f i better_sqlite3.obj
 0001:0000d2d0       ??F?$_Tree_unchecked_const_iterator@V?$_Tree_val@U?$_Tree_simple_types@PAVStatement@@@std@@@std@@U_Iterator_base0@2@@std@@QAEAAV01@XZ 1000e2d0 f i better_sqlite3.obj
 0001:0000d330       ??$_Eqrange@PAVDatabase@@@?$_Tree@V?$_Tset_traits@PAVDatabase@@VCompareDatabase@1@V?$allocator@PAVDatabase@@@std@@$0A@@std@@@std@@IBE?AU?$pair@V?$_Tree_const_iterator@V?$_Tree_val@U?$_Tree_simple_types@PAVDatabase@@@std@@@std@@@std@@V12@@1@ABQAVDatabase@@@Z 1000e330 f i better_sqlite3.obj
 0001:0000d3b0       ??$_Eqrange@PAVBackup@@@?$_Tree@V?$_Tset_traits@PAVBackup@@VCompareBackup@Database@@V?$allocator@PAVBackup@@@std@@$0A@@std@@@std@@IBE?AU?$pair@V?$_Tree_const_iterator@V?$_Tree_val@U?$_Tree_simple_types@PAVBackup@@@std@@@std@@@std@@V12@@1@ABQAVBackup@@@Z 1000e3b0 f i better_sqlite3.obj
 0001:0000d460       ??$_Eqrange@PAVStatement@@@?$_Tree@V?$_Tset_traits@PAVStatement@@VCompareStatement@Database@@V?$allocator@PAVStatement@@@std@@$0A@@std@@@std@@IBE?AU?$pair@V?$_Tree_const_iterator@V?$_Tree_val@U?$_Tree_simple_types@PAVStatement@@@std@@@std@@@std@@V12@@1@ABQAVStatement@@@Z 1000e460 f i better_sqlite3.obj
 0001:0000d530       ??$_Insert@AAU?$pair@$$CBHV?$Persistent@VString@v8@@V?$NonCopyablePersistentTraits@VString@v8@@@2@@v8@@@std@@V?$_List_unchecked_iterator@V?$_List_val@U?$_List_simple_types@U?$pair@$$CBHV?$Persistent@VString@v8@@V?$NonCopyablePersistentTraits@VString@v8@@@2@@v8@@@std@@@std@@@std@@@2@@?$_Hash@V?$_Umap_traits@HV?$Persistent@VString@v8@@V?$NonCopyablePersistentTraits@VString@v8@@@2@@v8@@V?$_Uhash_compare@HU?$hash@H@std@@U?$equal_to@H@2@@std@@V?$allocator@U?$pair@$$CBHV?$Persistent@VString@v8@@V?$NonCopyablePersistentTraits@VString@v8@@@2@@v8@@@std@@@4@$0A@@std@@@std@@IAE?AU?$pair@V?$_List_iterator@V?$_List_val@U?$_List_simple_types@U?$pair@$$CBHV?$Persistent@VString@v8@@V?$NonCopyablePersistentTraits@VString@v8@@@2@@v8@@@std@@@std@@@std@@@std@@_N@1@AAU?$pair@$$CBHV?$Persistent@VString@v8@@V?$NonCopyablePersistentTraits@VString@v8@@@2@@v8@@@1@V?$_List_unchecked_iterator@V?$_List_val@U?$_List_simple_types@U?$pair@$$CBHV?$Persistent@VString@v8@@V?$NonCopyablePersistentTraits@VString@v8@@@2@@v8@@@std@@@std@@@std@@@1@@Z 1000e530 f i better_sqlite3.obj
 0001:0000d690       ??$_Insert_nohint@ABQAVDatabase@@U_Nil@std@@@?$_Tree@V?$_Tset_traits@PAVDatabase@@VCompareDatabase@1@V?$allocator@PAVDatabase@@@std@@$0A@@std@@@std@@IAE?AU?$pair@V?$_Tree_const_iterator@V?$_Tree_val@U?$_Tree_simple_types@PAVDatabase@@@std@@@std@@@std@@_N@1@_NABQAVDatabase@@U_Nil@1@@Z 1000e690 f i better_sqlite3.obj
 0001:0000d750       ??$_Distance1@V?$_Tree_const_iterator@V?$_Tree_val@U?$_Tree_simple_types@PAVDatabase@@@std@@@std@@@std@@@std@@YAHV?$_Tree_const_iterator@V?$_Tree_val@U?$_Tree_simple_types@PAVDatabase@@@std@@@std@@@0@0Uinput_iterator_tag@0@@Z 1000e750 f i better_sqlite3.obj
 0001:0000d7c0       ??$_Insert_at@ABQAVStatement@@U_Nil@std@@@?$_Tree@V?$_Tset_traits@PAVStatement@@VCompareStatement@Database@@V?$allocator@PAVStatement@@@std@@$0A@@std@@@std@@IAE?AV?$_Tree_const_iterator@V?$_Tree_val@U?$_Tree_simple_types@PAVStatement@@@std@@@std@@@1@_NPAU?$_Tree_node@PAVStatement@@PAX@1@ABQAVStatement@@U_Nil@1@@Z 1000e7c0 f i better_sqlite3.obj
 0001:0000d7c0       ??$_Insert_at@ABQAVBackup@@U_Nil@std@@@?$_Tree@V?$_Tset_traits@PAVBackup@@VCompareBackup@Database@@V?$allocator@PAVBackup@@@std@@$0A@@std@@@std@@IAE?AV?$_Tree_const_iterator@V?$_Tree_val@U?$_Tree_simple_types@PAVBackup@@@std@@@std@@@1@_NPAU?$_Tree_node@PAVBackup@@PAX@1@ABQAVBackup@@U_Nil@1@@Z 1000e7c0 f i better_sqlite3.obj
 0001:0000da00       ??$_Insert_nohint@ABQAVBackup@@U_Nil@std@@@?$_Tree@V?$_Tset_traits@PAVBackup@@VCompareBackup@Database@@V?$allocator@PAVBackup@@@std@@$0A@@std@@@std@@IAE?AU?$pair@V?$_Tree_const_iterator@V?$_Tree_val@U?$_Tree_simple_types@PAVBackup@@@std@@@std@@@std@@_N@1@_NABQAVBackup@@U_Nil@1@@Z 1000ea00 f i better_sqlite3.obj
 0001:0000dae0       ??$_Insert_nohint@ABQAVStatement@@U_Nil@std@@@?$_Tree@V?$_Tset_traits@PAVStatement@@VCompareStatement@Database@@V?$allocator@PAVStatement@@@std@@$0A@@std@@@std@@IAE?AU?$pair@V?$_Tree_const_iterator@V?$_Tree_val@U?$_Tree_simple_types@PAVStatement@@@std@@@std@@@std@@_N@1@_NABQAVStatement@@U_Nil@1@@Z 1000eae0 f i better_sqlite3.obj
 0001:0000dbd0       ??$_Destroy_range1@V?$allocator@V?$basic_string@DU?$char_traits@D@std@@V?$allocator@D@2@@std@@@std@@PAV?$basic_string@DU?$char_traits@D@std@@V?$allocator@D@2@@2@@std@@YAXPAV?$basic_string@DU?$char_traits@D@std@@V?$allocator@D@2@@0@0AAU?$_Wrap_alloc@V?$allocator@V?$basic_string@DU?$char_traits@D@std@@V?$allocator@D@2@@std@@@std@@@0@U?$integral_constant@_N$0A@@0@@Z 1000ebd0 f i better_sqlite3.obj
 0001:0000dc20       ??0?$_Wrap_alloc@V?$allocator@U?$_Tree_node@PAVDatabase@@PAX@std@@@std@@@std@@QAE@XZ 1000ec20 f i better_sqlite3.obj
 0001:0000dc30       ?_Check_size@?$_Hash@V?$_Umap_traits@HV?$Persistent@VString@v8@@V?$NonCopyablePersistentTraits@VString@v8@@@2@@v8@@V?$_Uhash_compare@HU?$hash@H@std@@U?$equal_to@H@2@@std@@V?$allocator@U?$pair@$$CBHV?$Persistent@VString@v8@@V?$NonCopyablePersistentTraits@VString@v8@@@2@@v8@@@std@@@4@$0A@@std@@@std@@IAEXXZ 1000ec30 f i better_sqlite3.obj
 0001:0000dcd0       ??$_Insert_at@ABQAVDatabase@@U_Nil@std@@@?$_Tree@V?$_Tset_traits@PAVDatabase@@VCompareDatabase@1@V?$allocator@PAVDatabase@@@std@@$0A@@std@@@std@@IAE?AV?$_Tree_const_iterator@V?$_Tree_val@U?$_Tree_simple_types@PAVDatabase@@@std@@@std@@@1@_NPAU?$_Tree_node@PAVDatabase@@PAX@1@ABQAVDatabase@@U_Nil@1@@Z 1000ecd0 f i better_sqlite3.obj
 0001:0000df00       ??$_Buynode@ABUpiecewise_construct_t@std@@V?$tuple@AAH@2@V?$tuple@AAPAVIsolate@v8@@$$QAV?$Local@VString@v8@@@2@@2@@?$_List_buy@U?$pair@$$CBHV?$Persistent@VString@v8@@V?$NonCopyablePersistentTraits@VString@v8@@@2@@v8@@@std@@V?$allocator@U?$pair@$$CBHV?$Persistent@VString@v8@@V?$NonCopyablePersistentTraits@VString@v8@@@2@@v8@@@std@@@2@@std@@QAEPAU?$_List_node@U?$pair@$$CBHV?$Persistent@VString@v8@@V?$NonCopyablePersistentTraits@VString@v8@@@2@@v8@@@std@@PAX@1@PAU21@0ABUpiecewise_construct_t@1@$$QAV?$tuple@AAH@1@$$QAV?$tuple@AAPAVIsolate@v8@@$$QAV?$Local@VString@v8@@@2@@1@@Z 1000ef00 f i better_sqlite3.obj
 0001:0000dfa0       ??$_Buynode_if_nil@ABQAVDatabase@@@?$_Tree@V?$_Tset_traits@PAVDatabase@@VCompareDatabase@1@V?$allocator@PAVDatabase@@@std@@$0A@@std@@@std@@IAEPAU?$_Tree_node@PAVDatabase@@PAX@1@U_Nil@1@ABQAVDatabase@@@Z 1000efa0 f i better_sqlite3.obj
 0001:0000dff0       ??$_Uninitialized_move_al_unchecked1@PAV?$basic_string@DU?$char_traits@D@std@@V?$allocator@D@2@@std@@PAV12@V?$allocator@V?$basic_string@DU?$char_traits@D@std@@V?$allocator@D@2@@std@@@2@@std@@YAPAV?$basic_string@DU?$char_traits@D@std@@V?$allocator@D@2@@0@PAV10@00AAU?$_Wrap_alloc@V?$allocator@V?$basic_string@DU?$char_traits@D@std@@V?$allocator@D@2@@std@@@std@@@0@U_General_ptr_iterator_tag@0@U_Any_tag@0@@Z 1000eff0 f i better_sqlite3.obj
 0001:0000e0e0       _sqlite3_status64          1000f0e0 f   sqlite3:sqlite3.obj
 0001:0000e150       _sqlite3_status            1000f150 f   sqlite3:sqlite3.obj
 0001:0000e1f0       _sqlite3_db_status         1000f1f0 f   sqlite3:sqlite3.obj
 0001:000103d0       _sqlite3_vfs_find          100113d0 f   sqlite3:sqlite3.obj
 0001:00010480       _sqlite3_vfs_register      10011480 f   sqlite3:sqlite3.obj
 0001:000104c0       _sqlite3_vfs_unregister    100114c0 f   sqlite3:sqlite3.obj
 0001:00010510       ??3@YAXPAX@Z               10011510 f   LIBCMT:delete_scalar.obj
 0001:00010580       _sqlite3_threadsafe        10011580 f   sqlite3:sqlite3.obj
 0001:00010580       _sqlite3_release_memory    10011580 f   sqlite3:sqlite3.obj
 0001:00010590       _sqlite3_soft_heap_limit64 10011590 f   sqlite3:sqlite3.obj
 0001:00010610       _sqlite3_soft_heap_limit   10011610 f   sqlite3:sqlite3.obj
 0001:000106c0       _sqlite3_memory_used       100116c0 f   sqlite3:sqlite3.obj
 0001:000106e0       _sqlite3_memory_highwater  100116e0 f   sqlite3:sqlite3.obj
 0001:00010820       _sqlite3_malloc            10011820 f   sqlite3:sqlite3.obj
 0001:00010850       _sqlite3_malloc64          10011850 f   sqlite3:sqlite3.obj
 0001:000108f0       _sqlite3_msize             100118f0 f   sqlite3:sqlite3.obj
 0001:00010910       _sqlite3_free              10011910 f   sqlite3:sqlite3.obj
 0001:00010b40       _sqlite3_realloc           10011b40 f   sqlite3:sqlite3.obj
 0001:00010b80       _sqlite3_realloc64         10011b80 f   sqlite3:sqlite3.obj
 0001:00011230       _sqlite3_str_vappendf      10012230 f   sqlite3:sqlite3.obj
 0001:00012bf0       _sqlite3_str_appendchar    10013bf0 f   sqlite3:sqlite3.obj
 0001:00012c70       _sqlite3_str_append        10013c70 f   sqlite3:sqlite3.obj
 0001:00012cc0       _sqlite3_str_appendall     10013cc0 f   sqlite3:sqlite3.obj
 0001:00012d90       _sqlite3_str_finish        10013d90 f   sqlite3:sqlite3.obj
 0001:00012e00       _sqlite3_str_errcode       10013e00 f   sqlite3:sqlite3.obj
 0001:00012e20       _sqlite3_str_length        10013e20 f   sqlite3:sqlite3.obj
 0001:00012e30       _sqlite3_str_value         10013e30 f   sqlite3:sqlite3.obj
 0001:00012e50       _sqlite3_str_reset         10013e50 f   sqlite3:sqlite3.obj
 0001:00012e90       _sqlite3_str_new           10013e90 f   sqlite3:sqlite3.obj
 0001:00013010       _sqlite3_vmprintf          10014010 f   sqlite3:sqlite3.obj
 0001:000130e0       _sqlite3_mprintf           100140e0 f   sqlite3:sqlite3.obj
 0001:00013100       _sqlite3_vsnprintf         10014100 f   sqlite3:sqlite3.obj
 0001:00013170       _sqlite3_snprintf          10014170 f   sqlite3:sqlite3.obj
 0001:000132a0       _sqlite3_log               100142a0 f   sqlite3:sqlite3.obj
 0001:000132c0       _sqlite3_str_appendf       100142c0 f   sqlite3:sqlite3.obj
 0001:000132e0       _sqlite3_randomness        100142e0 f   sqlite3:sqlite3.obj
 0001:00013e80       _sqlite3_stricmp           10014e80 f   sqlite3:sqlite3.obj
 0001:00013ef0       _sqlite3_strnicmp          10014ef0 f   sqlite3:sqlite3.obj
 0001:00018750       _sqlite3_os_init           10019750 f   sqlite3:sqlite3.obj
 0001:00022410       _sqlite3_enable_shared_cache 10023410 f   sqlite3:sqlite3.obj
 0001:0002c970       _sqlite3_backup_init       1002d970 f   sqlite3:sqlite3.obj
 0001:0002cca0       _sqlite3_backup_step       1002dca0 f   sqlite3:sqlite3.obj
 0001:0002d3c0       _sqlite3_backup_finish     1002e3c0 f   sqlite3:sqlite3.obj
 0001:0002d490       _sqlite3_backup_remaining  1002e490 f   sqlite3:sqlite3.obj
 0001:0002d4a0       _sqlite3_backup_pagecount  1002e4a0 f   sqlite3:sqlite3.obj
 0001:00034240       _sqlite3_finalize          10035240 f   sqlite3:sqlite3.obj
 0001:000342e0       _sqlite3_reset             100352e0 f   sqlite3:sqlite3.obj
 0001:00034380       _sqlite3_clear_bindings    10035380 f   sqlite3:sqlite3.obj
 0001:00034400       _sqlite3_value_blob        10035400 f   sqlite3:sqlite3.obj
 0001:00034460       _sqlite3_value_bytes       10035460 f   sqlite3:sqlite3.obj
 0001:000344a0       _sqlite3_value_bytes16     100354a0 f   sqlite3:sqlite3.obj
 0001:000344e0       _sqlite3_value_double      100354e0 f   sqlite3:sqlite3.obj
 0001:00034540       _sqlite3_value_int         10035540 f   sqlite3:sqlite3.obj
 0001:00034590       _sqlite3_value_int64       10035590 f   sqlite3:sqlite3.obj
 0001:000345e0       _sqlite3_value_subtype     100355e0 f   sqlite3:sqlite3.obj
 0001:00034600       _sqlite3_value_pointer     10035600 f   sqlite3:sqlite3.obj
 0001:00034670       _sqlite3_value_text        10035670 f   sqlite3:sqlite3.obj
 0001:000346b0       _sqlite3_value_text16      100356b0 f   sqlite3:sqlite3.obj
 0001:000346b0       _sqlite3_value_text16le    100356b0 f   sqlite3:sqlite3.obj
 0001:000346f0       _sqlite3_value_text16be    100356f0 f   sqlite3:sqlite3.obj
 0001:00034730       _sqlite3_value_type        10035730 f   sqlite3:sqlite3.obj
 0001:00034750       _sqlite3_value_nochange    10035750 f   sqlite3:sqlite3.obj
 0001:00034770       _sqlite3_value_frombind    10035770 f   sqlite3:sqlite3.obj
 0001:00034780       _sqlite3_value_dup         10035780 f   sqlite3:sqlite3.obj
 0001:00034820       _sqlite3_value_free        10035820 f   sqlite3:sqlite3.obj
 0001:00034850       _sqlite3_result_blob       10035850 f   sqlite3:sqlite3.obj
 0001:00034890       _sqlite3_result_blob64     10035890 f   sqlite3:sqlite3.obj
 0001:00034910       _sqlite3_result_double     10035910 f   sqlite3:sqlite3.obj
 0001:00034980       _sqlite3_result_error      10035980 f   sqlite3:sqlite3.obj
 0001:000349b0       _sqlite3_result_error16    100359b0 f   sqlite3:sqlite3.obj
 0001:000349e0       _sqlite3_result_int        100359e0 f   sqlite3:sqlite3.obj
 0001:00034a20       _sqlite3_result_int64      10035a20 f   sqlite3:sqlite3.obj
 0001:00034a60       _sqlite3_result_null       10035a60 f   sqlite3:sqlite3.obj
 0001:00034a90       _sqlite3_result_pointer    10035a90 f   sqlite3:sqlite3.obj
 0001:00034af0       _sqlite3_result_subtype    10035af0 f   sqlite3:sqlite3.obj
 0001:00034b10       _sqlite3_result_text       10035b10 f   sqlite3:sqlite3.obj
 0001:00034b50       _sqlite3_result_text64     10035b50 f   sqlite3:sqlite3.obj
 0001:00034be0       _sqlite3_result_text16     10035be0 f   sqlite3:sqlite3.obj
 0001:00034be0       _sqlite3_result_text16le   10035be0 f   sqlite3:sqlite3.obj
 0001:00034c20       _sqlite3_result_text16be   10035c20 f   sqlite3:sqlite3.obj
 0001:00034c60       _sqlite3_result_value      10035c60 f   sqlite3:sqlite3.obj
 0001:00034c80       _sqlite3_result_zeroblob   10035c80 f   sqlite3:sqlite3.obj
 0001:00034cd0       _sqlite3_result_zeroblob64 10035cd0 f   sqlite3:sqlite3.obj
 0001:00034d40       _sqlite3_result_error_code 10035d40 f   sqlite3:sqlite3.obj
 0001:00034de0       _sqlite3_result_error_toobig 10035de0 f   sqlite3:sqlite3.obj
 0001:00034e10       _sqlite3_result_error_nomem 10035e10 f   sqlite3:sqlite3.obj
 0001:00035080       _sqlite3_step              10036080 f   sqlite3:sqlite3.obj
 0001:00035210       _sqlite3_user_data         10036210 f   sqlite3:sqlite3.obj
 0001:00035220       _sqlite3_context_db_handle 10036220 f   sqlite3:sqlite3.obj
 0001:00035230       _sqlite3_vtab_nochange     10036230 f   sqlite3:sqlite3.obj
 0001:00035380       _sqlite3_aggregate_context 10036380 f   sqlite3:sqlite3.obj
 0001:000353b0       _sqlite3_get_auxdata       100363b0 f   sqlite3:sqlite3.obj
 0001:000353f0       _sqlite3_set_auxdata       100363f0 f   sqlite3:sqlite3.obj
 0001:000354d0       _sqlite3_column_count      100364d0 f   sqlite3:sqlite3.obj
 0001:000354f0       _sqlite3_data_count        100364f0 f   sqlite3:sqlite3.obj
 0001:00035510       _sqlite3_column_blob       10036510 f   sqlite3:sqlite3.obj
 0001:000355a0       _sqlite3_column_bytes      100365a0 f   sqlite3:sqlite3.obj
 0001:00035650       _sqlite3_column_bytes16    10036650 f   sqlite3:sqlite3.obj
 0001:00035700       _sqlite3_column_double     10036700 f   sqlite3:sqlite3.obj
 0001:000357c0       _sqlite3_column_int        100367c0 f   sqlite3:sqlite3.obj
 0001:00035880       _sqlite3_column_int64      10036880 f   sqlite3:sqlite3.obj
 0001:00035950       _sqlite3_column_text       10036950 f   sqlite3:sqlite3.obj
 0001:00035a10       _sqlite3_column_value      10036a10 f   sqlite3:sqlite3.obj
 0001:00035ab0       _sqlite3_column_text16     10036ab0 f   sqlite3:sqlite3.obj
 0001:00035b70       _sqlite3_column_type       10036b70 f   sqlite3:sqlite3.obj
 0001:00035c00       _sqlite3_column_name       10036c00 f   sqlite3:sqlite3.obj
 0001:00035c60       _sqlite3_column_name16     10036c60 f   sqlite3:sqlite3.obj
 0001:00035cc0       _sqlite3_column_decltype   10036cc0 f   sqlite3:sqlite3.obj
 0001:00035d20       _sqlite3_column_decltype16 10036d20 f   sqlite3:sqlite3.obj
 0001:00035d80       _sqlite3_column_database_name 10036d80 f   sqlite3:sqlite3.obj
 0001:00035de0       _sqlite3_column_database_name16 10036de0 f   sqlite3:sqlite3.obj
 0001:00035e40       _sqlite3_column_table_name 10036e40 f   sqlite3:sqlite3.obj
 0001:00035ea0       _sqlite3_column_table_name16 10036ea0 f   sqlite3:sqlite3.obj
 0001:00035f00       _sqlite3_column_origin_name 10036f00 f   sqlite3:sqlite3.obj
 0001:00035f60       _sqlite3_column_origin_name16 10036f60 f   sqlite3:sqlite3.obj
 0001:000361e0       _sqlite3_bind_blob         100371e0 f   sqlite3:sqlite3.obj
 0001:00036200       _sqlite3_bind_blob64       10037200 f   sqlite3:sqlite3.obj
 0001:00036250       _sqlite3_bind_double       10037250 f   sqlite3:sqlite3.obj
 0001:00036290       _sqlite3_bind_int          10037290 f   sqlite3:sqlite3.obj
 0001:00036300       _sqlite3_bind_int64        10037300 f   sqlite3:sqlite3.obj
 0001:00036370       _sqlite3_bind_null         10037370 f   sqlite3:sqlite3.obj
 0001:00036380       _sqlite3_bind_pointer      10037380 f   sqlite3:sqlite3.obj
 0001:00036400       _sqlite3_bind_text         10037400 f   sqlite3:sqlite3.obj
 0001:00036420       _sqlite3_bind_text64       10037420 f   sqlite3:sqlite3.obj
 0001:00036480       _sqlite3_bind_text16       10037480 f   sqlite3:sqlite3.obj
 0001:000364a0       _sqlite3_bind_value        100374a0 f   sqlite3:sqlite3.obj
 0001:00036590       _sqlite3_bind_zeroblob     10037590 f   sqlite3:sqlite3.obj
 0001:00036600       _sqlite3_bind_zeroblob64   10037600 f   sqlite3:sqlite3.obj
 0001:00036650       _sqlite3_bind_parameter_count 10037650 f   sqlite3:sqlite3.obj
 0001:00036660       _sqlite3_bind_parameter_name 10037660 f   sqlite3:sqlite3.obj
 0001:000366a0       _sqlite3_bind_parameter_index 100376a0 f   sqlite3:sqlite3.obj
 0001:00036780       _sqlite3_db_handle         10037780 f   sqlite3:sqlite3.obj
 0001:00036790       _sqlite3_stmt_readonly     10037790 f   sqlite3:sqlite3.obj
 0001:000367b0       _sqlite3_stmt_isexplain    100377b0 f   sqlite3:sqlite3.obj
 0001:000367d0       _sqlite3_stmt_busy         100377d0 f   sqlite3:sqlite3.obj
 0001:000367f0       _sqlite3_next_stmt         100377f0 f   sqlite3:sqlite3.obj
 0001:00036810       _sqlite3_stmt_status       10037810 f   sqlite3:sqlite3.obj
 0001:00036880       _sqlite3_sql               10037880 f   sqlite3:sqlite3.obj
 0001:000368a0       _sqlite3_expanded_sql      100378a0 f   sqlite3:sqlite3.obj
 0001:000370c0       _sqlite3_value_numeric_type 100380c0 f   sqlite3:sqlite3.obj
 0001:0003df70       _sqlite3_blob_open         1003ef70 f   sqlite3:sqlite3.obj
 0001:0003e5d0       _sqlite3_blob_close        1003f5d0 f   sqlite3:sqlite3.obj
 0001:0003e720       _sqlite3_blob_read         1003f720 f   sqlite3:sqlite3.obj
 0001:0003e740       _sqlite3_blob_write        1003f740 f   sqlite3:sqlite3.obj
 0001:0003e760       _sqlite3_blob_bytes        1003f760 f   sqlite3:sqlite3.obj
 0001:0003e780       _sqlite3_blob_reopen       1003f780 f   sqlite3:sqlite3.obj
 0001:00051270       _sqlite3_set_authorizer    10052270 f   sqlite3:sqlite3.obj
 0001:0005b070       _sqlite3_strglob           1005c070 f   sqlite3:sqlite3.obj
 0001:0005b090       _sqlite3_strlike           1005c090 f   sqlite3:sqlite3.obj
 0001:00063450       _sqlite3_exec              10064450 f   sqlite3:sqlite3.obj
 0001:00063d80       _sqlite3_load_extension    10064d80 f   sqlite3:sqlite3.obj
 0001:00063dc0       _sqlite3_auto_extension    10064dc0 f   sqlite3:sqlite3.obj
 0001:00063e50       _sqlite3_cancel_auto_extension 10064e50 f   sqlite3:sqlite3.obj
 0001:00063e90       _sqlite3_reset_auto_extension 10064e90 f   sqlite3:sqlite3.obj
 0001:00068320       _sqlite3_prepare           10069320 f   sqlite3:sqlite3.obj
 0001:00068350       _sqlite3_prepare_v2        10069350 f   sqlite3:sqlite3.obj
 0001:00068380       _sqlite3_prepare_v3        10069380 f   sqlite3:sqlite3.obj
 0001:000684c0       _sqlite3_prepare16         100694c0 f   sqlite3:sqlite3.obj
 0001:000684e0       _sqlite3_prepare16_v2      100694e0 f   sqlite3:sqlite3.obj
 0001:00068510       _sqlite3_prepare16_v3      10069510 f   sqlite3:sqlite3.obj
 0001:00077480       _sqlite3_create_module     10078480 f   sqlite3:sqlite3.obj
 0001:00077500       _sqlite3_create_module_v2  10078500 f   sqlite3:sqlite3.obj
 0001:00078140       _sqlite3_declare_vtab      10079140 f   sqlite3:sqlite3.obj
 0001:00078a40       _sqlite3_vtab_on_conflict  10079a40 f   sqlite3:sqlite3.obj
 0001:00078a50       _sqlite3_vtab_config       10079a50 f   sqlite3:sqlite3.obj
 0001:00082130       _sqlite3_vtab_collation    10083130 f   sqlite3:sqlite3.obj
 0001:0008da00       _sqlite3_keyword_name      1008ea00 f   sqlite3:sqlite3.obj
 0001:0008da40       _sqlite3_keyword_count     1008ea40 f   sqlite3:sqlite3.obj
 0001:0008da50       _sqlite3_keyword_check     1008ea50 f   sqlite3:sqlite3.obj
 0001:0008e690       _sqlite3_complete          1008f690 f   sqlite3:sqlite3.obj
 0001:0008e960       _sqlite3_complete16        1008f960 f   sqlite3:sqlite3.obj
 0001:0008ea30       _sqlite3_libversion        1008fa30 f   sqlite3:sqlite3.obj
 0001:0008ea40       _sqlite3_libversion_number 1008fa40 f   sqlite3:sqlite3.obj
 0001:0008ea50       _sqlite3_initialize        1008fa50 f   sqlite3:sqlite3.obj
 0001:0008eb90       _sqlite3_config            1008fb90 f   sqlite3:sqlite3.obj
 0001:0008f000       _sqlite3_db_mutex          10090000 f   sqlite3:sqlite3.obj
 0001:0008f010       _sqlite3_db_release_memory 10090010 f   sqlite3:sqlite3.obj
 0001:0008f080       _sqlite3_db_cacheflush     10090080 f   sqlite3:sqlite3.obj
 0001:0008f110       _sqlite3_db_config         10090110 f   sqlite3:sqlite3.obj
 0001:0008f330       _sqlite3_last_insert_rowid 10090330 f   sqlite3:sqlite3.obj
 0001:0008f340       _sqlite3_set_last_insert_rowid 10090340 f   sqlite3:sqlite3.obj
 0001:0008f360       _sqlite3_changes           10090360 f   sqlite3:sqlite3.obj
 0001:0008f370       _sqlite3_total_changes     10090370 f   sqlite3:sqlite3.obj
 0001:0008f650       _sqlite3_close             10090650 f   sqlite3:sqlite3.obj
 0001:0008f660       _sqlite3_close_v2          10090660 f   sqlite3:sqlite3.obj
 0001:0008faf0       _sqlite3_busy_handler      10090af0 f   sqlite3:sqlite3.obj
 0001:0008fb30       _sqlite3_busy_timeout      10090b30 f   sqlite3:sqlite3.obj
 0001:0008fb90       _sqlite3_interrupt         10090b90 f   sqlite3:sqlite3.obj
 0001:0008feb0       _sqlite3_create_function   10090eb0 f   sqlite3:sqlite3.obj
 0001:0008ff10       _sqlite3_create_function_v2 10090f10 f   sqlite3:sqlite3.obj
 0001:0008ff50       _sqlite3_create_window_function 10090f50 f   sqlite3:sqlite3.obj
 0001:0008ff90       _sqlite3_create_function16 10090f90 f   sqlite3:sqlite3.obj
 0001:00090080       _sqlite3_overload_function 10091080 f   sqlite3:sqlite3.obj
 0001:000900f0       _sqlite3_trace_v2          100910f0 f   sqlite3:sqlite3.obj
 0001:00090120       _sqlite3_commit_hook       10091120 f   sqlite3:sqlite3.obj
 0001:00090140       _sqlite3_update_hook       10091140 f   sqlite3:sqlite3.obj
 0001:00090160       _sqlite3_rollback_hook     10091160 f   sqlite3:sqlite3.obj
 0001:000901c0       _sqlite3_wal_autocheckpoint 100911c0 f   sqlite3:sqlite3.obj
 0001:00090200       _sqlite3_wal_hook          10091200 f   sqlite3:sqlite3.obj
 0001:00090220       _sqlite3_wal_checkpoint_v2 10091220 f   sqlite3:sqlite3.obj
 0001:00090300       _sqlite3_wal_checkpoint    10091300 f   sqlite3:sqlite3.obj
 0001:000904b0       _sqlite3_errmsg            100914b0 f   sqlite3:sqlite3.obj
 0001:00090570       _sqlite3_errmsg16          10091570 f   sqlite3:sqlite3.obj
 0001:00090610       _sqlite3_errcode           10091610 f   sqlite3:sqlite3.obj
 0001:00090680       _sqlite3_extended_errcode  10091680 f   sqlite3:sqlite3.obj
 0001:000906f0       _sqlite3_system_errno      100916f0 f   sqlite3:sqlite3.obj
 0001:00090700       _sqlite3_errstr            10091700 f   sqlite3:sqlite3.obj
 0001:000908f0       _sqlite3_limit             100918f0 f   sqlite3:sqlite3.obj
 0001:00091460       _sqlite3_open              10092460 f   sqlite3:sqlite3.obj
 0001:00091480       _sqlite3_open_v2           10092480 f   sqlite3:sqlite3.obj
 0001:000914a0       _sqlite3_open16            100924a0 f   sqlite3:sqlite3.obj
 0001:000915b0       _sqlite3_create_collation  100925b0 f   sqlite3:sqlite3.obj
 0001:000915f0       _sqlite3_create_collation_v2 100925f0 f   sqlite3:sqlite3.obj
 0001:00091630       _sqlite3_create_collation16 10092630 f   sqlite3:sqlite3.obj
 0001:000916a0       _sqlite3_collation_needed  100926a0 f   sqlite3:sqlite3.obj
 0001:000916d0       _sqlite3_collation_needed16 100926d0 f   sqlite3:sqlite3.obj
 0001:00091700       _sqlite3_get_autocommit    10092700 f   sqlite3:sqlite3.obj
 0001:000917a0       _sqlite3_table_column_metadata 100927a0 f   sqlite3:sqlite3.obj
 0001:00091a20       _sqlite3_sleep             10092a20 f   sqlite3:sqlite3.obj
 0001:00091a60       _sqlite3_extended_result_codes 10092a60 f   sqlite3:sqlite3.obj
 0001:00091a80       _sqlite3_file_control      10092a80 f   sqlite3:sqlite3.obj
 0001:00091b30       _sqlite3_test_control      10092b30 f   sqlite3:sqlite3.obj
 0001:00091db0       _sqlite3_uri_parameter     10092db0 f   sqlite3:sqlite3.obj
 0001:00091e70       _sqlite3_uri_boolean       10092e70 f   sqlite3:sqlite3.obj
 0001:00091eb0       _sqlite3_uri_int64         10092eb0 f   sqlite3:sqlite3.obj
 0001:00091ef0       _sqlite3_db_filename       10092ef0 f   sqlite3:sqlite3.obj
 0001:00091f40       _sqlite3_db_readonly       10092f40 f   sqlite3:sqlite3.obj
 0001:00091f80       _sqlite3_compileoption_used 10092f80 f   sqlite3:sqlite3.obj
 0001:00092000       _sqlite3_compileoption_get 10093000 f   sqlite3:sqlite3.obj
 0001:000cfee0       _sqlite3_sourceid          100d0ee0 f   sqlite3:sqlite3.obj
 0001:000cfee6       __imp_load_?Exit@Context@v8@@QAEXXZ 100d0ee6 f   node:node.exe
 0001:000cfef0       __tailMerge_node_exe       100d0ef0 f i node:node.exe
 0001:000cff01       __imp_load_?Enter@Context@v8@@QAEXXZ 100d0f01 f   node:node.exe
 0001:000cff0b       __imp_load_?New@Integer@v8@@SA?AV?$Local@VInteger@v8@@@2@PAVIsolate@2@H@Z 100d0f0b f   node:node.exe
 0001:000cff15       __imp_load_?New@Signature@v8@@SA?AV?$Local@VSignature@v8@@@2@PAVIsolate@2@V?$Local@VFunctionTemplate@v8@@@2@@Z 100d0f15 f   node:node.exe
 0001:000cff1f       __imp_load_?ThrowException@Isolate@v8@@QAE?AV?$Local@VValue@v8@@@2@V32@@Z 100d0f1f f   node:node.exe
 0001:000cff29       __imp_load_?GetCurrentContext@Isolate@v8@@QAE?AV?$Local@VContext@v8@@@2@XZ 100d0f29 f   node:node.exe
 0001:000cff33       __imp_load_?GetCurrent@Isolate@v8@@SAPAV12@XZ 100d0f33 f   node:node.exe
 0001:000cff3d       __imp_load_?CreateHandle@HandleScope@v8@@KAPAPAVObject@internal@2@PAVIsolate@42@PAV342@@Z 100d0f3d f   node:node.exe
 0001:000cff47       __imp_load_??1HandleScope@v8@@QAE@XZ 100d0f47 f   node:node.exe
 0001:000cff51       __imp_load_??0HandleScope@v8@@QAE@PAVIsolate@1@@Z 100d0f51 f   node:node.exe
 0001:000cff5b       __imp_load_?Set@Template@v8@@QAEXV?$Local@VName@v8@@@2@V?$Local@VData@v8@@@2@W4PropertyAttribute@2@@Z 100d0f5b f   node:node.exe
 0001:000cff65       __imp_load_?Error@Exception@v8@@SA?AV?$Local@VValue@v8@@@2@V?$Local@VString@v8@@@2@@Z 100d0f65 f   node:node.exe
 0001:000cff6f       __imp_load_?TypeError@Exception@v8@@SA?AV?$Local@VValue@v8@@@2@V?$Local@VString@v8@@@2@@Z 100d0f6f f   node:node.exe
 0001:000cff79       __imp_load_?RangeError@Exception@v8@@SA?AV?$Local@VValue@v8@@@2@V?$Local@VString@v8@@@2@@Z 100d0f79 f   node:node.exe
 0001:000cff83       __imp_load_?New@AccessorSignature@v8@@SA?AV?$Local@VAccessorSignature@v8@@@2@PAVIsolate@2@V?$Local@VFunctionTemplate@v8@@@2@@Z 100d0f83 f   node:node.exe
 0001:000cff8d       __imp_load_?New@Array@v8@@SA?AV?$Local@VArray@v8@@@2@PAVIsolate@2@H@Z 100d0f8d f   node:node.exe
 0001:000cff97       __imp_load_?Length@Array@v8@@QBEIXZ 100d0f97 f   node:node.exe
 0001:000cffa1       __imp_load_?SetClassName@FunctionTemplate@v8@@QAEXV?$Local@VString@v8@@@2@@Z 100d0fa1 f   node:node.exe
 0001:000cffab       __imp_load_?PrototypeTemplate@FunctionTemplate@v8@@QAE?AV?$Local@VObjectTemplate@v8@@@2@XZ 100d0fab f   node:node.exe
 0001:000cffb5       __imp_load_?InstanceTemplate@FunctionTemplate@v8@@QAE?AV?$Local@VObjectTemplate@v8@@@2@XZ 100d0fb5 f   node:node.exe
 0001:000cffbf       __imp_load_?GetFunction@FunctionTemplate@v8@@QAE?AV?$MaybeLocal@VFunction@v8@@@2@V?$Local@VContext@v8@@@2@@Z 100d0fbf f   node:node.exe
 0001:000cffc9       __imp_load_?New@FunctionTemplate@v8@@SA?AV?$Local@VFunctionTemplate@v8@@@2@PAVIsolate@2@P6AXABV?$FunctionCallbackInfo@VValue@v8@@@2@@ZV?$Local@VValue@v8@@@2@V?$Local@VSignature@v8@@@2@HW4ConstructorBehavior@2@@Z 100d0fc9 f   node:node.exe
 0001:000cffd3       __imp_load_?Value@Boolean@v8@@QBE_NXZ 100d0fd3 f   node:node.exe
 0001:000cffdd       __imp_load_?ToLocalEmpty@V8@v8@@CAXXZ 100d0fdd f   node:node.exe
 0001:000cffe7       __imp_load_?FromJustIsNothing@V8@v8@@CAXXZ 100d0fe7 f   node:node.exe
 0001:000cfff1       __imp_load_?ClearWeak@V8@v8@@CAPAXPAPAVObject@internal@2@@Z 100d0ff1 f   node:node.exe
 0001:000cfffb       __imp_load_?MakeWeak@V8@v8@@CAXPAPAVObject@internal@2@PAXP6AXABV?$WeakCallbackInfo@X@2@@ZW4WeakCallbackType@2@@Z 100d0ffb f   node:node.exe
 0001:000d0005       __imp_load_?DisposeGlobal@V8@v8@@CAXPAPAVObject@internal@2@@Z 100d1005 f   node:node.exe
 0001:000d000f       __imp_load_?GlobalizeReference@V8@v8@@CAPAPAVObject@internal@2@PAVIsolate@42@PAPAV342@@Z 100d100f f   node:node.exe
 0001:000d0019       __imp_load_?StrictEquals@Value@v8@@QBE_NV?$Local@VValue@v8@@@2@@Z 100d1019 f   node:node.exe
 0001:000d0023       __imp_load_?IsInt32@Value@v8@@QBE_NXZ 100d1023 f   node:node.exe
 0001:000d002d       __imp_load_?IsNumber@Value@v8@@QBE_NXZ 100d102d f   node:node.exe
 0001:000d0037       __imp_load_?IsBoolean@Value@v8@@QBE_NXZ 100d1037 f   node:node.exe
 0001:000d0041       __imp_load_?IsObject@Value@v8@@QBE_NXZ 100d1041 f   node:node.exe
 0001:000d004b       __imp_load_?IsArray@Value@v8@@QBE_NXZ 100d104b f   node:node.exe
 0001:000d0055       __imp_load_?IsFunction@Value@v8@@QBE_NXZ 100d1055 f   node:node.exe
 0001:000d005f       __imp_load_??1Value@String@v8@@QAE@XZ 100d105f f   node:node.exe
 0001:000d0069       __imp_load_??0Value@String@v8@@QAE@PAVIsolate@2@V?$Local@VValue@v8@@@2@@Z 100d1069 f   node:node.exe
 0001:000d0073       __imp_load_??1Utf8Value@String@v8@@QAE@XZ 100d1073 f   node:node.exe
 0001:000d007d       __imp_load_??0Utf8Value@String@v8@@QAE@PAVIsolate@2@V?$Local@VValue@v8@@@2@@Z 100d107d f   node:node.exe
 0001:000d0087       __imp_load_?NewFromOneByte@String@v8@@SA?AV?$MaybeLocal@VString@v8@@@2@PAVIsolate@2@PBEW4NewStringType@2@H@Z 100d1087 f   node:node.exe
 0001:000d0091       __imp_load_?NewFromUtf8@String@v8@@SA?AV?$Local@VString@v8@@@2@PAVIsolate@2@PBDW4NewStringType@12@H@Z 100d1091 f   node:node.exe
 0001:000d009b       __imp_load_?NewFromUtf8@String@v8@@SA?AV?$MaybeLocal@VString@v8@@@2@PAVIsolate@2@PBDW4NewStringType@2@H@Z 100d109b f   node:node.exe
 0001:000d00a5       __imp_load_?Value@Int32@v8@@QBEHXZ 100d10a5 f   node:node.exe
 0001:000d00af       __imp_load_?New@Number@v8@@SA?AV?$Local@VNumber@v8@@@2@PAVIsolate@2@N@Z 100d10af f   node:node.exe
 0001:000d00b9       __imp_load_?Value@Number@v8@@QBENXZ 100d10b9 f   node:node.exe
 0001:000d00c3       __imp_load_?SlowGetAlignedPointerFromInternalField@Object@v8@@AAEPAXH@Z 100d10c3 f   node:node.exe
 0001:000d00cd       __imp_load_?New@Object@v8@@SA?AV?$Local@VObject@v8@@@2@PAVIsolate@2@@Z 100d10cd f   node:node.exe
 0001:000d00d7       __imp_load_?CreationContext@Object@v8@@QAE?AV?$Local@VContext@v8@@@2@XZ 100d10d7 f   node:node.exe
 0001:000d00e1       __imp_load_?HasOwnProperty@Object@v8@@QAE?AV?$Maybe@_N@2@V?$Local@VContext@v8@@@2@V?$Local@VName@v8@@@2@@Z 100d10e1 f   node:node.exe
 0001:000d00eb       __imp_load_?SetAlignedPointerInInternalField@Object@v8@@QAEXHPAX@Z 100d10eb f   node:node.exe
 0001:000d00f5       __imp_load_?GetPrototype@Object@v8@@QAE?AV?$Local@VValue@v8@@@2@XZ 100d10f5 f   node:node.exe
 0001:000d00ff       __imp_load_?Get@Object@v8@@QAE?AV?$MaybeLocal@VValue@v8@@@2@V?$Local@VContext@v8@@@2@V?$Local@VValue@v8@@@2@@Z 100d10ff f   node:node.exe
 0001:000d0109       __imp_load_?Get@Object@v8@@QAE?AV?$MaybeLocal@VValue@v8@@@2@V?$Local@VContext@v8@@@2@I@Z 100d1109 f   node:node.exe
 0001:000d0113       __imp_load_?DefineOwnProperty@Object@v8@@QAE?AV?$Maybe@_N@2@V?$Local@VContext@v8@@@2@V?$Local@VName@v8@@@2@V?$Local@VValue@v8@@@2@W4PropertyAttribute@2@@Z 100d1113 f   node:node.exe
 0001:000d011d       __imp_load_?Set@Object@v8@@QAE?AV?$Maybe@_N@2@V?$Local@VContext@v8@@@2@V?$Local@VValue@v8@@@2@1@Z 100d111d f   node:node.exe
 0001:000d0127       __imp_load_?Set@Object@v8@@QAE?AV?$Maybe@_N@2@V?$Local@VContext@v8@@@2@IV?$Local@VValue@v8@@@2@@Z 100d1127 f   node:node.exe
 0001:000d0131       __imp_load_?GetIterator@Symbol@v8@@SA?AV?$Local@VSymbol@v8@@@2@PAVIsolate@2@@Z 100d1131 f   node:node.exe
 0001:000d013b       __imp_load_?Call@Function@v8@@QAE?AV?$MaybeLocal@VValue@v8@@@2@V?$Local@VContext@v8@@@2@V?$Local@VValue@v8@@@2@HQAV52@@Z 100d113b f   node:node.exe
 0001:000d0145       __imp_load_?NewInstance@Function@v8@@QBE?AV?$MaybeLocal@VObject@v8@@@2@V?$Local@VContext@v8@@@2@HQAV?$Local@VValue@v8@@@2@@Z 100d1145 f   node:node.exe
 0001:000d014f       __imp_load_?SetInternalFieldCount@ObjectTemplate@v8@@QAEXH@Z 100d114f f   node:node.exe
 0001:000d0159       __imp_load_?SetAccessor@ObjectTemplate@v8@@QAEXV?$Local@VString@v8@@@2@P6AX0ABV?$PropertyCallbackInfo@VValue@v8@@@2@@ZP6AX0V?$Local@VValue@v8@@@2@ABV?$PropertyCallbackInfo@X@2@@Z3W4AccessControl@2@W4PropertyAttribute@2@V?$Local@VAccessorSignature@v8@@@2@@Z 100d1159 f   node:node.exe
 0001:000d0163       __imp_load_?AtExit@node@@YAXP6AXPAX@Z0@Z 100d1163 f   node:node.exe
 0001:000d016d       __imp_load__node_module_register 100d116d f   node:node.exe
 0001:000d0177       __imp_load_?HasInstance@Buffer@node@@YA_NV?$Local@VValue@v8@@@v8@@@Z 100d1177 f   node:node.exe
 0001:000d0181       __imp_load_?Data@Buffer@node@@YAPADV?$Local@VValue@v8@@@v8@@@Z 100d1181 f   node:node.exe
 0001:000d018b       __imp_load_?Copy@Buffer@node@@YA?AV?$MaybeLocal@VObject@v8@@@v8@@PAVIsolate@4@PBDI@Z 100d118b f   node:node.exe
 0001:000d0195       __imp_load_?Length@Buffer@node@@YAIV?$Local@VValue@v8@@@v8@@@Z 100d1195 f   node:node.exe
 0001:000d019f       ??0bad_alloc@std@@QAE@ABV01@@Z 100d119f f i libcpmt:xthrow.obj
 0001:000d01ba       ??0bad_alloc@std@@QAE@XZ   100d11ba f i libcpmt:xthrow.obj
 0001:000d01d2       ??0exception@std@@QAE@ABV01@@Z 100d11d2 f i libcpmt:xthrow.obj
 0001:000d01fe       ??0exception@std@@QAE@QBD@Z 100d11fe f i libcpmt:xthrow.obj
 0001:000d0235       ??0length_error@std@@QAE@ABV01@@Z 100d1235 f i libcpmt:xthrow.obj
 0001:000d0250       ??0length_error@std@@QAE@PBD@Z 100d1250 f i libcpmt:xthrow.obj
 0001:000d0271       ??0logic_error@std@@QAE@ABV01@@Z 100d1271 f i libcpmt:xthrow.obj
 0001:000d028c       ??0out_of_range@std@@QAE@ABV01@@Z 100d128c f i libcpmt:xthrow.obj
 0001:000d02a7       ??0out_of_range@std@@QAE@PBD@Z 100d12a7 f i libcpmt:xthrow.obj
 0001:000d02c8       ??_Ebad_alloc@std@@UAEPAXI@Z 100d12c8 f i libcpmt:xthrow.obj
 0001:000d02c8       ??_Gbad_alloc@std@@UAEPAXI@Z 100d12c8 f i libcpmt:xthrow.obj
 0001:000d02c8       ??_Eexception@std@@UAEPAXI@Z 100d12c8 f i libcpmt:xthrow.obj
 0001:000d02c8       ??_Ebad_exception@std@@UAEPAXI@Z 100d12c8 f i libvcruntime:frame.obj
 0001:000d02c8       ??_Glogic_error@std@@UAEPAXI@Z 100d12c8 f i libcpmt:xthrow.obj
 0001:000d02c8       ??_Glength_error@std@@UAEPAXI@Z 100d12c8 f i libcpmt:xthrow.obj
 0001:000d02c8       ??_Gexception@std@@UAEPAXI@Z 100d12c8 f i libcpmt:xthrow.obj
 0001:000d02c8       ??_Elogic_error@std@@UAEPAXI@Z 100d12c8 f i libcpmt:xthrow.obj
 0001:000d02c8       ??_Gbad_exception@std@@UAEPAXI@Z 100d12c8 f i libvcruntime:frame.obj
 0001:000d02c8       ??_Ebad_array_new_length@std@@UAEPAXI@Z 100d12c8 f i LIBCMT:throw_bad_alloc.obj
 0001:000d02c8       ??_Gout_of_range@std@@UAEPAXI@Z 100d12c8 f i libcpmt:xthrow.obj
 0001:000d02c8       ??_Gbad_array_new_length@std@@UAEPAXI@Z 100d12c8 f i LIBCMT:throw_bad_alloc.obj
 0001:000d02c8       ??_Elength_error@std@@UAEPAXI@Z 100d12c8 f i libcpmt:xthrow.obj
 0001:000d02c8       ??_Eout_of_range@std@@UAEPAXI@Z 100d12c8 f i libcpmt:xthrow.obj
 0001:000d02f5       ?__scrt_throw_std_bad_alloc@@YAXXZ 100d12f5 f   LIBCMT:throw_bad_alloc.obj
 0001:000d02f5       ?_Xbad_alloc@std@@YAXXZ    100d12f5 f   libcpmt:xthrow.obj
 0001:000d0312       ?_Xlength_error@std@@YAXPBD@Z 100d1312 f   libcpmt:xthrow.obj
 0001:000d0332       ?_Xout_of_range@std@@YAXPBD@Z 100d1332 f   libcpmt:xthrow.obj
 0001:000d0352       ?what@exception@std@@UBEPBDXZ 100d1352 f i libcpmt:xthrow.obj
 0001:000d035f       @__security_check_cookie@4 100d135f f   LIBCMT:_secchk_.obj
 0001:000d0370       ??_V@YAXPAX@Z              100d1370 f   LIBCMT:delete_array.obj
 0001:000d0375       ??2@YAPAXI@Z               100d1375 f   LIBCMT:new_scalar.obj
 0001:000d03a8       ??$__crt_fast_encode_pointer@PAX@@YAPAXQAX@Z 100d13a8 f i libvcruntime:winapi_downlevel.obj
 0001:000d03a8       ??$__crt_fast_encode_pointer@PAP6AXXZ@@YAPAP6AXXZQAP6AXXZ@Z 100d13a8 f i LIBCMT:utility.obj
 0001:000d0409       ___scrt_acquire_startup_lock 100d1409 f   LIBCMT:utility.obj
 0001:000d043e       ___scrt_dllmain_after_initialize_c 100d143e f   LIBCMT:utility.obj
 0001:000d0469       ___scrt_dllmain_before_initialize_c 100d1469 f   LIBCMT:utility.obj
 0001:000d0477       ___scrt_dllmain_crt_thread_attach 100d1477 f   LIBCMT:utility.obj
 0001:000d0496       ___scrt_dllmain_crt_thread_detach 100d1496 f   LIBCMT:utility.obj
 0001:000d04a3       ___scrt_dllmain_exception_filter 100d14a3 f   LIBCMT:utility.obj
 0001:000d04d6       ___scrt_dllmain_uninitialize_c 100d14d6 f   LIBCMT:utility.obj
 0001:000d04f9       ___scrt_dllmain_uninitialize_critical 100d14f9 f   LIBCMT:utility.obj
 0001:000d0506       ___scrt_initialize_crt     100d1506 f   LIBCMT:utility.obj
 0001:000d053f       ___scrt_initialize_onexit_tables 100d153f f   LIBCMT:utility.obj
 0001:000d05d6       ___scrt_is_nonwritable_in_current_image 100d15d6 f   LIBCMT:utility.obj
 0001:000d0660       ___scrt_release_startup_lock 100d1660 f   LIBCMT:utility.obj
 0001:000d067d       ___scrt_uninitialize_crt   100d167d f   LIBCMT:utility.obj
 0001:000d06a5       __onexit                   100d16a5 f   LIBCMT:utility.obj
 0001:000d06e0       _atexit                    100d16e0 f   LIBCMT:utility.obj
 0001:000d06f5       ??3@YAXPAXI@Z              100d16f5 f   LIBCMT:delete_scalar_size.obj
 0001:000d0703       ??_U@YAPAXI@Z              100d1703 f   LIBCMT:new_array.obj
 0001:000d0a14       __DllMainCRTStartup@12     100d1a14 f   LIBCMT:dll_dllmain.obj
 0001:000d0a37       ___raise_securityfailure   100d1a37 f   LIBCMT:gs_report.obj
 0001:000d0a5f       ___report_gsfailure        100d1a5f f   LIBCMT:gs_report.obj
 0001:000d0b5a       ___report_rangecheckfailure 100d1b5a f   LIBCMT:gs_report.obj
 0001:000d0b66       ___report_securityfailure  100d1b66 f   LIBCMT:gs_report.obj
 0001:000d0c36       ??_Gtype_info@@UAEPAXI@Z   100d1c36 f i LIBCMT:std_type_info_static.obj
 0001:000d0c36       ??_Etype_info@@UAEPAXI@Z   100d1c36 f i LIBCMT:std_type_info_static.obj
 0001:000d0c59       ??0bad_array_new_length@std@@QAE@ABV01@@Z 100d1c59 f i LIBCMT:throw_bad_alloc.obj
 0001:000d0c74       ??0bad_array_new_length@std@@QAE@XZ 100d1c74 f i LIBCMT:throw_bad_alloc.obj
 0001:000d0c8c       ??1bad_alloc@std@@UAE@XZ   100d1c8c f i libcpmt:xthrow.obj
 0001:000d0c8c       ??1out_of_range@std@@UAE@XZ 100d1c8c f i libcpmt:xthrow.obj
 0001:000d0c8c       ??1length_error@std@@UAE@XZ 100d1c8c f i libcpmt:xthrow.obj
 0001:000d0c8c       ??1bad_array_new_length@std@@UAE@XZ 100d1c8c f i LIBCMT:throw_bad_alloc.obj
 0001:000d0c8c       ??1bad_exception@std@@UAE@XZ 100d1c8c f i libvcruntime:frame.obj
 0001:000d0c9d       ?__scrt_throw_std_bad_array_new_length@@YAXXZ 100d1c9d f   LIBCMT:throw_bad_alloc.obj
 0001:000d0cba       ___isa_available_init      100d1cba f   LIBCMT:_cpu_disp_.obj
 0001:000d0e54       __get_startup_argv_mode    100d1e54 f   LIBCMT:argv_mode.obj
 0001:000d0e58       ___scrt_is_ucrt_dll_in_use 100d1e58 f   LIBCMT:ucrt_detection.obj
 0001:000d0e64       ___scrt_fastfail           100d1e64 f   LIBCMT:utility_desktop.obj
 0001:000d0f7f       __crt_debugger_hook        100d1f7f f   LIBCMT:utility_desktop.obj
 0001:000d0f87       @_guard_check_icall@4      100d1f87 f i LIBCMT:checkcfg.obj
 0001:000d0f90       __SEH_prolog4              100d1f90 f   LIBCMT:_sehprolg4_.obj
 0001:000d0fd6       __SEH_epilog4              100d1fd6 f   LIBCMT:_sehprolg4_.obj
 0001:000d0feb       ___security_init_cookie    100d1feb f   LIBCMT:gs_support.obj
 0001:000d1087       _DllMain@12                100d2087 f   LIBCMT:dll_dllmain_stub.obj
 0001:000d108d       ?__scrt_initialize_type_info@@YAXXZ 100d208d f   LIBCMT:tncleanup.obj
 0001:000d1099       ?__scrt_uninitialize_type_info@@YAXXZ 100d2099 f   LIBCMT:tncleanup.obj
 0001:000d10a5       ___local_stdio_printf_options 100d20a5 f i LIBCMT:default_local_stdio_options.obj
 0001:000d10ab       ___local_stdio_scanf_options 100d20ab f i LIBCMT:default_local_stdio_options.obj
 0001:000d10b1       ___scrt_initialize_default_local_stdio_options 100d20b1 f   LIBCMT:default_local_stdio_options.obj
 0001:000d10ce       ___scrt_get_dyn_tls_init_callback 100d20ce f   LIBCMT:dyn_tls_init.obj
 0001:000d10d4       __RTC_Initialize           100d20d4 f   LIBCMT:_initsect_.obj
 0001:000d10ff       __RTC_Terminate            100d20ff f   LIBCMT:_initsect_.obj
 0001:000d1130       _memmove                   100d2130 f   libvcruntime:memmove.obj
 0001:000d16a4       ___DestructExceptionObject 100d26a4 f   libvcruntime:frame.obj
 0001:000d1738       ??0bad_exception@std@@QAE@ABV01@@Z 100d2738 f i libvcruntime:frame.obj
 0001:000d1753       ??0bad_exception@std@@QAE@XZ 100d2753 f i libvcruntime:frame.obj
 0001:000d1f84       ?_CallMemberFunction2@@YGXQAX00H@Z 100d2f84 f i libvcruntime:frame.obj
 0001:000d1f84       ?_CallMemberFunction0@@YGXQAX0@Z 100d2f84 f i libvcruntime:frame.obj
 0001:000d1f84       ?_CallMemberFunction1@@YGXQAX00@Z 100d2f84 f i libvcruntime:frame.obj
 0001:000d1f8b       ___AdjustPointer           100d2f8b f   libvcruntime:frame.obj
 0001:000d1fb0       ___BuildCatchObject        100d2fb0 f   libvcruntime:frame.obj
 0001:000d203f       ___BuildCatchObjectHelper  100d303f f   libvcruntime:frame.obj
 0001:000d216d       ___FrameUnwindFilter       100d316d f   libvcruntime:frame.obj
 0001:000d21b2       ___FrameUnwindToState      100d31b2 f   libvcruntime:frame.obj
 0001:000d227a       ___InternalCxxFrameHandler 100d327a f   libvcruntime:frame.obj
 0001:000d2376       ___TypeMatch               100d3376 f   libvcruntime:frame.obj
 0001:000d2404       ___std_terminate           100d3404 f   libvcruntime:frame.obj
 0001:000d2410       _strrchr                   100d3410 f   libvcruntime:strrchr.obj
 0001:000d2547       ___std_exception_copy      100d3547 f   libvcruntime:std_exception.obj
 0001:000d25aa       ___std_exception_destroy   100d35aa f   libvcruntime:std_exception.obj
 0001:000d25c9       __CxxThrowException@8      100d35c9 f   libvcruntime:throw.obj
 0001:000d2637       ___vcrt_initialize         100d3637 f   libvcruntime:initialization.obj
 0001:000d2660       ___vcrt_thread_attach      100d3660 f   libvcruntime:initialization.obj
 0001:000d266b       ___vcrt_thread_detach      100d366b f   libvcruntime:initialization.obj
 0001:000d2676       ___vcrt_uninitialize       100d3676 f   libvcruntime:initialization.obj
 0001:000d2695       ___vcrt_uninitialize_critical 100d3695 f   libvcruntime:initialization.obj
 0001:000d26e0       __except_handler4          100d36e0 f   libvcruntime:_chandler4_.obj
 0001:000d2850       _memset                    100d3850 f   libvcruntime:memset.obj
 0001:000d29aa       ___std_type_info_compare   100d39aa f   libvcruntime:std_type_info.obj
 0001:000d29e6       ___std_type_info_destroy_list 100d39e6 f   libvcruntime:std_type_info.obj
 0001:000d2a09       _unexpected                100d3a09 f   libvcruntime:unexpected.obj
 0001:000d2a25       ___vcrt_freefls@4          100d3a25 f   libvcruntime:per_thread_data.obj
 0001:000d2a41       ___vcrt_freeptd            100d3a41 f   libvcruntime:per_thread_data.obj
 0001:000d2a77       ___vcrt_getptd             100d3a77 f   libvcruntime:per_thread_data.obj
 0001:000d2a85       ___vcrt_getptd_noexit      100d3a85 f   libvcruntime:per_thread_data.obj
 0001:000d2b17       ___vcrt_initialize_ptd     100d3b17 f   libvcruntime:per_thread_data.obj
 0001:000d2b4a       ___vcrt_uninitialize_ptd   100d3b4a f   libvcruntime:per_thread_data.obj
 0001:000d2b70       __CallSettingFrame@12      100d3b70 f   libvcruntime:lowhelpr.obj
 0001:000d2b97       __NLG_Return               100d3b97     libvcruntime:lowhelpr.obj
 0001:000d2bbc       ?_CallCatchBlock2@@YAPAXPAUEHRegistrationNode@@PBU_s_FuncInfo@@PAXHK@Z 100d3bbc f   libvcruntime:trnsctrl.obj
 0001:000d2c1c       ?_CallSETranslator@@YAHPAUEHExceptionRecord@@PAUEHRegistrationNode@@PAX2PBU_s_FuncInfo@@H1@Z 100d3c1c f   libvcruntime:trnsctrl.obj
 0001:000d2cf9       ?_GetRangeOfTrysToCheck@@YAPBU_s_TryBlockMapEntry@@PBU_s_FuncInfo@@HHPAI1@Z 100d3cf9 f   libvcruntime:trnsctrl.obj
 0001:000d2d71       ?_JumpToContinuation@@YGXPAXPAUEHRegistrationNode@@@Z 100d3d71 f   libvcruntime:trnsctrl.obj
 0001:000d2da3       ?_UnwindNestedFrames@@YGXPAUEHRegistrationNode@@PAUEHExceptionRecord@@@Z 100d3da3 f   libvcruntime:trnsctrl.obj
 0001:000d2df8       __CatchGuardHandler        100d3df8 f   libvcruntime:trnsctrl.obj
 0001:000d2e29       __CreateFrameInfo          100d3e29 f   libvcruntime:trnsctrl.obj
 0001:000d2e4d       __FindAndUnlinkFrame       100d3e4d f   libvcruntime:trnsctrl.obj
 0001:000d2e97       __IsExceptionObjectToBeDestroyed 100d3e97 f   libvcruntime:trnsctrl.obj
 0001:000d2ebd       __TranslatorGuardHandler   100d3ebd f   libvcruntime:trnsctrl.obj
 0001:000d2f5c       ___CxxFrameHandler3        100d3f5c f   libvcruntime:trnsctrl.obj
 0001:000d2f92       ___vcrt_initialize_locks   100d3f92 f   libvcruntime:locks.obj
 0001:000d2fce       ___vcrt_uninitialize_locks 100d3fce f   libvcruntime:locks.obj
 0001:000d311e       ___vcrt_FlsAlloc           100d411e f   libvcruntime:winapi_downlevel.obj
 0001:000d3158       ___vcrt_FlsFree            100d4158 f   libvcruntime:winapi_downlevel.obj
 0001:000d3192       ___vcrt_FlsGetValue        100d4192 f   libvcruntime:winapi_downlevel.obj
 0001:000d31cc       ___vcrt_FlsSetValue        100d41cc f   libvcruntime:winapi_downlevel.obj
 0001:000d3209       ___vcrt_InitializeCriticalSectionEx 100d4209 f   libvcruntime:winapi_downlevel.obj
 0001:000d324f       ___vcrt_initialize_winapi_thunks 100d424f f   libvcruntime:winapi_downlevel.obj
 0001:000d3289       ___vcrt_uninitialize_winapi_thunks 100d4289 f   libvcruntime:winapi_downlevel.obj
 0001:000d32bb       ___vcrt_initialize_pure_virtual_call_handler 100d42bb f   libvcruntime:purevirt_data.obj
 0001:000d32e0       __local_unwind4            100d42e0 f   libvcruntime:_exsup4_.obj
 0001:000d33b6       __seh_longjmp_unwind4@4    100d43b6 f   libvcruntime:_exsup4_.obj
 0001:000d33de       @_EH4_CallFilterFunc@8     100d43de f   libvcruntime:_exsup4_.obj
 0001:000d33f5       @_EH4_TransferToHandler@8  100d43f5 f   libvcruntime:_exsup4_.obj
 0001:000d340e       @_EH4_GlobalUnwind2@8      100d440e f   libvcruntime:_exsup4_.obj
 0001:000d3427       @_EH4_LocalUnwind@16       100d4427 f   libvcruntime:_exsup4_.obj
 0001:000d3440       __global_unwind2           100d4440 f   libvcruntime:_exsup_.obj
 0001:000d34a5       __local_unwind2            100d44a5 f   libvcruntime:_exsup_.obj
 0001:000d3529       __abnormal_termination     100d4529 f   libvcruntime:_exsup_.obj
 0001:000d354c       __NLG_Notify1              100d454c f   libvcruntime:_exsup_.obj
 0001:000d3555       __NLG_Notify               100d4555 f   libvcruntime:_exsup_.obj
 0001:000d356c       __NLG_Dispatch             100d456c     libvcruntime:_exsup_.obj
 0001:000d356c       __NLG_Dispatch2            100d456c     libvcruntime:_exsup_.obj
 0001:000d3574       __NLG_Call                 100d4574 f   libvcruntime:_exsup_.obj
 0001:000d3576       __NLG_Return2              100d4576     libvcruntime:_exsup_.obj
 0001:000d3577       _remove                    100d4577 f   libucrt:unlink.obj
 0001:000d35c4       ___acrt_call_reportfault   100d45c4 f   libucrt:invalid_parameter.obj
 0001:000d36ff       ___acrt_initialize_invalid_parameter_handler 100d46ff f   libucrt:invalid_parameter.obj
 0001:000d3713       __invalid_parameter        100d4713 f   libucrt:invalid_parameter.obj
 0001:000d378e       __invalid_parameter_noinfo 100d478e f   libucrt:invalid_parameter.obj
 0001:000d379e       __invalid_parameter_noinfo_noreturn 100d479e f   libucrt:invalid_parameter.obj
 0001:000d37bb       __invoke_watson            100d47bb f   libucrt:invalid_parameter.obj
 0001:000d37ee       ??0_LocaleUpdate@@QAE@QAU__crt_locale_pointers@@@Z 100d47ee f i libucrt:stricmp.obj
 0001:000d3871       ___ascii_stricmp           100d4871 f   libucrt:stricmp.obj
 0001:000d38ac       __stricmp                  100d48ac f   libucrt:stricmp.obj
 0001:000d38f4       __stricmp_l                100d48f4 f   libucrt:stricmp.obj
 0001:000d3c18       __localtime64_s            100d4c18 f   libucrt:localtime.obj
 0001:000d3c23       _realloc                   100d4c23 f   libucrt:realloc.obj
 0001:000d3c30       _strcspn                   100d4c30 f   libucrt:strcspn.obj
 0001:000d3d60       _qsort                     100d4d60 f   libucrt:qsort.obj
 0001:000d40fa       __msize                    100d50fa f   libucrt:msize.obj
 0001:000d4130       _strncmp                   100d5130 f   libucrt:strncmp.obj
 0001:000d41a8       _free                      100d51a8 f   libucrt:free.obj
 0001:000d41ad       _malloc                    100d51ad f   libucrt:malloc.obj
 0001:000d41b8       ___acrt_initialize_new_handler 100d51b8 f   libucrt:new_handler.obj
 0001:000d41cc       __callnewh                 100d51cc f   libucrt:new_handler.obj
 0001:000d4210       __query_new_handler        100d5210 f   libucrt:new_handler.obj
 0001:000d4262       __seh_filter_dll           100d5262 f   libucrt:exception_filter.obj
 0001:000d4282       __seh_filter_exe           100d5282 f   libucrt:exception_filter.obj
 0001:000d4610       ___acrt_initialize_thread_local_exit_callback 100d5610 f   libucrt:exit.obj
 0001:000d461f       __cexit                    100d561f f   libucrt:exit.obj
 0001:000d462e       __exit                     100d562e f   libucrt:exit.obj
 0001:000d4644       __is_c_termination_complete 100d5644 f   libucrt:exit.obj
 0001:000d48e3       ___acrt_allocate_buffer_for_argv 100d58e3 f   libucrt:argv_parsing.obj
 0001:000d4938       __configure_narrow_argv    100d5938 f   libucrt:argv_parsing.obj
 0001:000d4b4a       ??$uninitialize@A6AXAAPAPA_W@Z@?$dual_state_global@PAPA_W@__crt_state_management@@QAEXA6AXAAPAPA_W@Z@Z 100d5b4a f i libucrt:environment_initialization.obj
 0001:000d4b4a       ??$uninitialize@A6AXAAPAPAD@Z@?$dual_state_global@PAPAD@__crt_state_management@@QAEXA6AXAAPAPAD@Z@Z 100d5b4a f i libucrt:environment_initialization.obj
 0001:000d4bc0       ___dcrt_get_or_create_narrow_environment_nolock 100d5bc0 f   libucrt:environment_initialization.obj
 0001:000d4bc5       ___dcrt_uninitialize_environments_nolock 100d5bc5 f   libucrt:environment_initialization.obj
 0001:000d4bfc       __initialize_narrow_environment 100d5bfc f   libucrt:environment_initialization.obj
 0001:000d4c01       ??$?RV<lambda_800076c951b434888f4765a74a194fcc>@@AAV<lambda_4e60a939b0d047cfe11ddc22648dfba9>@@V<lambda_6dbb1268764f43b569ce7b67e331d33a>@@@?$__crt_seh_guarded_call@H@@QAEH$$QAV<lambda_800076c951b434888f4765a74a194fcc>@@AAV<lambda_4e60a939b0d047cfe11ddc22648dfba9>@@$$QAV<lambda_6dbb1268764f43b569ce7b67e331d33a>@@@Z 100d5c01 f i libucrt:onexit.obj
 0001:000d4c52       ??$?RV<lambda_995298e7d72eb4c2aab26c0585b3abe5>@@AAV<lambda_275893d493268fdec8709772e3fcec0e>@@V<lambda_293819299cbf9a7022e18b56a874bb5c>@@@?$__crt_seh_guarded_call@H@@QAEH$$QAV<lambda_995298e7d72eb4c2aab26c0585b3abe5>@@AAV<lambda_275893d493268fdec8709772e3fcec0e>@@$$QAV<lambda_293819299cbf9a7022e18b56a874bb5c>@@@Z 100d5c52 f i libucrt:onexit.obj
 0001:000d4ca3       ??$__acrt_lock_and_call@V<lambda_275893d493268fdec8709772e3fcec0e>@@@@YAHW4__acrt_lock_id@@$$QAV<lambda_275893d493268fdec8709772e3fcec0e>@@@Z 100d5ca3 f i libucrt:onexit.obj
 0001:000d4ccb       ??$__acrt_lock_and_call@V<lambda_4e60a939b0d047cfe11ddc22648dfba9>@@@@YAHW4__acrt_lock_id@@$$QAV<lambda_4e60a939b0d047cfe11ddc22648dfba9>@@@Z 100d5ccb f i libucrt:onexit.obj
 0001:000d4cf3       ??$__crt_fast_encode_pointer@P6AHXZ@@YAP6AHXZQ6AHXZ@Z 100d5cf3 f i libucrt:onexit.obj
 0001:000d4f73       __crt_atexit               100d5f73 f   libucrt:onexit.obj
 0001:000d4f89       __execute_onexit_table     100d5f89 f   libucrt:onexit.obj
 0001:000d4fa6       __initialize_onexit_table  100d5fa6 f   libucrt:onexit.obj
 0001:000d4fe3       __register_onexit_function 100d5fe3 f   libucrt:onexit.obj
 0001:000d503b       ___acrt_uninitialize_command_line 100d603b f   libucrt:argv_data.obj
 0001:000d50fb       ?initialize@?$dual_state_global@PAPAD@__crt_state_management@@QAEXQAPAD@Z 100d60fb f i libucrt:environment_initialization.obj
 0001:000d50fb       ?initialize@?$dual_state_global@P6AHPAU_exception@@@Z@__crt_state_management@@QAEXQ6AHPAU_exception@@@Z@Z 100d60fb f i libucrt:matherr.obj
 0001:000d50fb       ?initialize@?$dual_state_global@H@__crt_state_management@@QAEXH@Z 100d60fb f i libucrt:timeset.obj
 0001:000d50fb       ?initialize@?$dual_state_global@P6AHI@Z@__crt_state_management@@QAEXQ6AHI@Z@Z 100d60fb f i libucrt:new_handler.obj
 0001:000d50fb       ?initialize@?$dual_state_global@J@__crt_state_management@@QAEXJ@Z 100d60fb f i libucrt:timeset.obj
 0001:000d50fb       ?initialize@?$dual_state_global@PAU__crt_locale_data@@@__crt_state_management@@QAEXQAU__crt_locale_data@@@Z 100d60fb f i libucrt:initialization.obj
 0001:000d50fb       ?initialize@?$dual_state_global@P6AXH@Z@__crt_state_management@@QAEXQ6AXH@Z@Z 100d60fb f i libucrt:signal.obj
 0001:000d50fb       ?initialize@?$dual_state_global@P6AXPB_W00II@Z@__crt_state_management@@QAEXQ6AXPB_W00II@Z@Z 100d60fb f i libucrt:invalid_parameter.obj
 0001:000d512c       ___acrt_initialize         100d612c f   libucrt:initialization.obj
 0001:000d513e       ___acrt_thread_attach      100d613e f   libucrt:initialization.obj
 0001:000d5149       ___acrt_thread_detach      100d6149 f   libucrt:initialization.obj
 0001:000d5151       ___acrt_uninitialize       100d6151 f   libucrt:initialization.obj
 0001:000d5163       ___acrt_uninitialize_critical 100d6163 f   libucrt:initialization.obj
 0001:000d5175       __initterm                 100d6175 f   libucrt:initterm.obj
 0001:000d51d1       __initterm_e               100d61d1 f   libucrt:initterm.obj
 0001:000d5216       _terminate                 100d6216 f   libucrt:terminate.obj
 0001:000d5252       _strcpy_s                  100d6252 f   libucrt:strcpy_s.obj
 0001:000d52ac       __free_base                100d62ac f   libucrt:free_base.obj
 0001:000d52e6       __malloc_base              100d62e6 f   libucrt:malloc_base.obj
 0001:000d5334       _abort                     100d6334 f   libucrt:abort.obj
 0001:000d5377       __calloc_base              100d6377 f   libucrt:calloc_base.obj
 0001:000d53d4       ??$is_overflow_condition@K@__crt_strtox@@YA_NIK@Z 100d63d4 f i libucrt:atox.obj
 0001:000d5407       ??$make_c_string_character_source@D$$T@__crt_strtox@@YA?AV?$c_string_character_source@D@0@QBD$$T@Z 100d6407 f i libucrt:atox.obj
 0001:000d5422       ??$parse_integer@KV?$c_string_character_source@D@__crt_strtox@@@__crt_strtox@@YAKQAU__crt_locale_pointers@@V?$c_string_character_source@D@0@H_N@Z 100d6422 f i libucrt:atox.obj
 0001:000d564a       ?unget@?$c_string_character_source@D@__crt_strtox@@QAEXD@Z 100d664a f i libucrt:atox.obj
 0001:000d5672       ?validate@?$c_string_character_source@D@__crt_strtox@@QBE_NXZ 100d6672 f i libucrt:atox.obj
 0001:000d568d       __chvalidchk_l             100d668d f i libucrt:atox.obj
 0001:000d56b7       __ischartype_l             100d66b7 f i libucrt:atox.obj
 0001:000d56ea       _atol                      100d66ea f   libucrt:atox.obj
 0001:000d5714       ___acrt_copy_path_to_wide_string 100d6714 f   libucrt:string_utilities.obj
 0001:000d57db       __wremove                  100d67db f   libucrt:wunlink.obj
 0001:000d5803       ??$?RV<lambda_3518db117f0e7cdb002338c5d3c47b6c>@@AAV<lambda_b2ea41f6bbb362cd97d94c6828d90b61>@@V<lambda_abdedf541bb04549bc734292b4a045d4>@@@?$__crt_seh_guarded_call@X@@QAEX$$QAV<lambda_3518db117f0e7cdb002338c5d3c47b6c>@@AAV<lambda_b2ea41f6bbb362cd97d94c6828d90b61>@@$$QAV<lambda_abdedf541bb04549bc734292b4a045d4>@@@Z 100d6803 f i libucrt:per_thread_data.obj
 0001:000d5853       ??$?RV<lambda_51b6e8b1eb166f2a3faf91f424b38130>@@AAV<lambda_6250bd4b2a391816dd638c3bf72b0bcb>@@V<lambda_0b5a4a3e68152e1d9b943535f5f47bed>@@@?$__crt_seh_guarded_call@X@@QAEX$$QAV<lambda_51b6e8b1eb166f2a3faf91f424b38130>@@AAV<lambda_6250bd4b2a391816dd638c3bf72b0bcb>@@$$QAV<lambda_0b5a4a3e68152e1d9b943535f5f47bed>@@@Z 100d6853 f i libucrt:per_thread_data.obj
 0001:000d58b4       ??$?RV<lambda_5b71d36f03204c0beab531769a5b5694>@@AAV<lambda_be2b3da3f62db62e9dad5dc70221a656>@@V<lambda_8f9ce462984622f9bf76b59e2aaaf805>@@@?$__crt_seh_guarded_call@X@@QAEX$$QAV<lambda_5b71d36f03204c0beab531769a5b5694>@@AAV<lambda_be2b3da3f62db62e9dad5dc70221a656>@@$$QAV<lambda_8f9ce462984622f9bf76b59e2aaaf805>@@@Z 100d68b4 f i libucrt:per_thread_data.obj
 0001:000d58ff       ??$?RV<lambda_9df27f884b057bc3edfc946cb5b7cf47>@@AAV<lambda_e69574bed617af4e071282c136b37893>@@V<lambda_cc0d902bcbbeb830f749456577db4721>@@@?$__crt_seh_guarded_call@X@@QAEX$$QAV<lambda_9df27f884b057bc3edfc946cb5b7cf47>@@AAV<lambda_e69574bed617af4e071282c136b37893>@@$$QAV<lambda_cc0d902bcbbeb830f749456577db4721>@@@Z 100d68ff f i libucrt:per_thread_data.obj
 0001:000d5947       ??$__acrt_lock_and_call@V<lambda_6250bd4b2a391816dd638c3bf72b0bcb>@@@@YAXW4__acrt_lock_id@@$$QAV<lambda_6250bd4b2a391816dd638c3bf72b0bcb>@@@Z 100d6947 f i libucrt:per_thread_data.obj
 0001:000d596f       ??$__acrt_lock_and_call@V<lambda_b2ea41f6bbb362cd97d94c6828d90b61>@@@@YAXW4__acrt_lock_id@@$$QAV<lambda_b2ea41f6bbb362cd97d94c6828d90b61>@@@Z 100d696f f i libucrt:per_thread_data.obj
 0001:000d5997       ??$__acrt_lock_and_call@V<lambda_be2b3da3f62db62e9dad5dc70221a656>@@@@YAXW4__acrt_lock_id@@$$QAV<lambda_be2b3da3f62db62e9dad5dc70221a656>@@@Z 100d6997 f i libucrt:per_thread_data.obj
 0001:000d59bf       ??$__acrt_lock_and_call@V<lambda_e69574bed617af4e071282c136b37893>@@@@YAXW4__acrt_lock_id@@$$QAV<lambda_e69574bed617af4e071282c136b37893>@@@Z 100d69bf f i libucrt:per_thread_data.obj
 0001:000d5b75       ___acrt_freeptd            100d6b75 f   libucrt:per_thread_data.obj
 0001:000d5ba1       ___acrt_getptd             100d6ba1 f   libucrt:per_thread_data.obj
 0001:000d5c25       ___acrt_getptd_noexit      100d6c25 f   libucrt:per_thread_data.obj
 0001:000d5caa       ___acrt_initialize_ptd     100d6caa f   libucrt:per_thread_data.obj
 0001:000d5cd6       ___acrt_uninitialize_ptd   100d6cd6 f   libucrt:per_thread_data.obj
 0001:000d5cf0       ___acrt_errno_from_os_error 100d6cf0 f   libucrt:errno.obj
 0001:000d5d33       ___acrt_errno_map_os_error 100d6d33 f   libucrt:errno.obj
 0001:000d5d56       ___doserrno                100d6d56 f   libucrt:errno.obj
 0001:000d5d69       __errno                    100d6d69 f   libucrt:errno.obj
 0001:000d5ee3       __tolower_l                100d6ee3 f   libucrt:tolower_toupper.obj
 0001:000d5efd       ___acrt_update_locale_info 100d6efd f   libucrt:locale_update.obj
 0001:000d5f2a       ___acrt_update_multibyte_info 100d6f2a f   libucrt:locale_update.obj
 0001:000d5f57       ___acrt_set_locale_changed 100d6f57 f   libucrt:wsetlocale.obj
 0001:000d5f62       ___acrt_uninitialize_locale 100d6f62 f   libucrt:wsetlocale.obj
 0001:000d5fb4       ___acrt_initialize_timeset 100d6fb4 f   libucrt:timeset.obj
 0001:000d5feb       ___daylight                100d6feb f   libucrt:timeset.obj
 0001:000d5ff1       ___dstbias                 100d6ff1 f   libucrt:timeset.obj
 0001:000d5ff7       ___timezone                100d6ff7 f   libucrt:timeset.obj
 0001:000d5fff       ___tzname                  100d6fff f   libucrt:timeset.obj
 0001:000d6005       __get_daylight             100d7005 f   libucrt:timeset.obj
 0001:000d6031       __get_dstbias              100d7031 f   libucrt:timeset.obj
 0001:000d605d       __get_timezone             100d705d f   libucrt:timeset.obj
 0001:000d6089       ??$__crt_time_elapsed_leap_years@H@@YAHH@Z 100d7089 f i libucrt:gmtime.obj
 0001:000d60c3       ??$__crt_time_is_leap_year@H@@YA_NH@Z 100d70c3 f i libucrt:gmtime.obj
 0001:000d62f5       __gmtime64_s               100d72f5 f   libucrt:gmtime.obj
 0001:000d6a47       ___tzset                   100d7a47 f   libucrt:tzset.obj
 0001:000d6a98       __isindst                  100d7a98 f   libucrt:tzset.obj
 0001:000d6ae2       __realloc_base             100d7ae2 f   libucrt:realloc_base.obj
 0001:000d6b4b       ___acrt_initialize_heap    100d7b4b f   libucrt:heap_handle.obj
 0001:000d6b5c       ___acrt_uninitialize_heap  100d7b5c f   libucrt:heap_handle.obj
 0001:000d6b66       ___acrt_initialize_locks   100d7b66 f   libucrt:locks.obj
 0001:000d6ba7       ___acrt_lock               100d7ba7 f   libucrt:locks.obj
 0001:000d6bbe       ___acrt_uninitialize_locks 100d7bbe f   libucrt:locks.obj
 0001:000d6bef       ___acrt_unlock             100d7bef f   libucrt:locks.obj
 0001:000d6d37       ___acrt_AreFileApisANSI@0  100d7d37 f   libucrt:winapi_thunks.obj
 0001:000d6d85       ___acrt_CompareStringEx@36 100d7d85 f   libucrt:winapi_thunks.obj
 0001:000d6df9       ___acrt_FlsAlloc@4         100d7df9 f   libucrt:winapi_thunks.obj
 0001:000d6e4f       ___acrt_FlsFree@4          100d7e4f f   libucrt:winapi_thunks.obj
 0001:000d6ea5       ___acrt_FlsGetValue@4      100d7ea5 f   libucrt:winapi_thunks.obj
 0001:000d6efb       ___acrt_FlsSetValue@8      100d7efb f   libucrt:winapi_thunks.obj
 0001:000d6f54       ___acrt_InitializeCriticalSectionEx@12 100d7f54 f   libucrt:winapi_thunks.obj
 0001:000d6fb6       ___acrt_LCMapStringEx@36   100d7fb6 f   libucrt:winapi_thunks.obj
 0001:000d703e       ___acrt_LocaleNameToLCID@8 100d803e f   libucrt:winapi_thunks.obj
 0001:000d709a       ___acrt_initialize_winapi_thunks 100d809a f   libucrt:winapi_thunks.obj
 0001:000d70c0       ___acrt_is_packaged_app    100d80c0 f   libucrt:winapi_thunks.obj
 0001:000d7147       ___acrt_uninitialize_winapi_thunks 100d8147 f   libucrt:winapi_thunks.obj
 0001:000d753f       ??1?$argument_list@D@?A0xb0e4b824@@QAE@XZ 100d853f f i libucrt:argv_wildcards.obj
 0001:000d7564       ?append@?$argument_list@D@?A0xb0e4b824@@QAEHQAD@Z 100d8564 f i libucrt:argv_wildcards.obj
 0001:000d7599       ?expand_if_necessary@?$argument_list@D@?A0xb0e4b824@@AAEHXZ 100d8599 f i libucrt:argv_wildcards.obj
 0001:000d7620       ___acrt_expand_narrow_argv_wildcards 100d8620 f   libucrt:argv_wildcards.obj
 0001:000d762b       ??$?RV<lambda_978dc153c237d78434369da87b74ff60>@@AAV<lambda_ad1ced32f4ac17aa236e5ef05d6b3b7c>@@V<lambda_4a8533e2866a575feecb8298ce776b0d>@@@?$__crt_seh_guarded_call@X@@QAEX$$QAV<lambda_978dc153c237d78434369da87b74ff60>@@AAV<lambda_ad1ced32f4ac17aa236e5ef05d6b3b7c>@@$$QAV<lambda_4a8533e2866a575feecb8298ce776b0d>@@@Z 100d862b f i libucrt:mbctype.obj
 0001:000d766e       ??$__acrt_lock_and_call@V<lambda_ad1ced32f4ac17aa236e5ef05d6b3b7c>@@@@YAXW4__acrt_lock_id@@$$QAV<lambda_ad1ced32f4ac17aa236e5ef05d6b3b7c>@@@Z 100d866e f i libucrt:mbctype.obj
 0001:000d7b05       ___acrt_initialize_multibyte 100d8b05 f   libucrt:mbctype.obj
 0001:000d7b23       ___acrt_update_thread_multibyte_data 100d8b23 f   libucrt:mbctype.obj
 0001:000d7bc5       __setmbcp_nolock           100d8bc5 f   libucrt:mbctype.obj
 0001:000d7e90       __ismbblead                100d8e90 f   libucrt:ismbbyte.obj
 0001:000d7ea8       ___acrt_initialize_command_line 100d8ea8 f   libucrt:argv_data.obj
 0001:000d7ef8       ___dcrt_get_narrow_environment_from_os 100d8ef8 f   libucrt:get_environment_from_os.obj
 0001:000d82bb       ___dcrt_set_variable_in_narrow_environment_nolock 100d92bb f   libucrt:setenv.obj
 0001:000d82c6       __recalloc                 100d92c6 f   libucrt:recalloc.obj
 0001:000d82d1       __recalloc_base            100d92d1 f   libucrt:recalloc.obj
 0001:000d84aa       ___acrt_initialize_lowio   100d94aa f   libucrt:ioinit.obj
 0001:000d8500       ___acrt_uninitialize_lowio 100d9500 f   libucrt:ioinit.obj
 0001:000d852c       ___acrt_execute_initializers 100d952c f   libucrt:shared_initialization.obj
 0001:000d85af       ___acrt_execute_uninitializers 100d95af f   libucrt:shared_initialization.obj
 0001:000d85fc       ??$?RV<lambda_a048d3beccc847880fc8490e18b82769>@@AAV<lambda_ec61778202f4f5fc7e7711acc23c3bca>@@V<lambda_f7496a158712204296dd6628a163878e>@@@?$__crt_seh_guarded_call@P6AXH@Z@@QAEP6AXH@Z$$QAV<lambda_a048d3beccc847880fc8490e18b82769>@@AAV<lambda_ec61778202f4f5fc7e7711acc23c3bca>@@$$QAV<lambda_f7496a158712204296dd6628a163878e>@@@Z 100d95fc f i libucrt:signal.obj
 0001:000d8656       ??$__acrt_lock_and_call@V<lambda_ec61778202f4f5fc7e7711acc23c3bca>@@@@YAP6AXH@ZW4__acrt_lock_id@@$$QAV<lambda_ec61778202f4f5fc7e7711acc23c3bca>@@@Z 100d9656 f i libucrt:signal.obj
 0001:000d86e8       ___acrt_get_sigabrt_handler 100d96e8 f   libucrt:signal.obj
 0001:000d86ff       ___acrt_initialize_signal_handlers 100d96ff f   libucrt:signal.obj
 0001:000d873a       ___fpecode                 100d973a f   libucrt:signal.obj
 0001:000d8743       _raise                     100d9743 f   libucrt:signal.obj
 0001:000d894b       ___acrt_has_user_matherr   100d994b f   libucrt:matherr.obj
 0001:000d8964       ___acrt_initialize_user_matherr 100d9964 f   libucrt:matherr.obj
 0001:000d8978       ___acrt_invoke_user_matherr 100d9978 f   libucrt:matherr.obj
 0001:000d89c1       __query_new_mode           100d99c1 f   libucrt:new_mode.obj
 0001:000d89c7       __mbtowc_l                 100d99c7 f   libucrt:mbtowc.obj
 0001:000d8ac1       _mbtowc                    100d9ac1 f   libucrt:mbtowc.obj
 0001:000d8adb       __fileno                   100d9adb f   libucrt:fileno.obj
 0001:000d8b01       ___acrt_initialize_stdio   100d9b01 f   libucrt:_file.obj
 0001:000d8bc9       ___acrt_uninitialize_stdio 100d9bc9 f   libucrt:_file.obj
 0001:000d8c15       __lock_file                100d9c15 f   libucrt:_file.obj
 0001:000d8c29       __unlock_file              100d9c29 f   libucrt:_file.obj
 0001:000d8c3d       ___pctype_func             100d9c3d f   libucrt:ctype.obj
 0001:000d8c63       __isctype_l                100d9c63 f   libucrt:isctype.obj
 0001:000d8d35       ___acrt_add_locale_ref     100d9d35 f   libucrt:locale_refcounting.obj
 0001:000d8db2       ___acrt_free_locale        100d9db2 f   libucrt:locale_refcounting.obj
 0001:000d8efc       ___acrt_locale_add_lc_time_reference 100d9efc f   libucrt:locale_refcounting.obj
 0001:000d8f25       ___acrt_locale_free_lc_time_if_unreferenced 100d9f25 f   libucrt:locale_refcounting.obj
 0001:000d8f55       ___acrt_locale_release_lc_time_reference 100d9f55 f   libucrt:locale_refcounting.obj
 0001:000d8f7e       ___acrt_release_locale_ref 100d9f7e f   libucrt:locale_refcounting.obj
 0001:000d8fff       ___acrt_update_thread_locale_data 100d9fff f   libucrt:locale_refcounting.obj
 0001:000d9076       __updatetlocinfoEx_nolock  100da076 f   libucrt:locale_refcounting.obj
 0001:000d90c6       __isleadbyte_l             100da0c6 f i libucrt:_wctype.obj
 0001:000d931c       ___acrt_LCMapStringA       100da31c f   libucrt:lcmapstringa.obj
 0001:000d9367       __freea_crt                100da367 f i libucrt:lcmapstringa.obj
 0001:000d9387       ____lc_codepage_func       100da387 f   libucrt:initctype.obj
 0001:000d93ae       ___acrt_locale_free_monetary 100da3ae f   libucrt:initmon.obj
 0001:000d94ac       ___acrt_locale_free_numeric 100da4ac f   libucrt:initnum.obj
 0001:000d9551       ___acrt_locale_free_time   100da551 f   libucrt:inittime.obj
 0001:000d9635       ___acrt_GetStringTypeA     100da635 f   libucrt:getstringtypea.obj
 0001:000d98bf       _getenv_s                  100da8bf f   libucrt:getenv.obj
 0001:000d997b       _strncpy_s                 100da97b f   libucrt:strncpy_s.obj
 0001:000d9a42       ___acrt_DownlevelLocaleNameToLCID 100daa42 f   libucrt:lcidtoname_downlevel.obj
 0001:000d9a70       _strpbrk                   100daa70 f   libucrt:strpbrk.obj
 0001:000d9ab0       __mbsdec                   100daab0 f   libucrt:mbsdec.obj
 0001:000d9ac7       __mbsdec_l                 100daac7 f   libucrt:mbsdec.obj
 0001:000d9b63       __strnicoll                100dab63 f   libucrt:strnicol.obj
 0001:000d9b8c       __strnicoll_l              100dab8c f   libucrt:strnicol.obj
 0001:000d9c56       ___acrt_lowio_create_handle_array 100dac56 f   libucrt:osfinfo.obj
 0001:000d9cd0       ___acrt_lowio_destroy_handle_array 100dacd0 f   libucrt:osfinfo.obj
 0001:000d9d05       ___acrt_lowio_ensure_fh_exists 100dad05 f   libucrt:osfinfo.obj
 0001:000d9d9d       ___acrt_lowio_lock_fh      100dad9d f   libucrt:osfinfo.obj
 0001:000d9dc0       ___acrt_lowio_unlock_fh    100dadc0 f   libucrt:osfinfo.obj
 0001:000d9de3       __free_osfhnd              100dade3 f   libucrt:osfinfo.obj
 0001:000d9e74       __get_osfhandle            100dae74 f   libucrt:osfinfo.obj
 0001:000d9ede       __isatty                   100daede f   libucrt:isatty.obj
 0001:000d9f34       ___acrt_stdio_flush_nolock 100daf34 f   libucrt:fflush.obj
 0001:000d9f9a       __fflush_nolock            100daf9a f   libucrt:fflush.obj
 0001:000d9fe1       __flushall                 100dafe1 f   libucrt:fflush.obj
 0001:000da0c2       __fcloseall                100db0c2 f   libucrt:closeall.obj
 0001:000da162       ___acrt_stdio_free_buffer_nolock 100db162 f   libucrt:_freebuf.obj
 0001:000da1a0       ___strncnt                 100db1a0 f   libucrt:strncnt.obj
 0001:000da1bc       __strnicmp                 100db1bc f   libucrt:strnicmp.obj
 0001:000da228       __strnicmp_l               100db228 f   libucrt:strnicmp.obj
 0001:000da587       ___acrt_CompareStringA     100db587 f   libucrt:comparestringa.obj
 0001:000da5cf       __query_app_type           100db5cf f   libucrt:report_runtime_error.obj
 0001:000da5d5       ??$?RV<lambda_61cee617f5178ae960314fd4d05640a0>@@AAV<lambda_6978c1fb23f02e42e1d9e99668cc68aa>@@V<lambda_9cd88cf8ad10232537feb2133f08c833>@@@?$__crt_seh_guarded_call@H@@QAEH$$QAV<lambda_61cee617f5178ae960314fd4d05640a0>@@AAV<lambda_6978c1fb23f02e42e1d9e99668cc68aa>@@$$QAV<lambda_9cd88cf8ad10232537feb2133f08c833>@@@Z 100db5d5 f i libucrt:commit.obj
 0001:000da66d       ??$__acrt_lowio_lock_fh_and_call@V<lambda_6978c1fb23f02e42e1d9e99668cc68aa>@@@@YAHH$$QAV<lambda_6978c1fb23f02e42e1d9e99668cc68aa>@@@Z 100db66d f i libucrt:commit.obj
 0001:000da695       __commit                   100db695 f   libucrt:commit.obj
 0001:000dac94       __write                    100dbc94 f   libucrt:write.obj
 0001:000dad7f       __write_nolock             100dbd7f f   libucrt:write.obj
 0001:000daf90       _log10                     100dbf90 f   libucrt:log10.obj
 0001:000dafd0       __CIlog10                  100dbfd0 f   libucrt:log10.obj
 0001:000db00b       __CIlog10_default          100dc00b f   libucrt:log10.obj
 0001:000db01f       __log10_default            100dc01f     libucrt:log10.obj
 0001:000db0e0       _ceil                      100dc0e0 f   libucrt:ceil_pentium4.obj
 0001:000db120       __ceil_pentium4            100dc120 f   libucrt:ceil_pentium4.obj
 0001:000db27b       __lseeki64_nolock          100dc27b f   libucrt:lseek.obj
 0001:000db296       __fclose_nolock            100dc296 f   libucrt:fclose.obj
 0001:000db30c       _fclose                    100dc30c f   libucrt:fclose.obj
 0001:000db390       ___ascii_strnicmp          100dc390 f   libucrt:_strnicm.obj
 0001:000db3f1       __putwch_nolock            100dc3f1 f   libucrt:putwch.obj
 0001:000db436       ___acrt_initialize_sse2    100dc436 f   libucrt:mathfcns.obj
 0001:000db450       __CIlog10_pentium4         100dc450 f   libucrt:log10_pentium4.obj
 0001:000db468       __log10_pentium4           100dc468     libucrt:log10_pentium4.obj
 0001:000db6f1       __fFEXP                    100dc6f1     libucrt:87tran.obj
 0001:000db748       __rtinfpopse               100dc748     libucrt:87tran.obj
 0001:000db74a       __rtinfnpopse              100dc74a     libucrt:87tran.obj
 0001:000db75a       __fFLN                     100dc75a     libucrt:87tran.obj
 0001:000db80f       __rtinfpop                 100dc80f     libucrt:87tran.obj
 0001:000db811       __rtinfnpop                100dc811     libucrt:87tran.obj
 0001:000db82e       __ffexpm1                  100dc82e     libucrt:87tran.obj
 0001:000db8e0       __trandisp1                100dc8e0 f   libucrt:87disp.obj
 0001:000db947       __trandisp2                100dc947 f   libucrt:87disp.obj
 0001:000db9d3       __rttospopde               100dc9d3     libucrt:87disp.obj
 0001:000db9d8       __rttospop                 100dc9d8     libucrt:87disp.obj
 0001:000db9da       __rtnospop                 100dc9da     libucrt:87disp.obj
 0001:000db9dc       __rttosnpop                100dc9dc     libucrt:87disp.obj
 0001:000db9dd       __rtnospopde               100dc9dd     libucrt:87disp.obj
 0001:000db9e4       __rtzeropop                100dc9e4     libucrt:87disp.obj
 0001:000db9e6       __rtzeronpop               100dc9e6     libucrt:87disp.obj
 0001:000db9eb       __rtzerospop               100dc9eb     libucrt:87disp.obj
 0001:000db9f8       __rtonepop                 100dc9f8     libucrt:87disp.obj
 0001:000db9fa       __rtonenpop                100dc9fa     libucrt:87disp.obj
 0001:000db9ff       __tosnan1                  100dc9ff     libucrt:87disp.obj
 0001:000dba2a       __nosnan2                  100dca2a     libucrt:87disp.obj
 0001:000dba2c       __tosnan2                  100dca2c     libucrt:87disp.obj
 0001:000dba54       __nan2                     100dca54     libucrt:87disp.obj
 0001:000dba93       __rtindfpop                100dca93     libucrt:87disp.obj
 0001:000dba95       __rtindfnpop               100dca95     libucrt:87disp.obj
 0001:000dbaa6       __rttosnpopde              100dcaa6     libucrt:87disp.obj
 0001:000dbab0       __rtatan2inf               100dcab0     libucrt:87disp.obj
 0001:000dbacd       __rtchsifneg               100dcacd     libucrt:87disp.obj
 0001:000dbae0       __twoToTOS                 100dcae0 f   libucrt:common.obj
 0001:000dbaf5       __load_CW                  100dcaf5 f   libucrt:common.obj
 0001:000dbb0c       __convertTOStoQNaN         100dcb0c f   libucrt:common.obj
 0001:000dbb25       __fload_withFB             100dcb25 f   libucrt:common.obj
 0001:000dbb68       __checkTOS_withFB          100dcb68 f   libucrt:common.obj
 0001:000dbb7e       __fast_exit                100dcb7e f   libucrt:common.obj
 0001:000dbb8b       __math_exit                100dcb8b f   libucrt:common.obj
 0001:000dbbb5       __check_overflow_exit      100dcbb5 f   libucrt:common.obj
 0001:000dbbc9       __check_range_exit         100dcbc9 f   libucrt:common.obj
 0001:000dbc70       __startTwoArgErrorHandling 100dcc70 f   libucrt:genexcep.obj
 0001:000dbc87       __startOneArgErrorHandling 100dcc87 f   libucrt:genexcep.obj
 0001:000dbcc3       ___libm_error_support      100dccc3 f   libucrt:libm_error.obj
 0001:000dbedb       __ceil_default             100dcedb f   libucrt:ceil.obj
 0001:000dbf94       ??$?RV<lambda_123407a5e2ac06da108355a851863b7a>@@AAV<lambda_2fe9b910cf3cbf4a0ab98a02ba45b3ec>@@V<lambda_ae55bdf541ad94d75914d381c370e64d>@@@?$__crt_seh_guarded_call@H@@QAEH$$QAV<lambda_123407a5e2ac06da108355a851863b7a>@@AAV<lambda_2fe9b910cf3cbf4a0ab98a02ba45b3ec>@@$$QAV<lambda_ae55bdf541ad94d75914d381c370e64d>@@@Z 100dcf94 f i libucrt:close.obj
 0001:000dc016       ??$__acrt_lowio_lock_fh_and_call@V<lambda_2fe9b910cf3cbf4a0ab98a02ba45b3ec>@@@@YAHH$$QAV<lambda_2fe9b910cf3cbf4a0ab98a02ba45b3ec>@@@Z 100dd016 f i libucrt:close.obj
 0001:000dc03e       __close                    100dd03e f   libucrt:close.obj
 0001:000dc0bd       __close_nolock             100dd0bd f   libucrt:close.obj
 0001:000dc159       ?__acrt_stdio_free_stream@@YAXV__crt_stdio_stream@@@Z 100dd159 f   libucrt:stream.obj
 0001:000dc194       ___dcrt_lowio_initialize_console_output 100dd194 f   libucrt:initcon.obj
 0001:000dc1b3       ___dcrt_terminate_console_output 100dd1b3 f   libucrt:initcon.obj
 0001:000dc1ca       __clrfp                    100dd1ca f   libucrt:fpctrl.obj
 0001:000dc1dd       __ctrlfp                   100dd1dd f   libucrt:fpctrl.obj
 0001:000dc209       __set_statfp               100dd209 f   libucrt:fpctrl.obj
 0001:000dc264       __statfp                   100dd264 f   libucrt:fpctrl.obj
 0001:000dc276       __d_inttype                100dd276 f   libucrt:powhlp.obj
 0001:000dc2e0       __powhlp                   100dd2e0 f   libucrt:powhlp.obj
 0001:000dc40b       __87except                 100dd40b f   libucrt:87except.obj
 0001:000dc516       __frnd                     100dd516 f   libucrt:frnd.obj
 0001:000dc52c       __errcode                  100dd52c f   libucrt:fpexcept.obj
 0001:000dc560       __except1                  100dd560 f   libucrt:fpexcept.obj
 0001:000dc62e       __handle_exc               100dd62e f   libucrt:fpexcept.obj
 0001:000dc80e       __raise_exc                100dd80e f   libucrt:fpexcept.obj
 0001:000dc831       __raise_exc_ex             100dd831 f   libucrt:fpexcept.obj
 0001:000dcb22       __set_errno_from_matherr   100ddb22 f   libucrt:fpexcept.obj
 0001:000dcb51       __umatherr                 100ddb51 f   libucrt:fpexcept.obj
 0001:000dcbf3       __decomp                   100ddbf3 f   libucrt:util.obj
 0001:000dccc7       __set_exp                  100ddcc7 f   libucrt:util.obj
 0001:000dccf6       __sptype                   100ddcf6 f   libucrt:util.obj
 0001:000dcd54       __fpclass                  100ddd54 f   libucrt:ieeemisc.obj
 0001:000dcdf8       _AreFileApisANSI@0         100dddf8 f   kernel32:KERNEL32.dll
 0001:000dcdfe       _ReadFile@20               100dddfe f   kernel32:KERNEL32.dll
 0001:000dce04       _HeapCreate@12             100dde04 f   kernel32:KERNEL32.dll
 0001:000dce0a       _HeapFree@12               100dde0a f   kernel32:KERNEL32.dll
 0001:000dce10       _GetFullPathNameW@16       100dde10 f   kernel32:KERNEL32.dll
 0001:000dce16       _WriteFile@20              100dde16 f   kernel32:KERNEL32.dll
 0001:000dce1c       _GetDiskFreeSpaceW@20      100dde1c f   kernel32:KERNEL32.dll
 0001:000dce22       _OutputDebugStringA@4      100dde22 f   kernel32:KERNEL32.dll
 0001:000dce28       _LockFile@20               100dde28 f   kernel32:KERNEL32.dll
 0001:000dce2e       _SetFilePointer@16         100dde2e f   kernel32:KERNEL32.dll
 0001:000dce34       _GetFullPathNameA@16       100dde34 f   kernel32:KERNEL32.dll
 0001:000dce3a       _SetEndOfFile@4            100dde3a f   kernel32:KERNEL32.dll
 0001:000dce40       _UnlockFileEx@20           100dde40 f   kernel32:KERNEL32.dll
 0001:000dce46       _GetTempPathW@8            100dde46 f   kernel32:KERNEL32.dll
 0001:000dce4c       _CreateMutexW@12           100dde4c f   kernel32:KERNEL32.dll
 0001:000dce52       _WaitForSingleObject@8     100dde52 f   kernel32:KERNEL32.dll
 0001:000dce58       _CreateFileW@28            100dde58 f   kernel32:KERNEL32.dll
 0001:000dce5e       _GetFileAttributesW@4      100dde5e f   kernel32:KERNEL32.dll
 0001:000dce64       _UnmapViewOfFile@4         100dde64 f   kernel32:KERNEL32.dll
 0001:000dce6a       _HeapValidate@12           100dde6a f   kernel32:KERNEL32.dll
 0001:000dce70       _HeapSize@12               100dde70 f   kernel32:KERNEL32.dll
 0001:000dce76       _MultiByteToWideChar@24    100dde76 f   kernel32:KERNEL32.dll
 0001:000dce7c       _Sleep@4                   100dde7c f   kernel32:KERNEL32.dll
 0001:000dce82       _GetTempPathA@8            100dde82 f   kernel32:KERNEL32.dll
 0001:000dce88       _FormatMessageW@28         100dde88 f   kernel32:KERNEL32.dll
 0001:000dce8e       _GetDiskFreeSpaceA@20      100dde8e f   kernel32:KERNEL32.dll
 0001:000dce94       _GetLastError@0            100dde94 f   kernel32:KERNEL32.dll
 0001:000dce9a       _GetFileAttributesA@4      100dde9a f   kernel32:KERNEL32.dll
 0001:000dcea0       _GetFileAttributesExW@12   100ddea0 f   kernel32:KERNEL32.dll
 0001:000dcea6       _OutputDebugStringW@4      100ddea6 f   kernel32:KERNEL32.dll
 0001:000dceac       _FlushViewOfFile@8         100ddeac f   kernel32:KERNEL32.dll
 0001:000dceb2       _CreateFileA@28            100ddeb2 f   kernel32:KERNEL32.dll
 0001:000dceb8       _LoadLibraryA@4            100ddeb8 f   kernel32:KERNEL32.dll
 0001:000dcebe       _WaitForSingleObjectEx@12  100ddebe f   kernel32:KERNEL32.dll
 0001:000dcec4       _DeleteFileA@4             100ddec4 f   kernel32:KERNEL32.dll
 0001:000dceca       _DeleteFileW@4             100ddeca f   kernel32:KERNEL32.dll
 0001:000dced0       _HeapReAlloc@16            100dded0 f   kernel32:KERNEL32.dll
 0001:000dced6       _CloseHandle@4             100dded6 f   kernel32:KERNEL32.dll
 0001:000dcedc       _GetSystemInfo@4           100ddedc f   kernel32:KERNEL32.dll
 0001:000dcee2       _LoadLibraryW@4            100ddee2 f   kernel32:KERNEL32.dll
 0001:000dcee8       _HeapAlloc@12              100ddee8 f   kernel32:KERNEL32.dll
 0001:000dceee       _HeapCompact@8             100ddeee f   kernel32:KERNEL32.dll
 0001:000dcef4       _HeapDestroy@4             100ddef4 f   kernel32:KERNEL32.dll
 0001:000dcefa       _UnlockFile@20             100ddefa f   kernel32:KERNEL32.dll
 0001:000dcf00       _GetProcAddress@8          100ddf00 f   kernel32:KERNEL32.dll
 0001:000dcf06       _CreateFileMappingA@24     100ddf06 f   kernel32:KERNEL32.dll
 0001:000dcf0c       _LocalFree@4               100ddf0c f   kernel32:KERNEL32.dll
 0001:000dcf12       _LockFileEx@24             100ddf12 f   kernel32:KERNEL32.dll
 0001:000dcf18       _GetFileSize@8             100ddf18 f   kernel32:KERNEL32.dll
 0001:000dcf1e       _GetCurrentProcessId@0     100ddf1e f   kernel32:KERNEL32.dll
 0001:000dcf24       _GetProcessHeap@0          100ddf24 f   kernel32:KERNEL32.dll
 0001:000dcf2a       _SystemTimeToFileTime@8    100ddf2a f   kernel32:KERNEL32.dll
 0001:000dcf30       _FreeLibrary@4             100ddf30 f   kernel32:KERNEL32.dll
 0001:000dcf36       _WideCharToMultiByte@32    100ddf36 f   kernel32:KERNEL32.dll
 0001:000dcf3c       _GetSystemTimeAsFileTime@4 100ddf3c f   kernel32:KERNEL32.dll
 0001:000dcf42       _GetSystemTime@4           100ddf42 f   kernel32:KERNEL32.dll
 0001:000dcf48       _FormatMessageA@28         100ddf48 f   kernel32:KERNEL32.dll
 0001:000dcf4e       _CreateFileMappingW@24     100ddf4e f   kernel32:KERNEL32.dll
 0001:000dcf54       _MapViewOfFile@20          100ddf54 f   kernel32:KERNEL32.dll
 0001:000dcf5a       _QueryPerformanceCounter@4 100ddf5a f   kernel32:KERNEL32.dll
 0001:000dcf60       _GetTickCount@0            100ddf60 f   kernel32:KERNEL32.dll
 0001:000dcf66       _FlushFileBuffers@4        100ddf66 f   kernel32:KERNEL32.dll
 0001:000dcf6c       _IsProcessorFeaturePresent@4 100ddf6c f   kernel32:KERNEL32.dll
 0001:000dcf72       _RtlUnwind@16              100ddf72 f   kernel32:KERNEL32.dll
 0001:000dcf78       ?DloadAcquireSectionWriteAccess@@YGXXZ 100ddf78 f i DelayImp:delayhlp.obj
 0001:000dcfab       ?DloadGetSRWLockFunctionPointers@@YGEXZ 100ddfab f i DelayImp:delayhlp.obj
 0001:000dd026       ?DloadLock@@YGXXZ          100de026 f i DelayImp:delayhlp.obj
 0001:000dd083       ?DloadMakePermanentImageCommit@@YGXPAXK@Z 100de083 f i DelayImp:delayhlp.obj
 0001:000dd0f5       ?DloadObtainSection@@YGPAXPAK0@Z 100de0f5 f i DelayImp:delayhlp.obj
 0001:000dd178       ?DloadProtectSection@@YGXKPAK@Z 100de178 f i DelayImp:delayhlp.obj
 0001:000dd1e8       ?DloadReleaseSectionWriteAccess@@YGXXZ 100de1e8 f i DelayImp:delayhlp.obj
 0001:000dd220       ?DloadUnlock@@YGXXZ        100de220 f i DelayImp:delayhlp.obj
 0001:000dd26a       ___delayLoadHelper2@8      100de26a f   DelayImp:delayhlp.obj
 0001:000dd4ef       __EH_prolog3_catch         100de4ef f   LIBCMT:ehprolg3.obj
 0001:000dd530       __FindPESection            100de530 f   LIBCMT:pesect.obj
 0001:000dd580       __IsNonwritableInCurrentImage 100de580 f   LIBCMT:pesect.obj
 0001:000dd640       __ValidateImageBase        100de640 f   LIBCMT:pesect.obj
 0001:000dd680       __aulldvrm                 100de680 f   LIBCMT:ulldvrm.obj
 0001:000dd720       __alldiv                   100de720 f   LIBCMT:lldiv.obj
 0001:000dd7d0       __allrem                   100de7d0 f   LIBCMT:llrem.obj
 0001:000dd890       __SEH_prolog4_GS           100de890 f   LIBCMT:_sehprolg4gs_.obj
 0001:000dd8d9       __SEH_epilog4_GS           100de8d9 f   LIBCMT:_sehprolg4gs_.obj
 0001:000dd8f0       __allmul                   100de8f0 f   LIBCMT:llmul.obj
 0001:000dd930       __alldvrm                  100de930 f   LIBCMT:lldvrm.obj
 0001:000dda10       __aullshr                  100dea10 f   LIBCMT:ullshr.obj
 0001:000dda30       __alloca_probe_16          100dea30 f   LIBCMT:alloca16.obj
 0001:000dda46       __alloca_probe_8           100dea46     LIBCMT:alloca16.obj
 0001:000dda60       __allshl                   100dea60 f   LIBCMT:llshl.obj
 0001:000dda80       __ftol2_sse                100dea80 f   LIBCMT:_ftol2_.obj
 0001:000dda89       __ftol2_pentium4           100dea89 f   LIBCMT:_ftol2_.obj
 0001:000dda9c       __ftol2_sse_excpt          100dea9c f   LIBCMT:_ftol2_.obj
 0001:000ddac0       __ftol2                    100deac0 f   LIBCMT:_ftol2_.obj
 0001:000ddb40       __alloca_probe             100deb40 f   LIBCMT:chkstk.obj
 0001:000ddb40       __chkstk                   100deb40 f   LIBCMT:chkstk.obj
 0001:000ddb70       _memcpy                    100deb70 f   libvcruntime:memcpy.obj
 0001:000de0f0       _strchr                    100df0f0 f   libvcruntime:strchr.obj
 0001:000de15e       ___from_strstr_to_strchr   100df15e     libvcruntime:strchr.obj
 0001:000de220       __allshr                   100df220 f   LIBCMT:llshr.obj
 0001:000de250       __aulldiv                  100df250 f   LIBCMT:ulldiv.obj
 0001:000de2c0       __aullrem                  100df2c0 f   LIBCMT:ullrem.obj
 0001:000de340       __ftoui3                   100df340 f   LIBCMT:_ftol3_.obj
 0001:000de34f       __ftoul3                   100df34f f   LIBCMT:_ftol3_.obj
 0001:000de35e       __ftol3                    100df35e f   LIBCMT:_ftol3_.obj
 0001:000de36b       __ftol3_NaN                100df36b f   LIBCMT:_ftol3_.obj
 0001:000de383       __ftol3_work               100df383 f   LIBCMT:_ftol3_.obj
 0001:000de409       __ftol3_common             100df409 f   LIBCMT:_ftol3_.obj
 0001:000de4cb       __ftol3_arg_error          100df4cb f   LIBCMT:_ftol3_.obj
 0001:000de4dd       __ftol3_except             100df4dd f   LIBCMT:_ftol3_.obj
 0001:000de521       __dtoui3                   100df521 f   LIBCMT:_ftol3_.obj
 0001:000de530       __dtoul3                   100df530 f   LIBCMT:_ftol3_.obj
 0001:000de53f       __dtol3                    100df53f f   LIBCMT:_ftol3_.obj
 0001:000de54c       __dtol3_NaN                100df54c f   LIBCMT:_ftol3_.obj
 0001:000de569       __dtol3_work               100df569 f   LIBCMT:_ftol3_.obj
 0001:000de650       __ultod3                   100df650 f   LIBCMT:_ftol3_.obj
 0001:000de690       __ltod3                    100df690 f   LIBCMT:_ftol3_.obj
 0001:000de6c0       __libm_sse2_log_precise    100df6c0 f   libucrt:log_sse2_precise.obj
 0001:000de950       _log                       100df950 f   libucrt:log.obj
 0001:000de990       __CIlog                    100df990 f   libucrt:log.obj
 0001:000de9cb       __CIlog_default            100df9cb f   libucrt:log.obj
 0001:000de9df       __log_default              100df9df     libucrt:log.obj
 0001:000deaa0       __CIlog_pentium4           100dfaa0 f   libucrt:log_pentium4.obj
 0001:000deab8       __log_pentium4             100dfab8     libucrt:log_pentium4.obj
 0002:00000000       __imp__GetModuleHandleA@4  100e1000     kernel32:KERNEL32.dll
 0002:00000004       __imp__AreFileApisANSI@0   100e1004     kernel32:KERNEL32.dll
 0002:00000008       __imp__ReadFile@20         100e1008     kernel32:KERNEL32.dll
 0002:0000000c       __imp__HeapCreate@12       100e100c     kernel32:KERNEL32.dll
 0002:00000010       __imp__HeapFree@12         100e1010     kernel32:KERNEL32.dll
 0002:00000014       __imp__GetFullPathNameW@16 100e1014     kernel32:KERNEL32.dll
 0002:00000018       __imp__WriteFile@20        100e1018     kernel32:KERNEL32.dll
 0002:0000001c       __imp__GetDiskFreeSpaceW@20 100e101c     kernel32:KERNEL32.dll
 0002:00000020       __imp__OutputDebugStringA@4 100e1020     kernel32:KERNEL32.dll
 0002:00000024       __imp__LockFile@20         100e1024     kernel32:KERNEL32.dll
 0002:00000028       __imp__SetFilePointer@16   100e1028     kernel32:KERNEL32.dll
 0002:0000002c       __imp__GetFullPathNameA@16 100e102c     kernel32:KERNEL32.dll
 0002:00000030       __imp__SetEndOfFile@4      100e1030     kernel32:KERNEL32.dll
 0002:00000034       __imp__UnlockFileEx@20     100e1034     kernel32:KERNEL32.dll
 0002:00000038       __imp__GetTempPathW@8      100e1038     kernel32:KERNEL32.dll
 0002:0000003c       __imp__CreateMutexW@12     100e103c     kernel32:KERNEL32.dll
 0002:00000040       __imp__WaitForSingleObject@8 100e1040     kernel32:KERNEL32.dll
 0002:00000044       __imp__CreateFileW@28      100e1044     kernel32:KERNEL32.dll
 0002:00000048       __imp__GetFileAttributesW@4 100e1048     kernel32:KERNEL32.dll
 0002:0000004c       __imp__UnmapViewOfFile@4   100e104c     kernel32:KERNEL32.dll
 0002:00000050       __imp__HeapValidate@12     100e1050     kernel32:KERNEL32.dll
 0002:00000054       __imp__HeapSize@12         100e1054     kernel32:KERNEL32.dll
 0002:00000058       __imp__MultiByteToWideChar@24 100e1058     kernel32:KERNEL32.dll
 0002:0000005c       __imp__Sleep@4             100e105c     kernel32:KERNEL32.dll
 0002:00000060       __imp__GetTempPathA@8      100e1060     kernel32:KERNEL32.dll
 0002:00000064       __imp__FormatMessageW@28   100e1064     kernel32:KERNEL32.dll
 0002:00000068       __imp__GetDiskFreeSpaceA@20 100e1068     kernel32:KERNEL32.dll
 0002:0000006c       __imp__GetLastError@0      100e106c     kernel32:KERNEL32.dll
 0002:00000070       __imp__GetFileAttributesA@4 100e1070     kernel32:KERNEL32.dll
 0002:00000074       __imp__GetFileAttributesExW@12 100e1074     kernel32:KERNEL32.dll
 0002:00000078       __imp__OutputDebugStringW@4 100e1078     kernel32:KERNEL32.dll
 0002:0000007c       __imp__FlushViewOfFile@8   100e107c     kernel32:KERNEL32.dll
 0002:00000080       __imp__CreateFileA@28      100e1080     kernel32:KERNEL32.dll
 0002:00000084       __imp__LoadLibraryA@4      100e1084     kernel32:KERNEL32.dll
 0002:00000088       __imp__WaitForSingleObjectEx@12 100e1088     kernel32:KERNEL32.dll
 0002:0000008c       __imp__DeleteFileA@4       100e108c     kernel32:KERNEL32.dll
 0002:00000090       __imp__DeleteFileW@4       100e1090     kernel32:KERNEL32.dll
 0002:00000094       __imp__HeapReAlloc@16      100e1094     kernel32:KERNEL32.dll
 0002:00000098       __imp__CloseHandle@4       100e1098     kernel32:KERNEL32.dll
 0002:0000009c       __imp__GetSystemInfo@4     100e109c     kernel32:KERNEL32.dll
 0002:000000a0       __imp__LoadLibraryW@4      100e10a0     kernel32:KERNEL32.dll
 0002:000000a4       __imp__HeapAlloc@12        100e10a4     kernel32:KERNEL32.dll
 0002:000000a8       __imp__HeapCompact@8       100e10a8     kernel32:KERNEL32.dll
 0002:000000ac       __imp__HeapDestroy@4       100e10ac     kernel32:KERNEL32.dll
 0002:000000b0       __imp__UnlockFile@20       100e10b0     kernel32:KERNEL32.dll
 0002:000000b4       __imp__GetProcAddress@8    100e10b4     kernel32:KERNEL32.dll
 0002:000000b8       __imp__CreateFileMappingA@24 100e10b8     kernel32:KERNEL32.dll
 0002:000000bc       __imp__LocalFree@4         100e10bc     kernel32:KERNEL32.dll
 0002:000000c0       __imp__LockFileEx@24       100e10c0     kernel32:KERNEL32.dll
 0002:000000c4       __imp__GetFileSize@8       100e10c4     kernel32:KERNEL32.dll
 0002:000000c8       __imp__GetCurrentProcessId@0 100e10c8     kernel32:KERNEL32.dll
 0002:000000cc       __imp__GetProcessHeap@0    100e10cc     kernel32:KERNEL32.dll
 0002:000000d0       __imp__SystemTimeToFileTime@8 100e10d0     kernel32:KERNEL32.dll
 0002:000000d4       __imp__FreeLibrary@4       100e10d4     kernel32:KERNEL32.dll
 0002:000000d8       __imp__WideCharToMultiByte@32 100e10d8     kernel32:KERNEL32.dll
 0002:000000dc       __imp__GetSystemTimeAsFileTime@4 100e10dc     kernel32:KERNEL32.dll
 0002:000000e0       __imp__GetSystemTime@4     100e10e0     kernel32:KERNEL32.dll
 0002:000000e4       __imp__FormatMessageA@28   100e10e4     kernel32:KERNEL32.dll
 0002:000000e8       __imp__CreateFileMappingW@24 100e10e8     kernel32:KERNEL32.dll
 0002:000000ec       __imp__MapViewOfFile@20    100e10ec     kernel32:KERNEL32.dll
 0002:000000f0       __imp__QueryPerformanceCounter@4 100e10f0     kernel32:KERNEL32.dll
 0002:000000f4       __imp__GetTickCount@0      100e10f4     kernel32:KERNEL32.dll
 0002:000000f8       __imp__FlushFileBuffers@4  100e10f8     kernel32:KERNEL32.dll
 0002:000000fc       __imp__UnhandledExceptionFilter@4 100e10fc     kernel32:KERNEL32.dll
 0002:00000100       __imp__SetUnhandledExceptionFilter@4 100e1100     kernel32:KERNEL32.dll
 0002:00000104       __imp__GetCurrentProcess@0 100e1104     kernel32:KERNEL32.dll
 0002:00000108       __imp__TerminateProcess@8  100e1108     kernel32:KERNEL32.dll
 0002:0000010c       __imp__IsProcessorFeaturePresent@4 100e110c     kernel32:KERNEL32.dll
 0002:00000110       __imp__IsDebuggerPresent@0 100e1110     kernel32:KERNEL32.dll
 0002:00000114       __imp__GetStartupInfoW@4   100e1114     kernel32:KERNEL32.dll
 0002:00000118       __imp__GetModuleHandleW@4  100e1118     kernel32:KERNEL32.dll
 0002:0000011c       __imp__GetCurrentThreadId@0 100e111c     kernel32:KERNEL32.dll
 0002:00000120       __imp__InitializeSListHead@4 100e1120     kernel32:KERNEL32.dll
 0002:00000124       __imp__EncodePointer@4     100e1124     kernel32:KERNEL32.dll
 0002:00000128       __imp__RaiseException@16   100e1128     kernel32:KERNEL32.dll
 0002:0000012c       __imp__InterlockedFlushSList@4 100e112c     kernel32:KERNEL32.dll
 0002:00000130       __imp__SetLastError@4      100e1130     kernel32:KERNEL32.dll
 0002:00000134       __imp__RtlUnwind@16        100e1134     kernel32:KERNEL32.dll
 0002:00000138       __imp__EnterCriticalSection@4 100e1138     kernel32:KERNEL32.dll
 0002:0000013c       __imp__LeaveCriticalSection@4 100e113c     kernel32:KERNEL32.dll
 0002:00000140       __imp__DeleteCriticalSection@4 100e1140     kernel32:KERNEL32.dll
 0002:00000144       __imp__InitializeCriticalSectionAndSpinCount@8 100e1144     kernel32:KERNEL32.dll
 0002:00000148       __imp__TlsAlloc@0          100e1148     kernel32:KERNEL32.dll
 0002:0000014c       __imp__TlsGetValue@4       100e114c     kernel32:KERNEL32.dll
 0002:00000150       __imp__TlsSetValue@8       100e1150     kernel32:KERNEL32.dll
 0002:00000154       __imp__TlsFree@4           100e1154     kernel32:KERNEL32.dll
 0002:00000158       __imp__LoadLibraryExW@12   100e1158     kernel32:KERNEL32.dll
 0002:0000015c       __imp__ExitProcess@4       100e115c     kernel32:KERNEL32.dll
 0002:00000160       __imp__GetModuleHandleExW@12 100e1160     kernel32:KERNEL32.dll
 0002:00000164       __imp__GetModuleFileNameA@12 100e1164     kernel32:KERNEL32.dll
 0002:00000168       __imp__GetACP@0            100e1168     kernel32:KERNEL32.dll
 0002:0000016c       __imp__GetTimeZoneInformation@4 100e116c     kernel32:KERNEL32.dll
 0002:00000170       __imp__CompareStringW@24   100e1170     kernel32:KERNEL32.dll
 0002:00000174       __imp__LCMapStringW@24     100e1174     kernel32:KERNEL32.dll
 0002:00000178       __imp__FindClose@4         100e1178     kernel32:KERNEL32.dll
 0002:0000017c       __imp__FindFirstFileExA@24 100e117c     kernel32:KERNEL32.dll
 0002:00000180       __imp__FindNextFileA@8     100e1180     kernel32:KERNEL32.dll
 0002:00000184       __imp__IsValidCodePage@4   100e1184     kernel32:KERNEL32.dll
 0002:00000188       __imp__GetOEMCP@0          100e1188     kernel32:KERNEL32.dll
 0002:0000018c       __imp__GetCPInfo@8         100e118c     kernel32:KERNEL32.dll
 0002:00000190       __imp__GetCommandLineA@0   100e1190     kernel32:KERNEL32.dll
 0002:00000194       __imp__GetCommandLineW@0   100e1194     kernel32:KERNEL32.dll
 0002:00000198       __imp__GetEnvironmentStringsW@0 100e1198     kernel32:KERNEL32.dll
 0002:0000019c       __imp__FreeEnvironmentStringsW@4 100e119c     kernel32:KERNEL32.dll
 0002:000001a0       __imp__SetEnvironmentVariableA@8 100e11a0     kernel32:KERNEL32.dll
 0002:000001a4       __imp__GetStdHandle@4      100e11a4     kernel32:KERNEL32.dll
 0002:000001a8       __imp__GetFileType@4       100e11a8     kernel32:KERNEL32.dll
 0002:000001ac       __imp__GetStringTypeW@16   100e11ac     kernel32:KERNEL32.dll
 0002:000001b0       __imp__SetStdHandle@8      100e11b0     kernel32:KERNEL32.dll
 0002:000001b4       __imp__GetConsoleCP@0      100e11b4     kernel32:KERNEL32.dll
 0002:000001b8       __imp__GetConsoleMode@8    100e11b8     kernel32:KERNEL32.dll
 0002:000001bc       __imp__SetFilePointerEx@20 100e11bc     kernel32:KERNEL32.dll
 0002:000001c0       __imp__WriteConsoleW@20    100e11c0     kernel32:KERNEL32.dll
 0002:000001c4       __imp__DecodePointer@4     100e11c4     kernel32:KERNEL32.dll
 0002:000001c8       __imp__VirtualProtect@16   100e11c8     kernel32:KERNEL32.dll
 0002:000001cc       __imp__VirtualQuery@12     100e11cc     kernel32:KERNEL32.dll
 0002:000001d0       __imp__LoadLibraryExA@12   100e11d0     kernel32:KERNEL32.dll
 0002:000001d4       \177KERNEL32_NULL_THUNK_DATA 100e11d4     kernel32:KERNEL32.dll
 0002:000001d8       ___guard_check_icall_fptr  100e11d8     LIBCMT:guard_support.obj
 0002:000001dc       ___xc_a                    100e11dc     LIBCMT:initializers.obj
 0002:0000024c       __register_better_sqlite3_ 100e124c     better_sqlite3.obj
 0002:00000250       ___xc_z                    100e1250     LIBCMT:initializers.obj
 0002:00000254       ___xi_a                    100e1254     LIBCMT:initializers.obj
 0002:00000258       ___acrt_timeset_initializer 100e1258     libucrt:timeset_initializer.obj
 0002:0000025c       ___acrt_multibyte_initializer 100e125c     libucrt:multibyte_initializer.obj
 0002:00000260       ___acrt_stdio_initializer  100e1260     libucrt:stdio_initializer.obj
 0002:00000264       ___acrt_tran_sse2_initializer 100e1264     libucrt:sse2_initializer.obj
 0002:00000268       ___xi_z                    100e1268     LIBCMT:initializers.obj
 0002:0000026c       ___xp_a                    100e126c     LIBCMT:initializers.obj
 0002:00000270       ___acrt_locale_terminator  100e1270     libucrt:locale_initializer.obj
 0002:00000274       ___dcrt_console_output_terminator 100e1274     libucrt:console_output_initializer.obj
 0002:00000278       ___acrt_stdio_terminator   100e1278     libucrt:stdio_initializer.obj
 0002:0000027c       ___xp_z                    100e127c     LIBCMT:initializers.obj
 0002:00000280       ___xt_a                    100e1280     LIBCMT:initializers.obj
 0002:00000284       ___xt_z                    100e1284     LIBCMT:initializers.obj
 0002:00000290       __sz_node_exe              100e1290     node:node.exe
 0002:000002a0       ??_7exception@std@@6B@     100e12a0     libcpmt:xthrow.obj
 0002:000002a8       ??_C@_0BC@EOODALEL@Unknown?5exception?$AA@ 100e12a8     libcpmt:xthrow.obj
 0002:000002c0       ??_7bad_alloc@std@@6B@     100e12c0     libcpmt:xthrow.obj
 0002:000002c8       ??_C@_0P@GHFPNOJB@bad?5allocation?$AA@ 100e12c8     libcpmt:xthrow.obj
 0002:000002dc       ??_7logic_error@std@@6B@   100e12dc     libcpmt:xthrow.obj
 0002:000002e8       ??_7length_error@std@@6B@  100e12e8     libcpmt:xthrow.obj
 0002:000002f4       ??_7out_of_range@std@@6B@  100e12f4     libcpmt:xthrow.obj
 0002:000002fc       __pRawDllMain              100e12fc     LIBCMT:dll_dllmain.obj
 0002:000002fc       __pDefaultRawDllMain       100e12fc     LIBCMT:dll_dllmain.obj
 0002:0000030c       ??_7type_info@@6B@         100e130c     LIBCMT:std_type_info_static.obj
 0002:00000314       ??_7bad_array_new_length@std@@6B@ 100e1314     LIBCMT:throw_bad_alloc.obj
 0002:0000031c       ??_C@_0BF@KINCDENJ@bad?5array?5new?5length?$AA@ 100e131c     LIBCMT:throw_bad_alloc.obj
 0002:00000334       __pDestructExceptionObject 100e1334     libvcruntime:frame.obj
 0002:0000033c       ??_7bad_exception@std@@6B@ 100e133c     libvcruntime:frame.obj
 0002:00000344       ??_C@_0O@DPKOEFFH@bad?5exception?$AA@ 100e1344     libvcruntime:frame.obj
 0002:00000384       ??_C@_1BC@DNHGCMLG@?$AAa?$AAd?$AAv?$AAa?$AAp?$AAi?$AA3?$AA2?$AA?$AA@ 100e1384     libvcruntime:winapi_downlevel.obj
 0002:00000398       ??_C@_1DM@KHCHBNEB@?$AAa?$AAp?$AAi?$AA?9?$AAm?$AAs?$AA?9?$AAw?$AAi?$AAn?$AA?9?$AAc?$AAo?$AAr?$AAe?$AA?9?$AAf?$AAi?$AAb?$AAe?$AAr?$AAs?$AA?9?$AAl?$AA1?$AA?9?$AA1?$AA?9?$AA1?$AA?$AA@ 100e1398     libvcruntime:winapi_downlevel.obj
 0002:000003d4       ??_C@_1DK@LPPGFMPP@?$AAa?$AAp?$AAi?$AA?9?$AAm?$AAs?$AA?9?$AAw?$AAi?$AAn?$AA?9?$AAc?$AAo?$AAr?$AAe?$AA?9?$AAs?$AAy?$AAn?$AAc?$AAh?$AA?9?$AAl?$AA1?$AA?9?$AA2?$AA?9?$AA0?$AA?$AA@ 100e13d4     libvcruntime:winapi_downlevel.obj
 0002:00000410       ??_C@_1BC@GDMECMAK@?$AAk?$AAe?$AAr?$AAn?$AAe?$AAl?$AA3?$AA2?$AA?$AA@ 100e1410     libvcruntime:winapi_downlevel.obj
 0002:0000042c       ??_C@_08KNHFBNJ@FlsAlloc?$AA@ 100e142c     libvcruntime:winapi_downlevel.obj
 0002:00000440       ??_C@_07PEJMOBNF@FlsFree?$AA@ 100e1440     libvcruntime:winapi_downlevel.obj
 0002:00000450       ??_C@_0M@GDNOONDI@FlsGetValue?$AA@ 100e1450     libvcruntime:winapi_downlevel.obj
 0002:00000464       ??_C@_0M@JCPCPOEF@FlsSetValue?$AA@ 100e1464     libvcruntime:winapi_downlevel.obj
 0002:00000478       ??_C@_0BM@HCFOFFN@InitializeCriticalSectionEx?$AA@ 100e1478     libvcruntime:winapi_downlevel.obj
 0002:00000628       ??_C@_08EHJDFFNH@__based?$CI?$AA@ 100e1628     libvcruntime:undname.obj
 0002:00000634       ??_C@_07KOLFKCDI@__cdecl?$AA@ 100e1634     libvcruntime:undname.obj
 0002:0000063c       ??_C@_08GHMPAG@__pascal?$AA@ 100e163c     libvcruntime:undname.obj
 0002:00000648       ??_C@_09IFJBGAPI@__stdcall?$AA@ 100e1648     libvcruntime:undname.obj
 0002:00000654       ??_C@_0L@NPHFGOKO@__thiscall?$AA@ 100e1654     libvcruntime:undname.obj
 0002:00000660       ??_C@_0L@JMKHOMEK@__fastcall?$AA@ 100e1660     libvcruntime:undname.obj
 0002:0000066c       ??_C@_0N@BCKKPABJ@__vectorcall?$AA@ 100e166c     libvcruntime:undname.obj
 0002:0000067c       ??_C@_09HIJEGCPM@__clrcall?$AA@ 100e167c     libvcruntime:undname.obj
 0002:00000688       ??_C@_06GHPCKEAG@__eabi?$AA@ 100e1688     libvcruntime:undname.obj
 0002:00000690       ??_C@_07JOMMBBKO@__ptr64?$AA@ 100e1690     libvcruntime:undname.obj
 0002:00000698       ??_C@_0L@PILCLIHE@__restrict?$AA@ 100e1698     libvcruntime:undname.obj
 0002:000006a4       ??_C@_0M@GFIIJFMG@__unaligned?$AA@ 100e16a4     libvcruntime:undname.obj
 0002:000006b0       ??_C@_09DHDLOLLB@restrict?$CI?$AA@ 100e16b0     libvcruntime:undname.obj
 0002:000006bc       ??_C@_04NIHEBCM@?5new?$AA@ 100e16bc     libvcruntime:undname.obj
 0002:000006c4       ??_C@_07FPCDHGMM@?5delete?$AA@ 100e16c4     libvcruntime:undname.obj
 0002:000006cc       ??_C@_02GPIOPFAK@?$DO?$DO?$AA@ 100e16cc     libvcruntime:undname.obj
 0002:000006d0       ??_C@_02FODMEDOG@?$DM?$DM?$AA@ 100e16d0     libvcruntime:undname.obj
 0002:000006d4       ??_C@_01DCLJPIOD@?$CB?$AA@ 100e16d4     libvcruntime:undname.obj
 0002:000006d8       ??_C@_02EGOFBIJA@?$DN?$DN?$AA@ 100e16d8     libvcruntime:undname.obj
 0002:000006dc       ??_C@_02FDNJECIE@?$CB?$DN?$AA@ 100e16dc     libvcruntime:undname.obj
 0002:000006e0       ??_C@_08LHJFAFGD@operator?$AA@ 100e16e0     libvcruntime:undname.obj
 0002:000006ec       ??_C@_02HBOOOICD@?9?$DO?$AA@ 100e16ec     libvcruntime:undname.obj
 0002:000006f0       ??_C@_02ECNGHCIF@?$CL?$CL?$AA@ 100e16f0     libvcruntime:undname.obj
 0002:000006f4       ??_C@_01HNPIGOCE@?$CG?$AA@ 100e16f4     libvcruntime:undname.obj
 0002:000006f8       ??_C@_03MNHNFDLC@?9?$DO?$CK?$AA@ 100e16f8     libvcruntime:undname.obj
 0002:000006fc       ??_C@_01KMDKNFGN@?1?$AA@   100e16fc     libvcruntime:undname.obj
 0002:00000700       ??_C@_02EHCHHCKH@?$DM?$DN?$AA@ 100e1700     libvcruntime:undname.obj
 0002:00000704       ??_C@_02EEKDKGMJ@?$DO?$DN?$AA@ 100e1704     libvcruntime:undname.obj
 0002:00000708       ??_C@_02HCKGKOFO@?$CI?$CJ?$AA@ 100e1708     libvcruntime:undname.obj
 0002:0000070c       ??_C@_01PJKLJHI@?$HO?$AA@  100e170c     libvcruntime:undname.obj
 0002:00000710       ??_C@_01JKBOJNNK@?$FO?$AA@ 100e1710     libvcruntime:undname.obj
 0002:00000714       ??_C@_01DNKMNLPK@?$HM?$AA@ 100e1714     libvcruntime:undname.obj
 0002:00000718       ??_C@_02PPKAJPJL@?$CG?$CG?$AA@ 100e1718     libvcruntime:undname.obj
 0002:0000071c       ??_C@_02NONPIBCD@?$HM?$HM?$AA@ 100e171c     libvcruntime:undname.obj
 0002:00000720       ??_C@_02FPIMKNGF@?$CK?$DN?$AA@ 100e1720     libvcruntime:undname.obj
 0002:00000724       ??_C@_02FOEOMHFC@?$CL?$DN?$AA@ 100e1724     libvcruntime:undname.obj
 0002:00000728       ??_C@_02FKMDLLOA@?9?$DN?$AA@ 100e1728     libvcruntime:undname.obj
 0002:0000072c       ??_C@_02FJEHGPIO@?1?$DN?$AA@ 100e172c     libvcruntime:undname.obj
 0002:00000730       ??_C@_02FENAOKFI@?$CF?$DN?$AA@ 100e1730     libvcruntime:undname.obj
 0002:00000734       ??_C@_03IKFCCPFF@?$DO?$DO?$DN?$AA@ 100e1734     libvcruntime:undname.obj
 0002:00000738       ??_C@_03CDNPDDLA@?$DM?$DM?$DN?$AA@ 100e1738     libvcruntime:undname.obj
 0002:0000073c       ??_C@_02FGJGFEAB@?$CG?$DN?$AA@ 100e173c     libvcruntime:undname.obj
 0002:00000740       ??_C@_02DHLNPPGH@?$HM?$DN?$AA@ 100e1740     libvcruntime:undname.obj
 0002:00000744       ??_C@_02MHEGNOJ@?$FO?$DN?$AA@ 100e1744     libvcruntime:undname.obj
 0002:00000748       ??_C@_09IFPLHPGF@?$GAvftable?8?$AA@ 100e1748     libvcruntime:undname.obj
 0002:00000754       ??_C@_09BLBHBJP@?$GAvbtable?8?$AA@ 100e1754     libvcruntime:undname.obj
 0002:00000760       ??_C@_07FEEIOKP@?$GAvcall?8?$AA@ 100e1760     libvcruntime:undname.obj
 0002:00000768       ??_C@_08LLFFHHDJ@?$GAtypeof?8?$AA@ 100e1768     libvcruntime:undname.obj
 0002:00000774       ??_C@_0BF@KDPPACIK@?$GAlocal?5static?5guard?8?$AA@ 100e1774     libvcruntime:undname.obj
 0002:0000078c       ??_C@_08OBABFOLI@?$GAstring?8?$AA@ 100e178c     libvcruntime:undname.obj
 0002:00000798       ??_C@_0BD@JDLKDPAB@?$GAvbase?5destructor?8?$AA@ 100e1798     libvcruntime:undname.obj
 0002:000007ac       ??_C@_0BN@DEGPLNFK@?$GAvector?5deleting?5destructor?8?$AA@ 100e17ac     libvcruntime:undname.obj
 0002:000007cc       ??_C@_0BO@OBMKPJIG@?$GAdefault?5constructor?5closure?8?$AA@ 100e17cc     libvcruntime:undname.obj
 0002:000007ec       ??_C@_0BN@IMDCHIKM@?$GAscalar?5deleting?5destructor?8?$AA@ 100e17ec     libvcruntime:undname.obj
 0002:0000080c       ??_C@_0BO@PFGOCPJJ@?$GAvector?5constructor?5iterator?8?$AA@ 100e180c     libvcruntime:undname.obj
 0002:0000082c       ??_C@_0BN@LFPFMEDL@?$GAvector?5destructor?5iterator?8?$AA@ 100e182c     libvcruntime:undname.obj
 0002:0000084c       ??_C@_0CE@IKBNEHA@?$GAvector?5vbase?5constructor?5iterat@ 100e184c     libvcruntime:undname.obj
 0002:00000870       ??_C@_0BL@NILFHHPC@?$GAvirtual?5displacement?5map?8?$AA@ 100e1870     libvcruntime:undname.obj
 0002:0000088c       ??_C@_0CB@JONCMFFK@?$GAeh?5vector?5constructor?5iterator?8@ 100e188c     libvcruntime:undname.obj
 0002:000008b0       ??_C@_0CA@GCEOPDGL@?$GAeh?5vector?5destructor?5iterator?8?$AA@ 100e18b0     libvcruntime:undname.obj
 0002:000008d0       ??_C@_0CH@OOJPLCPH@?$GAeh?5vector?5vbase?5constructor?5ite@ 100e18d0     libvcruntime:undname.obj
 0002:000008f8       ??_C@_0BL@LLKPOHJI@?$GAcopy?5constructor?5closure?8?$AA@ 100e18f8     libvcruntime:undname.obj
 0002:00000914       ??_C@_0BA@KBCDOMBN@?$GAudt?5returning?8?$AA@ 100e1914     libvcruntime:undname.obj
 0002:00000924       ??_C@_03KLGMFNMG@?$GAEH?$AA@ 100e1924     libvcruntime:undname.obj
 0002:00000928       ??_C@_05KHLCHHI@?$GARTTI?$AA@ 100e1928     libvcruntime:undname.obj
 0002:00000930       ??_C@_0BA@KKLDJDLB@?$GAlocal?5vftable?8?$AA@ 100e1930     libvcruntime:undname.obj
 0002:00000940       ??_C@_0CE@IIHCMGGL@?$GAlocal?5vftable?5constructor?5closu@ 100e1940     libvcruntime:undname.obj
 0002:00000964       ??_C@_06FHBGPFGH@?5new?$FL?$FN?$AA@ 100e1964     libvcruntime:undname.obj
 0002:0000096c       ??_C@_09LBNFPBCA@?5delete?$FL?$FN?$AA@ 100e196c     libvcruntime:undname.obj
 0002:00000978       ??_C@_0P@HJKNJFNN@?$GAomni?5callsig?8?$AA@ 100e1978     libvcruntime:undname.obj
 0002:00000988       ??_C@_0BL@CNOONJFP@?$GAplacement?5delete?5closure?8?$AA@ 100e1988     libvcruntime:undname.obj
 0002:000009a4       ??_C@_0BN@CKNJLHMB@?$GAplacement?5delete?$FL?$FN?5closure?8?$AA@ 100e19a4     libvcruntime:undname.obj
 0002:000009c4       ??_C@_0CG@CFDHKGGD@?$GAmanaged?5vector?5constructor?5iter@ 100e19c4     libvcruntime:undname.obj
 0002:000009ec       ??_C@_0CF@IMGKMJNO@?$GAmanaged?5vector?5destructor?5itera@ 100e19ec     libvcruntime:undname.obj
 0002:00000a14       ??_C@_0CG@HLDDJMAG@?$GAeh?5vector?5copy?5constructor?5iter@ 100e1a14     libvcruntime:undname.obj
 0002:00000a3c       ??_C@_0CM@FCBBDIGB@?$GAeh?5vector?5vbase?5copy?5constructo@ 100e1a3c     libvcruntime:undname.obj
 0002:00000a68       ??_C@_0BL@CLIPGLGB@?$GAdynamic?5initializer?5for?5?8?$AA@ 100e1a68     libvcruntime:undname.obj
 0002:00000a84       ??_C@_0CB@PDBIFEP@?$GAdynamic?5atexit?5destructor?5for?5?8@ 100e1a84     libvcruntime:undname.obj
 0002:00000aa8       ??_C@_0CD@CGAJBKEJ@?$GAvector?5copy?5constructor?5iterato@ 100e1aa8     libvcruntime:undname.obj
 0002:00000acc       ??_C@_0CJ@GJELGAMM@?$GAvector?5vbase?5copy?5constructor?5i@ 100e1acc     libvcruntime:undname.obj
 0002:00000af8       ??_C@_0CL@FGIJHLCE@?$GAmanaged?5vector?5copy?5constructor@ 100e1af8     libvcruntime:undname.obj
 0002:00000b24       ??_C@_0BM@PMGGMLDN@?$GAlocal?5static?5thread?5guard?8?$AA@ 100e1b24     libvcruntime:undname.obj
 0002:00000b40       ??_C@_0N@BDNMDMOL@operator?5?$CC?$CC?5?$AA@ 100e1b40     libvcruntime:undname.obj
 0002:00000b50       ??_C@_0BC@DAFEJGAK@?5Type?5Descriptor?8?$AA@ 100e1b50     libvcruntime:undname.obj
 0002:00000b64       ??_C@_0BM@LDKODKLH@?5Base?5Class?5Descriptor?5at?5?$CI?$AA@ 100e1b64     libvcruntime:undname.obj
 0002:00000b80       ??_C@_0BD@LGICGFMM@?5Base?5Class?5Array?8?$AA@ 100e1b80     libvcruntime:undname.obj
 0002:00000b94       ??_C@_0BN@MECKDCOJ@?5Class?5Hierarchy?5Descriptor?8?$AA@ 100e1b94     libvcruntime:undname.obj
 0002:00000bb4       ??_C@_0BK@CFCOFLF@?5Complete?5Object?5Locator?8?$AA@ 100e1bb4     libvcruntime:undname.obj
 0002:00000bd0       ___acrt_exception_action_table 100e1bd0     libucrt:exception_filter.obj
 0002:00000c60       ___acrt_signal_action_table_count 100e1c60     libucrt:exception_filter.obj
 0002:00000c64       ___acrt_signal_action_first_fpe_index 100e1c64     libucrt:exception_filter.obj
 0002:00000c68       ___acrt_signal_action_fpe_count 100e1c68     libucrt:exception_filter.obj
 0002:00000c6c       ??_C@_1BI@BGOHAHKC@?$AAm?$AAs?$AAc?$AAo?$AAr?$AAe?$AAe?$AA?4?$AAd?$AAl?$AAl?$AA?$AA@ 100e1c6c     libucrt:exit.obj
 0002:00000c84       ??_C@_0P@MIGLKIOC@CorExitProcess?$AA@ 100e1c84     libucrt:exit.obj
 0002:00000e78       ??_C@_03KOEHGMDN@Sun?$AA@  100e1e78     libucrt:nlsdata.obj
 0002:00000e7c       ??_C@_03PDAGKDH@Mon?$AA@   100e1e7c     libucrt:nlsdata.obj
 0002:00000e80       ??_C@_03NAGEINEP@Tue?$AA@  100e1e80     libucrt:nlsdata.obj
 0002:00000e84       ??_C@_03MHOMLAJA@Wed?$AA@  100e1e84     libucrt:nlsdata.obj
 0002:00000e88       ??_C@_03IOFIKPDN@Thu?$AA@  100e1e88     libucrt:nlsdata.obj
 0002:00000e8c       ??_C@_03IDIOELNC@Fri?$AA@  100e1e8c     libucrt:nlsdata.obj
 0002:00000e90       ??_C@_03FEFJNEK@Sat?$AA@   100e1e90     libucrt:nlsdata.obj
 0002:00000e94       ??_C@_06OOPIFAJ@Sunday?$AA@ 100e1e94     libucrt:nlsdata.obj
 0002:00000e9c       ??_C@_06JLEDEDGH@Monday?$AA@ 100e1e9c     libucrt:nlsdata.obj
 0002:00000ea4       ??_C@_07BAAGCFCM@Tuesday?$AA@ 100e1ea4     libucrt:nlsdata.obj
 0002:00000eac       ??_C@_09DLIGFAKA@Wednesday?$AA@ 100e1eac     libucrt:nlsdata.obj
 0002:00000eb8       ??_C@_08HACCIKIA@Thursday?$AA@ 100e1eb8     libucrt:nlsdata.obj
 0002:00000ec4       ??_C@_06JECMNKMI@Friday?$AA@ 100e1ec4     libucrt:nlsdata.obj
 0002:00000ecc       ??_C@_08INBOOONO@Saturday?$AA@ 100e1ecc     libucrt:nlsdata.obj
 0002:00000ed8       ??_C@_03JIHJHPIE@Jan?$AA@  100e1ed8     libucrt:nlsdata.obj
 0002:00000edc       ??_C@_03HJBDCHOM@Feb?$AA@  100e1edc     libucrt:nlsdata.obj
 0002:00000ee0       ??_C@_03ODNJBKGA@Mar?$AA@  100e1ee0     libucrt:nlsdata.obj
 0002:00000ee4       ??_C@_03LEOLGMJP@Apr?$AA@  100e1ee4     libucrt:nlsdata.obj
 0002:00000ee8       ??_C@_03CNMDKL@May?$AA@    100e1ee8     libucrt:nlsdata.obj
 0002:00000eec       ??_C@_03IDFGHECI@Jun?$AA@  100e1eec     libucrt:nlsdata.obj
 0002:00000ef0       ??_C@_03LBGABGKK@Jul?$AA@  100e1ef0     libucrt:nlsdata.obj
 0002:00000ef4       ??_C@_03IFJFEIGA@Aug?$AA@  100e1ef4     libucrt:nlsdata.obj
 0002:00000ef8       ??_C@_03GGCAPAJC@Sep?$AA@  100e1ef8     libucrt:nlsdata.obj
 0002:00000efc       ??_C@_03BMAOKBAD@Oct?$AA@  100e1efc     libucrt:nlsdata.obj
 0002:00000f00       ??_C@_03JPJOFNIA@Nov?$AA@  100e1f00     libucrt:nlsdata.obj
 0002:00000f04       ??_C@_03MKABNOCG@Dec?$AA@  100e1f04     libucrt:nlsdata.obj
 0002:00000f08       ??_C@_07CGJPFGJA@January?$AA@ 100e1f08     libucrt:nlsdata.obj
 0002:00000f10       ??_C@_08GNJGEPFN@February?$AA@ 100e1f10     libucrt:nlsdata.obj
 0002:00000f1c       ??_C@_05HPCKOFNC@March?$AA@ 100e1f1c     libucrt:nlsdata.obj
 0002:00000f24       ??_C@_05DMJDNLEJ@April?$AA@ 100e1f24     libucrt:nlsdata.obj
 0002:00000f2c       ??_C@_04CNLMGBGM@June?$AA@ 100e1f2c     libucrt:nlsdata.obj
 0002:00000f34       ??_C@_04MIEPOIFP@July?$AA@ 100e1f34     libucrt:nlsdata.obj
 0002:00000f3c       ??_C@_06LBBHFDDG@August?$AA@ 100e1f3c     libucrt:nlsdata.obj
 0002:00000f44       ??_C@_09BHHEALKD@September?$AA@ 100e1f44     libucrt:nlsdata.obj
 0002:00000f50       ??_C@_07JJNFCEND@October?$AA@ 100e1f50     libucrt:nlsdata.obj
 0002:00000f58       ??_C@_08HCHEGEOA@November?$AA@ 100e1f58     libucrt:nlsdata.obj
 0002:00000f64       ??_C@_08EDHMEBNP@December?$AA@ 100e1f64     libucrt:nlsdata.obj
 0002:00000f70       ??_C@_02DEDBPAFC@AM?$AA@   100e1f70     libucrt:nlsdata.obj
 0002:00000f74       ??_C@_02CJNFDJBF@PM?$AA@   100e1f74     libucrt:nlsdata.obj
 0002:00000f78       ??_C@_08BPBNCDIB@MM?1dd?1yy?$AA@ 100e1f78     libucrt:nlsdata.obj
 0002:00000f84       ??_C@_0BE@CKGJFCPC@dddd?0?5MMMM?5dd?0?5yyyy?$AA@ 100e1f84     libucrt:nlsdata.obj
 0002:00000f98       ??_C@_08JCCMCCIL@HH?3mm?3ss?$AA@ 100e1f98     libucrt:nlsdata.obj
 0002:00000fa4       ??_C@_17MBGCMIPB@?$AAS?$AAu?$AAn?$AA?$AA@ 100e1fa4     libucrt:nlsdata.obj
 0002:00000fac       ??_C@_17KBOMKBF@?$AAM?$AAo?$AAn?$AA?$AA@ 100e1fac     libucrt:nlsdata.obj
 0002:00000fb4       ??_C@_17BMKGEGOJ@?$AAT?$AAu?$AAe?$AA?$AA@ 100e1fb4     libucrt:nlsdata.obj
 0002:00000fbc       ??_C@_17CJEDCEPE@?$AAW?$AAe?$AAd?$AA?$AA@ 100e1fbc     libucrt:nlsdata.obj
 0002:00000fc4       ??_C@_17PDPHAADD@?$AAT?$AAh?$AAu?$AA?$AA@ 100e1fc4     libucrt:nlsdata.obj
 0002:00000fcc       ??_C@_17HFOLPPLP@?$AAF?$AAr?$AAi?$AA?$AA@ 100e1fcc     libucrt:nlsdata.obj
 0002:00000fd4       ??_C@_17GGIBDPIH@?$AAS?$AAa?$AAt?$AA?$AA@ 100e1fd4     libucrt:nlsdata.obj
 0002:00000fdc       ??_C@_1O@IHNHDHPB@?$AAS?$AAu?$AAn?$AAd?$AAa?$AAy?$AA?$AA@ 100e1fdc     libucrt:nlsdata.obj
 0002:00000fec       ??_C@_1O@MMNBFLIA@?$AAM?$AAo?$AAn?$AAd?$AAa?$AAy?$AA?$AA@ 100e1fec     libucrt:nlsdata.obj
 0002:00000ffc       ??_C@_1BA@ENFBFFEK@?$AAT?$AAu?$AAe?$AAs?$AAd?$AAa?$AAy?$AA?$AA@ 100e1ffc     libucrt:nlsdata.obj
 0002:0000100c       ??_C@_1BE@EBOGMDOH@?$AAW?$AAe?$AAd?$AAn?$AAe?$AAs?$AAd?$AAa?$AAy?$AA?$AA@ 100e200c     libucrt:nlsdata.obj
 0002:00001020       ??_C@_1BC@HHMNLIHE@?$AAT?$AAh?$AAu?$AAr?$AAs?$AAd?$AAa?$AAy?$AA?$AA@ 100e2020     libucrt:nlsdata.obj
 0002:00001034       ??_C@_1O@PDICJHAG@?$AAF?$AAr?$AAi?$AAd?$AAa?$AAy?$AA?$AA@ 100e2034     libucrt:nlsdata.obj
 0002:00001044       ??_C@_1BC@ENMNNPAJ@?$AAS?$AAa?$AAt?$AAu?$AAr?$AAd?$AAa?$AAy?$AA?$AA@ 100e2044     libucrt:nlsdata.obj
 0002:00001058       ??_C@_17DKNBKCHM@?$AAJ?$AAa?$AAn?$AA?$AA@ 100e2058     libucrt:nlsdata.obj
 0002:00001060       ??_C@_17LMDJEKJN@?$AAF?$AAe?$AAb?$AA?$AA@ 100e2060     libucrt:nlsdata.obj
 0002:00001068       ??_C@_17CKNLEDEC@?$AAM?$AAa?$AAr?$AA?$AA@ 100e2068     libucrt:nlsdata.obj
 0002:00001070       ??_C@_17LFPOIHDD@?$AAA?$AAp?$AAr?$AA?$AA@ 100e2070     libucrt:nlsdata.obj
 0002:00001078       ??_C@_17PNNKMEED@?$AAM?$AAa?$AAy?$AA?$AA@ 100e2078     libucrt:nlsdata.obj
 0002:00001080       ??_C@_17KCJGOCPB@?$AAJ?$AAu?$AAn?$AA?$AA@ 100e2080     libucrt:nlsdata.obj
 0002:00001088       ??_C@_17IJPCKHK@?$AAJ?$AAu?$AAl?$AA?$AA@ 100e2088     libucrt:nlsdata.obj
 0002:00001090       ??_C@_17ICPELBCN@?$AAA?$AAu?$AAg?$AA?$AA@ 100e2090     libucrt:nlsdata.obj
 0002:00001098       ??_C@_17HCHCOKMG@?$AAS?$AAe?$AAp?$AA?$AA@ 100e2098     libucrt:nlsdata.obj
 0002:000010a0       ??_C@_17FNLKOI@?$AAO?$AAc?$AAt?$AA?$AA@ 100e20a0     libucrt:nlsdata.obj
 0002:000010a8       ??_C@_17BBDMLCIG@?$AAN?$AAo?$AAv?$AA?$AA@ 100e20a8     libucrt:nlsdata.obj
 0002:000010b0       ??_C@_17EGKACKIF@?$AAD?$AAe?$AAc?$AA?$AA@ 100e20b0     libucrt:nlsdata.obj
 0002:000010b8       ??_C@_1BA@EFMEIEBA@?$AAJ?$AAa?$AAn?$AAu?$AAa?$AAr?$AAy?$AA?$AA@ 100e20b8     libucrt:nlsdata.obj
 0002:000010c8       ??_C@_1BC@JGDDFFAM@?$AAF?$AAe?$AAb?$AAr?$AAu?$AAa?$AAr?$AAy?$AA?$AA@ 100e20c8     libucrt:nlsdata.obj
 0002:000010dc       ??_C@_1M@IKEENEDF@?$AAM?$AAa?$AAr?$AAc?$AAh?$AA?$AA@ 100e20dc     libucrt:nlsdata.obj
 0002:000010e8       ??_C@_1M@GJNLMHFD@?$AAA?$AAp?$AAr?$AAi?$AAl?$AA?$AA@ 100e20e8     libucrt:nlsdata.obj
 0002:000010f4       ??_C@_19EPFLPGAP@?$AAJ?$AAu?$AAn?$AAe?$AA?$AA@ 100e20f4     libucrt:nlsdata.obj
 0002:00001100       ??_C@_19BIFMLPCD@?$AAJ?$AAu?$AAl?$AAy?$AA?$AA@ 100e2100     libucrt:nlsdata.obj
 0002:0000110c       ??_C@_1O@PAHLKOAC@?$AAA?$AAu?$AAg?$AAu?$AAs?$AAt?$AA?$AA@ 100e210c     libucrt:nlsdata.obj
 0002:0000111c       ??_C@_1BE@DKAAMBJL@?$AAS?$AAe?$AAp?$AAt?$AAe?$AAm?$AAb?$AAe?$AAr?$AA?$AA@ 100e211c     libucrt:nlsdata.obj
 0002:00001130       ??_C@_1BA@EPANDLNG@?$AAO?$AAc?$AAt?$AAo?$AAb?$AAe?$AAr?$AA?$AA@ 100e2130     libucrt:nlsdata.obj
 0002:00001140       ??_C@_1BC@BGLIFPF@?$AAN?$AAo?$AAv?$AAe?$AAm?$AAb?$AAe?$AAr?$AA?$AA@ 100e2140     libucrt:nlsdata.obj
 0002:00001154       ??_C@_1BC@FEMKIFH@?$AAD?$AAe?$AAc?$AAe?$AAm?$AAb?$AAe?$AAr?$AA?$AA@ 100e2154     libucrt:nlsdata.obj
 0002:00001168       ??_C@_15ODEHAHHF@?$AAA?$AAM?$AA?$AA@ 100e2168     libucrt:nlsdata.obj
 0002:00001170       ??_C@_15CLMNNGEL@?$AAP?$AAM?$AA?$AA@ 100e2170     libucrt:nlsdata.obj
 0002:00001178       ??_C@_1BC@IEBCMHCM@?$AAM?$AAM?$AA?1?$AAd?$AAd?$AA?1?$AAy?$AAy?$AA?$AA@ 100e2178     libucrt:nlsdata.obj
 0002:0000118c       ??_C@_1CI@KNAKOEBC@?$AAd?$AAd?$AAd?$AAd?$AA?0?$AA?5?$AAM?$AAM?$AAM?$AAM?$AA?5?$AAd?$AAd?$AA?0?$AA?5?$AAy?$AAy?$AAy?$AAy?$AA?$AA@ 100e218c     libucrt:nlsdata.obj
 0002:000011b4       ??_C@_1BC@GDGBMEMK@?$AAH?$AAH?$AA?3?$AAm?$AAm?$AA?3?$AAs?$AAs?$AA?$AA@ 100e21b4     libucrt:nlsdata.obj
 0002:000011c8       ??_C@_1M@BMHNFIME@?$AAe?$AAn?$AA?9?$AAU?$AAS?$AA?$AA@ 100e21c8     libucrt:nlsdata.obj
 0002:000011d8       ___lc_time_c               100e21d8     libucrt:nlsdata.obj
 0002:0000133c       ??_C@_02CLFPBFFP@TZ?$AA@   100e233c     libucrt:tzset.obj
 0002:00001390       ??_C@_1EG@CNNIPFIM@?$AAa?$AAp?$AAi?$AA?9?$AAm?$AAs?$AA?9?$AAw?$AAi?$AAn?$AA?9?$AAa?$AAp?$AAp?$AAm?$AAo?$AAd?$AAe?$AAl?$AA?9?$AAr?$AAu?$AAn?$AAt?$AAi?$AAm?$AAe?$AA?9?$AAl?$AA1?$AA?9?$AA1@ 100e2390     libucrt:winapi_thunks.obj
 0002:000013d8       ??_C@_1EA@JGEFHKEI@?$AAa?$AAp?$AAi?$AA?9?$AAm?$AAs?$AA?9?$AAw?$AAi?$AAn?$AA?9?$AAc?$AAo?$AAr?$AAe?$AA?9?$AAd?$AAa?$AAt?$AAe?$AAt?$AAi?$AAm?$AAe?$AA?9?$AAl?$AA1?$AA?9?$AA1?$AA?9?$AA1?$AA?$AA@ 100e23d8     libucrt:winapi_thunks.obj
 0002:00001418       ??_C@_1DI@GCIAAENM@?$AAa?$AAp?$AAi?$AA?9?$AAm?$AAs?$AA?9?$AAw?$AAi?$AAn?$AA?9?$AAc?$AAo?$AAr?$AAe?$AA?9?$AAf?$AAi?$AAl?$AAe?$AA?9?$AAl?$AA2?$AA?9?$AA1?$AA?9?$AA1?$AA?$AA@ 100e2418     libucrt:winapi_thunks.obj
 0002:00001450       ??_C@_1EI@MPIAOHOC@?$AAa?$AAp?$AAi?$AA?9?$AAm?$AAs?$AA?9?$AAw?$AAi?$AAn?$AA?9?$AAc?$AAo?$AAr?$AAe?$AA?9?$AAl?$AAo?$AAc?$AAa?$AAl?$AAi?$AAz?$AAa?$AAt?$AAi?$AAo?$AAn?$AA?9?$AAl?$AA1?$AA?9@ 100e2450     libucrt:winapi_thunks.obj
 0002:00001498       ??_C@_1FK@FPHCKFIE@?$AAa?$AAp?$AAi?$AA?9?$AAm?$AAs?$AA?9?$AAw?$AAi?$AAn?$AA?9?$AAc?$AAo?$AAr?$AAe?$AA?9?$AAl?$AAo?$AAc?$AAa?$AAl?$AAi?$AAz?$AAa?$AAt?$AAi?$AAo?$AAn?$AA?9?$AAo?$AAb?$AAs@ 100e2498     libucrt:winapi_thunks.obj
 0002:000014f8       ??_C@_1EM@DILCGIIO@?$AAa?$AAp?$AAi?$AA?9?$AAm?$AAs?$AA?9?$AAw?$AAi?$AAn?$AA?9?$AAc?$AAo?$AAr?$AAe?$AA?9?$AAp?$AAr?$AAo?$AAc?$AAe?$AAs?$AAs?$AAt?$AAh?$AAr?$AAe?$AAa?$AAd?$AAs?$AA?9?$AAl@ 100e24f8     libucrt:winapi_thunks.obj
 0002:00001544       ??_C@_1DM@LNCGDDPN@?$AAa?$AAp?$AAi?$AA?9?$AAm?$AAs?$AA?9?$AAw?$AAi?$AAn?$AA?9?$AAc?$AAo?$AAr?$AAe?$AA?9?$AAs?$AAt?$AAr?$AAi?$AAn?$AAg?$AA?9?$AAl?$AA1?$AA?9?$AA1?$AA?9?$AA0?$AA?$AA@ 100e2544     libucrt:winapi_thunks.obj
 0002:00001580       ??_C@_1DO@FPAPJEMD@?$AAa?$AAp?$AAi?$AA?9?$AAm?$AAs?$AA?9?$AAw?$AAi?$AAn?$AA?9?$AAc?$AAo?$AAr?$AAe?$AA?9?$AAs?$AAy?$AAs?$AAi?$AAn?$AAf?$AAo?$AA?9?$AAl?$AA1?$AA?9?$AA2?$AA?9?$AA1?$AA?$AA@ 100e2580     libucrt:winapi_thunks.obj
 0002:000015c0       ??_C@_1DK@NDHNAHIO@?$AAa?$AAp?$AAi?$AA?9?$AAm?$AAs?$AA?9?$AAw?$AAi?$AAn?$AA?9?$AAc?$AAo?$AAr?$AAe?$AA?9?$AAw?$AAi?$AAn?$AAr?$AAt?$AA?9?$AAl?$AA1?$AA?9?$AA1?$AA?9?$AA0?$AA?$AA@ 100e25c0     libucrt:winapi_thunks.obj
 0002:000015fc       ??_C@_1DM@KGHDGBCM@?$AAa?$AAp?$AAi?$AA?9?$AAm?$AAs?$AA?9?$AAw?$AAi?$AAn?$AA?9?$AAc?$AAo?$AAr?$AAe?$AA?9?$AAx?$AAs?$AAt?$AAa?$AAt?$AAe?$AA?9?$AAl?$AA2?$AA?9?$AA1?$AA?9?$AA0?$AA?$AA@ 100e25fc     libucrt:winapi_thunks.obj
 0002:00001638       ??_C@_1EO@IJIOEFOH@?$AAa?$AAp?$AAi?$AA?9?$AAm?$AAs?$AA?9?$AAw?$AAi?$AAn?$AA?9?$AAr?$AAt?$AAc?$AAo?$AAr?$AAe?$AA?9?$AAn?$AAt?$AAu?$AAs?$AAe?$AAr?$AA?9?$AAw?$AAi?$AAn?$AAd?$AAo?$AAw?$AA?9@ 100e2638     libucrt:winapi_thunks.obj
 0002:00001688       ??_C@_1FG@HHGEKANL@?$AAa?$AAp?$AAi?$AA?9?$AAm?$AAs?$AA?9?$AAw?$AAi?$AAn?$AA?9?$AAs?$AAe?$AAc?$AAu?$AAr?$AAi?$AAt?$AAy?$AA?9?$AAs?$AAy?$AAs?$AAt?$AAe?$AAm?$AAf?$AAu?$AAn?$AAc?$AAt?$AAi@ 100e2688     libucrt:winapi_thunks.obj
 0002:000016e0       ??_C@_1FG@NCKKOLKO@?$AAe?$AAx?$AAt?$AA?9?$AAm?$AAs?$AA?9?$AAw?$AAi?$AAn?$AA?9?$AAk?$AAe?$AAr?$AAn?$AAe?$AAl?$AA3?$AA2?$AA?9?$AAp?$AAa?$AAc?$AAk?$AAa?$AAg?$AAe?$AA?9?$AAc?$AAu?$AAr?$AAr@ 100e26e0     libucrt:winapi_thunks.obj
 0002:00001738       ??_C@_1EG@DBIOJECG@?$AAe?$AAx?$AAt?$AA?9?$AAm?$AAs?$AA?9?$AAw?$AAi?$AAn?$AA?9?$AAn?$AAt?$AAu?$AAs?$AAe?$AAr?$AA?9?$AAd?$AAi?$AAa?$AAl?$AAo?$AAg?$AAb?$AAo?$AAx?$AA?9?$AAl?$AA1?$AA?9?$AA1@ 100e2738     libucrt:winapi_thunks.obj
 0002:00001780       ??_C@_1EO@FIHMJCLF@?$AAe?$AAx?$AAt?$AA?9?$AAm?$AAs?$AA?9?$AAw?$AAi?$AAn?$AA?9?$AAn?$AAt?$AAu?$AAs?$AAe?$AAr?$AA?9?$AAw?$AAi?$AAn?$AAd?$AAo?$AAw?$AAs?$AAt?$AAa?$AAt?$AAi?$AAo?$AAn?$AA?9@ 100e2780     libucrt:winapi_thunks.obj
 0002:000017d0       ??_C@_1O@BCCLBEOE@?$AAu?$AAs?$AAe?$AAr?$AA3?$AA2?$AA?$AA@ 100e27d0     libucrt:winapi_thunks.obj
 0002:000017ec       ??_C@_0BA@IHGNDAEB@CompareStringEx?$AA@ 100e27ec     libucrt:winapi_thunks.obj
 0002:00001824       ??_C@_0BE@JOGNEJCI@GetCurrentPackageId?$AA@ 100e2824     libucrt:winapi_thunks.obj
 0002:00001848       ??_C@_0O@KKBNKAPF@LCMapStringEx?$AA@ 100e2848     libucrt:winapi_thunks.obj
 0002:00001860       ??_C@_0BB@HBDEELFH@LocaleNameToLCID?$AA@ 100e2860     libucrt:winapi_thunks.obj
 0002:00001884       ??_C@_1M@HPNHIDJI@?$AAj?$AAa?$AA?9?$AAJ?$AAP?$AA?$AA@ 100e2884     libucrt:mbctype.obj
 0002:00001890       ??_C@_1M@BIBDDEMK@?$AAz?$AAh?$AA?9?$AAC?$AAN?$AA?$AA@ 100e2890     libucrt:mbctype.obj
 0002:0000189c       ??_C@_1M@JLOOOEGK@?$AAk?$AAo?$AA?9?$AAK?$AAR?$AA?$AA@ 100e289c     libucrt:mbctype.obj
 0002:000018a8       ??_C@_1M@CLNBBOPM@?$AAz?$AAh?$AA?9?$AAT?$AAW?$AA?$AA@ 100e28a8     libucrt:mbctype.obj
 0002:000018b8       ___newctype                100e28b8     libucrt:ctype.obj
 0002:00001bb8       ___newclmap                100e2bb8     libucrt:ctype.obj
 0002:00001d38       ___newcumap                100e2d38     libucrt:ctype.obj
 0002:00001eb8       ??_C@_15PJPFLCCM@?$AAu?$AAk?$AA?$AA@ 100e2eb8     libucrt:get_qualified_locale.obj
 0002:00001ec0       __days                     100e2ec0     libucrt:days.obj
 0002:00001ef4       __lpdays                   100e2ef4     libucrt:days.obj
 0002:00002648       ??_C@_15EMKDOKLE@?$AAa?$AAr?$AA?$AA@ 100e3648     libucrt:lcidtoname_downlevel.obj
 0002:00002650       ??_C@_15KNPADPLH@?$AAb?$AAg?$AA?$AA@ 100e3650     libucrt:lcidtoname_downlevel.obj
 0002:00002658       ??_C@_15EDMHLDMO@?$AAc?$AAa?$AA?$AA@ 100e3658     libucrt:lcidtoname_downlevel.obj
 0002:00002660       ??_C@_1O@BPEAJADD@?$AAz?$AAh?$AA?9?$AAC?$AAH?$AAS?$AA?$AA@ 100e3660     libucrt:lcidtoname_downlevel.obj
 0002:00002670       ??_C@_15LJNHCMNK@?$AAc?$AAs?$AA?$AA@ 100e3670     libucrt:lcidtoname_downlevel.obj
 0002:00002678       ??_C@_15FOMCIDHG@?$AAd?$AAa?$AA?$AA@ 100e3678     libucrt:lcidtoname_downlevel.obj
 0002:00002680       ??_C@_15NBKABECB@?$AAd?$AAe?$AA?$AA@ 100e3680     libucrt:lcidtoname_downlevel.obj
 0002:00002688       ??_C@_15GHPEIIAO@?$AAe?$AAl?$AA?$AA@ 100e3688     libucrt:lcidtoname_downlevel.obj
 0002:00002690       ??_C@_15MNPNEAIF@?$AAe?$AAn?$AA?$AA@ 100e3690     libucrt:lcidtoname_downlevel.obj
 0002:00002698       ??_C@_15GPIOMPMH@?$AAe?$AAs?$AA?$AA@ 100e3698     libucrt:lcidtoname_downlevel.obj
 0002:000026a0       ??_C@_15NGLOAKJC@?$AAf?$AAi?$AA?$AA@ 100e36a0     libucrt:lcidtoname_downlevel.obj
 0002:000026a8       ??_C@_15FBKGNKAM@?$AAf?$AAr?$AA?$AA@ 100e36a8     libucrt:lcidtoname_downlevel.obj
 0002:000026b0       ??_C@_15KGGCNEFK@?$AAh?$AAe?$AA?$AA@ 100e36b0     libucrt:lcidtoname_downlevel.obj
 0002:000026b8       ??_C@_15PGHLIDMF@?$AAh?$AAu?$AA?$AA@ 100e36b8     libucrt:lcidtoname_downlevel.obj
 0002:000026c0       ??_C@_15BIEMAPLM@?$AAi?$AAs?$AA?$AA@ 100e36c0     libucrt:lcidtoname_downlevel.obj
 0002:000026c8       ??_C@_15IFJLDHAF@?$AAi?$AAt?$AA?$AA@ 100e36c8     libucrt:lcidtoname_downlevel.obj
 0002:000026d0       ??_C@_15GEMIOCAG@?$AAj?$AAa?$AA?$AA@ 100e36d0     libucrt:lcidtoname_downlevel.obj
 0002:000026d8       ??_C@_15EPELEGJA@?$AAk?$AAo?$AA?$AA@ 100e36d8     libucrt:lcidtoname_downlevel.obj
 0002:000026e0       ??_C@_15NDDHIMN@?$AAn?$AAl?$AA?$AA@ 100e36e0     libucrt:lcidtoname_downlevel.obj
 0002:000026e8       ??_C@_15BPIGNHCD@?$AAn?$AAo?$AA?$AA@ 100e36e8     libucrt:lcidtoname_downlevel.obj
 0002:000026f0       ??_C@_15DEOPBLCG@?$AAp?$AAl?$AA?$AA@ 100e36f0     libucrt:lcidtoname_downlevel.obj
 0002:000026f8       ??_C@_15KBECGEFG@?$AAp?$AAt?$AA?$AA@ 100e36f8     libucrt:lcidtoname_downlevel.obj
 0002:00002700       ??_C@_15GLJCBFMD@?$AAr?$AAo?$AA?$AA@ 100e3700     libucrt:lcidtoname_downlevel.obj
 0002:00002708       ??_C@_15FEDGKCDI@?$AAr?$AAu?$AA?$AA@ 100e3708     libucrt:lcidtoname_downlevel.obj
 0002:00002710       ??_C@_15GLKMLLHM@?$AAh?$AAr?$AA?$AA@ 100e3710     libucrt:lcidtoname_downlevel.obj
 0002:00002718       ??_C@_15CPKMFBDB@?$AAs?$AAk?$AA?$AA@ 100e3718     libucrt:lcidtoname_downlevel.obj
 0002:00002720       ??_C@_15BAAIOGMK@?$AAs?$AAq?$AA?$AA@ 100e3720     libucrt:lcidtoname_downlevel.obj
 0002:00002728       ??_C@_15INNPNOHD@?$AAs?$AAv?$AA?$AA@ 100e3728     libucrt:lcidtoname_downlevel.obj
 0002:00002730       ??_C@_15CABMMOGH@?$AAt?$AAh?$AA?$AA@ 100e3730     libucrt:lcidtoname_downlevel.obj
 0002:00002738       ??_C@_15BPLIHJJM@?$AAt?$AAr?$AA?$AA@ 100e3738     libucrt:lcidtoname_downlevel.obj
 0002:00002740       ??_C@_15NEOEKKDJ@?$AAu?$AAr?$AA?$AA@ 100e3740     libucrt:lcidtoname_downlevel.obj
 0002:00002748       ??_C@_15NFICGAJK@?$AAi?$AAd?$AA?$AA@ 100e3748     libucrt:lcidtoname_downlevel.obj
 0002:00002750       ??_C@_15HPJPHDM@?$AAb?$AAe?$AA?$AA@ 100e3750     libucrt:lcidtoname_downlevel.obj
 0002:00002758       ??_C@_15LCHLGJII@?$AAs?$AAl?$AA?$AA@ 100e3758     libucrt:lcidtoname_downlevel.obj
 0002:00002760       ??_C@_15PCFJPHHO@?$AAe?$AAt?$AA?$AA@ 100e3760     libucrt:lcidtoname_downlevel.obj
 0002:00002768       ??_C@_15HPFPGODN@?$AAl?$AAv?$AA?$AA@ 100e3768     libucrt:lcidtoname_downlevel.obj
 0002:00002770       ??_C@_15NFFGKGLG@?$AAl?$AAt?$AA?$AA@ 100e3770     libucrt:lcidtoname_downlevel.obj
 0002:00002778       ??_C@_15BDAKCCHN@?$AAf?$AAa?$AA?$AA@ 100e3778     libucrt:lcidtoname_downlevel.obj
 0002:00002780       ??_C@_15NFGIAIAJ@?$AAv?$AAi?$AA?$AA@ 100e3780     libucrt:lcidtoname_downlevel.obj
 0002:00002788       ??_C@_15LMKNDMHN@?$AAh?$AAy?$AA?$AA@ 100e3788     libucrt:lcidtoname_downlevel.obj
 0002:00002790       ??_C@_15IJBHMCFL@?$AAa?$AAz?$AA?$AA@ 100e3790     libucrt:lcidtoname_downlevel.obj
 0002:00002798       ??_C@_15EKOFJABL@?$AAe?$AAu?$AA?$AA@ 100e3798     libucrt:lcidtoname_downlevel.obj
 0002:000027a0       ??_C@_15BGHADCNK@?$AAm?$AAk?$AA?$AA@ 100e37a0     libucrt:lcidtoname_downlevel.obj
 0002:000027a8       ??_C@_15JDNICKHM@?$AAa?$AAf?$AA?$AA@ 100e37a8     libucrt:lcidtoname_downlevel.obj
 0002:000027b0       ??_C@_15KPJEDBKD@?$AAk?$AAa?$AA?$AA@ 100e37b0     libucrt:lcidtoname_downlevel.obj
 0002:000027b8       ??_C@_15PDNFFFEO@?$AAf?$AAo?$AA?$AA@ 100e37b8     libucrt:lcidtoname_downlevel.obj
 0002:000027c0       ??_C@_15OMLEGLOC@?$AAh?$AAi?$AA?$AA@ 100e37c0     libucrt:lcidtoname_downlevel.obj
 0002:000027c8       ??_C@_15IDNNENKK@?$AAm?$AAs?$AA?$AA@ 100e37c8     libucrt:lcidtoname_downlevel.obj
 0002:000027d0       ??_C@_15MACJNBMH@?$AAk?$AAk?$AA?$AA@ 100e37d0     libucrt:lcidtoname_downlevel.obj
 0002:000027d8       ??_C@_15DKDJEOND@?$AAk?$AAy?$AA?$AA@ 100e37d8     libucrt:lcidtoname_downlevel.obj
 0002:000027e0       ??_C@_15DFGDLJBG@?$AAs?$AAw?$AA?$AA@ 100e37e0     libucrt:lcidtoname_downlevel.obj
 0002:000027e8       ??_C@_15BBFAICNG@?$AAu?$AAz?$AA?$AA@ 100e37e8     libucrt:lcidtoname_downlevel.obj
 0002:000027f0       ??_C@_15DKNDCGEA@?$AAt?$AAt?$AA?$AA@ 100e37f0     libucrt:lcidtoname_downlevel.obj
 0002:000027f8       ??_C@_15MGIFMDPL@?$AAp?$AAa?$AA?$AA@ 100e37f8     libucrt:lcidtoname_downlevel.obj
 0002:00002800       ??_C@_15HCNDBBA@?$AAg?$AAu?$AA?$AA@ 100e3800     libucrt:lcidtoname_downlevel.obj
 0002:00002808       ??_C@_15FNBEIBON@?$AAt?$AAa?$AA?$AA@ 100e3808     libucrt:lcidtoname_downlevel.obj
 0002:00002810       ??_C@_15NCHGBGLK@?$AAt?$AAe?$AA?$AA@ 100e3810     libucrt:lcidtoname_downlevel.obj
 0002:00002818       ??_C@_15PHPHCBPF@?$AAk?$AAn?$AA?$AA@ 100e3818     libucrt:lcidtoname_downlevel.obj
 0002:00002820       ??_C@_15DLGBCKMP@?$AAm?$AAr?$AA?$AA@ 100e3820     libucrt:lcidtoname_downlevel.obj
 0002:00002828       ??_C@_15EABBLBFF@?$AAs?$AAa?$AA?$AA@ 100e3828     libucrt:lcidtoname_downlevel.obj
 0002:00002830       ??_C@_15CBKOMCOI@?$AAm?$AAn?$AA?$AA@ 100e3830     libucrt:lcidtoname_downlevel.obj
 0002:00002838       ??_C@_15CKDMCJAF@?$AAg?$AAl?$AA?$AA@ 100e3838     libucrt:lcidtoname_downlevel.obj
 0002:00002840       ??_C@_17CNJFBPG@?$AAk?$AAo?$AAk?$AA?$AA@ 100e3840     libucrt:lcidtoname_downlevel.obj
 0002:00002848       ??_C@_17FFBJICPL@?$AAs?$AAy?$AAr?$AA?$AA@ 100e3848     libucrt:lcidtoname_downlevel.obj
 0002:00002850       ??_C@_17KPNDCPAF@?$AAd?$AAi?$AAv?$AA?$AA@ 100e3850     libucrt:lcidtoname_downlevel.obj
 0002:00002858       ??_C@_11LOCGONAA@?$AA?$AA@ 100e3858     libucrt:lcidtoname_downlevel.obj
 0002:0000285c       ??_C@_1M@OKAHONE@?$AAa?$AAr?$AA?9?$AAS?$AAA?$AA?$AA@ 100e385c     libucrt:lcidtoname_downlevel.obj
 0002:00002868       ??_C@_1M@FFFIGIGK@?$AAb?$AAg?$AA?9?$AAB?$AAG?$AA?$AA@ 100e3868     libucrt:lcidtoname_downlevel.obj
 0002:00002874       ??_C@_1M@BJNKEDC@?$AAc?$AAa?$AA?9?$AAE?$AAS?$AA?$AA@ 100e3874     libucrt:lcidtoname_downlevel.obj
 0002:00002880       ??_C@_1M@IJJHFJHA@?$AAc?$AAs?$AA?9?$AAC?$AAZ?$AA?$AA@ 100e3880     libucrt:lcidtoname_downlevel.obj
 0002:0000288c       ??_C@_1M@CLPEOBGI@?$AAd?$AAa?$AA?9?$AAD?$AAK?$AA?$AA@ 100e388c     libucrt:lcidtoname_downlevel.obj
 0002:00002898       ??_C@_1M@MCMADGCB@?$AAd?$AAe?$AA?9?$AAD?$AAE?$AA?$AA@ 100e3898     libucrt:lcidtoname_downlevel.obj
 0002:000028a4       ??_C@_1M@OOCKEMAM@?$AAe?$AAl?$AA?9?$AAG?$AAR?$AA?$AA@ 100e38a4     libucrt:lcidtoname_downlevel.obj
 0002:000028b0       ??_C@_1M@DDNJFGID@?$AAf?$AAi?$AA?9?$AAF?$AAI?$AA?$AA@ 100e38b0     libucrt:lcidtoname_downlevel.obj
 0002:000028bc       ??_C@_1M@GLIPPMAC@?$AAf?$AAr?$AA?9?$AAF?$AAR?$AA?$AA@ 100e38bc     libucrt:lcidtoname_downlevel.obj
 0002:000028c8       ??_C@_1M@GFMCHPE@?$AAh?$AAe?$AA?9?$AAI?$AAL?$AA?$AA@ 100e38c8     libucrt:lcidtoname_downlevel.obj
 0002:000028d4       ??_C@_1M@MHLPGNKM@?$AAh?$AAu?$AA?9?$AAH?$AAU?$AA?$AA@ 100e38d4     libucrt:lcidtoname_downlevel.obj
 0002:000028e0       ??_C@_1M@LPDDNNPN@?$AAi?$AAs?$AA?9?$AAI?$AAS?$AA?$AA@ 100e38e0     libucrt:lcidtoname_downlevel.obj
 0002:000028ec       ??_C@_1M@MADIPODN@?$AAi?$AAt?$AA?9?$AAI?$AAT?$AA?$AA@ 100e38ec     libucrt:lcidtoname_downlevel.obj
 0002:000028f8       ??_C@_1M@IHBJJGG@?$AAn?$AAl?$AA?9?$AAN?$AAL?$AA?$AA@ 100e38f8     libucrt:lcidtoname_downlevel.obj
 0002:00002904       ??_C@_1M@EANAGDL@?$AAn?$AAb?$AA?9?$AAN?$AAO?$AA?$AA@ 100e3904     libucrt:lcidtoname_downlevel.obj
 0002:00002910       ??_C@_1M@NEIEMEGP@?$AAp?$AAl?$AA?9?$AAP?$AAL?$AA?$AA@ 100e3910     libucrt:lcidtoname_downlevel.obj
 0002:0000291c       ??_C@_1M@BOCFIGEP@?$AAp?$AAt?$AA?9?$AAB?$AAR?$AA?$AA@ 100e391c     libucrt:lcidtoname_downlevel.obj
 0002:00002928       ??_C@_1M@IMPFOPBG@?$AAr?$AAo?$AA?9?$AAR?$AAO?$AA?$AA@ 100e3928     libucrt:lcidtoname_downlevel.obj
 0002:00002934       ??_C@_1M@IDNNEJMM@?$AAr?$AAu?$AA?9?$AAR?$AAU?$AA?$AA@ 100e3934     libucrt:lcidtoname_downlevel.obj
 0002:00002940       ??_C@_1M@LILEEOGM@?$AAh?$AAr?$AA?9?$AAH?$AAR?$AA?$AA@ 100e3940     libucrt:lcidtoname_downlevel.obj
 0002:0000294c       ??_C@_1M@FKIFEHPB@?$AAs?$AAk?$AA?9?$AAS?$AAK?$AA?$AA@ 100e394c     libucrt:lcidtoname_downlevel.obj
 0002:00002958       ??_C@_1M@LJMAMNPJ@?$AAs?$AAq?$AA?9?$AAA?$AAL?$AA?$AA@ 100e3958     libucrt:lcidtoname_downlevel.obj
 0002:00002964       ??_C@_1M@GIAKDKJK@?$AAs?$AAv?$AA?9?$AAS?$AAE?$AA?$AA@ 100e3964     libucrt:lcidtoname_downlevel.obj
 0002:00002970       ??_C@_1M@MKJKIKCL@?$AAt?$AAh?$AA?9?$AAT?$AAH?$AA?$AA@ 100e3970     libucrt:lcidtoname_downlevel.obj
 0002:0000297c       ??_C@_1M@MFLCCMPB@?$AAt?$AAr?$AA?9?$AAT?$AAR?$AA?$AA@ 100e397c     libucrt:lcidtoname_downlevel.obj
 0002:00002988       ??_C@_1M@OIJHDKJN@?$AAu?$AAr?$AA?9?$AAP?$AAK?$AA?$AA@ 100e3988     libucrt:lcidtoname_downlevel.obj
 0002:00002994       ??_C@_1M@LHIPCIEK@?$AAi?$AAd?$AA?9?$AAI?$AAD?$AA?$AA@ 100e3994     libucrt:lcidtoname_downlevel.obj
 0002:000029a0       ??_C@_1M@MFMOBGI@?$AAu?$AAk?$AA?9?$AAU?$AAA?$AA?$AA@ 100e39a0     libucrt:lcidtoname_downlevel.obj
 0002:000029ac       ??_C@_1M@OBGLJIPL@?$AAb?$AAe?$AA?9?$AAB?$AAY?$AA?$AA@ 100e39ac     libucrt:lcidtoname_downlevel.obj
 0002:000029b8       ??_C@_1M@BCFAJEAD@?$AAs?$AAl?$AA?9?$AAS?$AAI?$AA?$AA@ 100e39b8     libucrt:lcidtoname_downlevel.obj
 0002:000029c4       ??_C@_1M@FKFFEDDN@?$AAe?$AAt?$AA?9?$AAE?$AAE?$AA?$AA@ 100e39c4     libucrt:lcidtoname_downlevel.obj
 0002:000029d0       ??_C@_1M@KGKKAACI@?$AAl?$AAv?$AA?9?$AAL?$AAV?$AA?$AA@ 100e39d0     libucrt:lcidtoname_downlevel.obj
 0002:000029dc       ??_C@_1M@IFGBIJO@?$AAl?$AAt?$AA?9?$AAL?$AAT?$AA?$AA@ 100e39dc     libucrt:lcidtoname_downlevel.obj
 0002:000029e8       ??_C@_1M@FGEAHEDM@?$AAf?$AAa?$AA?9?$AAI?$AAR?$AA?$AA@ 100e39e8     libucrt:lcidtoname_downlevel.obj
 0002:000029f4       ??_C@_1M@KBMAIBFN@?$AAv?$AAi?$AA?9?$AAV?$AAN?$AA?$AA@ 100e39f4     libucrt:lcidtoname_downlevel.obj
 0002:00002a00       ??_C@_1M@GPCBKDJK@?$AAh?$AAy?$AA?9?$AAA?$AAM?$AA?$AA@ 100e3a00     libucrt:lcidtoname_downlevel.obj
 0002:00002a0c       ??_C@_1BG@BECMDDJB@?$AAa?$AAz?$AA?9?$AAA?$AAZ?$AA?9?$AAL?$AAa?$AAt?$AAn?$AA?$AA@ 100e3a0c     libucrt:lcidtoname_downlevel.obj
 0002:00002a24       ??_C@_1M@MAOFCAEA@?$AAe?$AAu?$AA?9?$AAE?$AAS?$AA?$AA@ 100e3a24     libucrt:lcidtoname_downlevel.obj
 0002:00002a30       ??_C@_1M@IGHABKPI@?$AAm?$AAk?$AA?9?$AAM?$AAK?$AA?$AA@ 100e3a30     libucrt:lcidtoname_downlevel.obj
 0002:00002a3c       ??_C@_1M@IAIGNEJG@?$AAt?$AAn?$AA?9?$AAZ?$AAA?$AA?$AA@ 100e3a3c     libucrt:lcidtoname_downlevel.obj
 0002:00002a48       ??_C@_1M@IIJCOJFA@?$AAx?$AAh?$AA?9?$AAZ?$AAA?$AA?$AA@ 100e3a48     libucrt:lcidtoname_downlevel.obj
 0002:00002a54       ??_C@_1M@LGPJHNJH@?$AAz?$AAu?$AA?9?$AAZ?$AAA?$AA?$AA@ 100e3a54     libucrt:lcidtoname_downlevel.obj
 0002:00002a60       ??_C@_1M@HOKAOIO@?$AAa?$AAf?$AA?9?$AAZ?$AAA?$AA?$AA@ 100e3a60     libucrt:lcidtoname_downlevel.obj
 0002:00002a6c       ??_C@_1M@DPCLHLIE@?$AAk?$AAa?$AA?9?$AAG?$AAE?$AA?$AA@ 100e3a6c     libucrt:lcidtoname_downlevel.obj
 0002:00002a78       ??_C@_1M@BLKMHJBI@?$AAf?$AAo?$AA?9?$AAF?$AAO?$AA?$AA@ 100e3a78     libucrt:lcidtoname_downlevel.obj
 0002:00002a84       ??_C@_1M@LGGJAPPB@?$AAh?$AAi?$AA?9?$AAI?$AAN?$AA?$AA@ 100e3a84     libucrt:lcidtoname_downlevel.obj
 0002:00002a90       ??_C@_1M@FIKPIHFE@?$AAm?$AAt?$AA?9?$AAM?$AAT?$AA?$AA@ 100e3a90     libucrt:lcidtoname_downlevel.obj
 0002:00002a9c       ??_C@_1M@HEGGPBFA@?$AAs?$AAe?$AA?9?$AAN?$AAO?$AA?$AA@ 100e3a9c     libucrt:lcidtoname_downlevel.obj
 0002:00002aa8       ??_C@_1M@EIBJEEPA@?$AAm?$AAs?$AA?9?$AAM?$AAY?$AA?$AA@ 100e3aa8     libucrt:lcidtoname_downlevel.obj
 0002:00002ab4       ??_C@_1M@FHLBGMPP@?$AAk?$AAk?$AA?9?$AAK?$AAZ?$AA?$AA@ 100e3ab4     libucrt:lcidtoname_downlevel.obj
 0002:00002ac0       ??_C@_1M@NGJJLCGI@?$AAk?$AAy?$AA?9?$AAK?$AAG?$AA?$AA@ 100e3ac0     libucrt:lcidtoname_downlevel.obj
 0002:00002acc       ??_C@_1M@GIENNBFC@?$AAs?$AAw?$AA?9?$AAK?$AAE?$AA?$AA@ 100e3acc     libucrt:lcidtoname_downlevel.obj
 0002:00002ad8       ??_C@_1BG@NDGMJIMJ@?$AAu?$AAz?$AA?9?$AAU?$AAZ?$AA?9?$AAL?$AAa?$AAt?$AAn?$AA?$AA@ 100e3ad8     libucrt:lcidtoname_downlevel.obj
 0002:00002af0       ??_C@_1M@IDCCIHBC@?$AAt?$AAt?$AA?9?$AAR?$AAU?$AA?$AA@ 100e3af0     libucrt:lcidtoname_downlevel.obj
 0002:00002afc       ??_C@_1M@LOICPMOJ@?$AAb?$AAn?$AA?9?$AAI?$AAN?$AA?$AA@ 100e3afc     libucrt:lcidtoname_downlevel.obj
 0002:00002b08       ??_C@_1M@KPKKNEAH@?$AAp?$AAa?$AA?9?$AAI?$AAN?$AA?$AA@ 100e3b08     libucrt:lcidtoname_downlevel.obj
 0002:00002b14       ??_C@_1M@PJGPPBOG@?$AAg?$AAu?$AA?9?$AAI?$AAN?$AA?$AA@ 100e3b14     libucrt:lcidtoname_downlevel.obj
 0002:00002b20       ??_C@_1M@KMKMOPHI@?$AAt?$AAa?$AA?9?$AAI?$AAN?$AA?$AA@ 100e3b20     libucrt:lcidtoname_downlevel.obj
 0002:00002b2c       ??_C@_1M@KFEHEPAC@?$AAt?$AAe?$AA?9?$AAI?$AAN?$AA?$AA@ 100e3b2c     libucrt:lcidtoname_downlevel.obj
 0002:00002b38       ??_C@_1M@CDCLMGHI@?$AAk?$AAn?$AA?9?$AAI?$AAN?$AA?$AA@ 100e3b38     libucrt:lcidtoname_downlevel.obj
 0002:00002b44       ??_C@_1M@MIODLDKF@?$AAm?$AAl?$AA?9?$AAI?$AAN?$AA?$AA@ 100e3b44     libucrt:lcidtoname_downlevel.obj
 0002:00002b50       ??_C@_1M@PBIEACPO@?$AAm?$AAr?$AA?9?$AAI?$AAN?$AA?$AA@ 100e3b50     libucrt:lcidtoname_downlevel.obj
 0002:00002b5c       ??_C@_1M@NIDEAGPH@?$AAs?$AAa?$AA?9?$AAI?$AAN?$AA?$AA@ 100e3b5c     libucrt:lcidtoname_downlevel.obj
 0002:00002b68       ??_C@_1M@FHIHCBIO@?$AAm?$AAn?$AA?9?$AAM?$AAN?$AA?$AA@ 100e3b68     libucrt:lcidtoname_downlevel.obj
 0002:00002b74       ??_C@_1M@JAIJPENP@?$AAc?$AAy?$AA?9?$AAG?$AAB?$AA?$AA@ 100e3b74     libucrt:lcidtoname_downlevel.obj
 0002:00002b80       ??_C@_1M@PHGFBEPN@?$AAg?$AAl?$AA?9?$AAE?$AAS?$AA?$AA@ 100e3b80     libucrt:lcidtoname_downlevel.obj
 0002:00002b8c       ??_C@_1O@KPIPDNCP@?$AAk?$AAo?$AAk?$AA?9?$AAI?$AAN?$AA?$AA@ 100e3b8c     libucrt:lcidtoname_downlevel.obj
 0002:00002b9c       ??_C@_1O@KNHJLDJA@?$AAs?$AAy?$AAr?$AA?9?$AAS?$AAY?$AA?$AA@ 100e3b9c     libucrt:lcidtoname_downlevel.obj
 0002:00002bac       ??_C@_1O@MKEKBLAH@?$AAd?$AAi?$AAv?$AA?9?$AAM?$AAV?$AA?$AA@ 100e3bac     libucrt:lcidtoname_downlevel.obj
 0002:00002bbc       ??_C@_1O@OHDCKDDF@?$AAq?$AAu?$AAz?$AA?9?$AAB?$AAO?$AA?$AA@ 100e3bbc     libucrt:lcidtoname_downlevel.obj
 0002:00002bcc       ??_C@_1M@LEPJNLFD@?$AAn?$AAs?$AA?9?$AAZ?$AAA?$AA?$AA@ 100e3bcc     libucrt:lcidtoname_downlevel.obj
 0002:00002bd8       ??_C@_1M@OMLEIIJB@?$AAm?$AAi?$AA?9?$AAN?$AAZ?$AA?$AA@ 100e3bd8     libucrt:lcidtoname_downlevel.obj
 0002:00002be4       ??_C@_1M@PMPEAILG@?$AAa?$AAr?$AA?9?$AAI?$AAQ?$AA?$AA@ 100e3be4     libucrt:lcidtoname_downlevel.obj
 0002:00002bf0       ??_C@_1M@CNKPNOEE@?$AAd?$AAe?$AA?9?$AAC?$AAH?$AA?$AA@ 100e3bf0     libucrt:lcidtoname_downlevel.obj
 0002:00002bfc       ??_C@_1M@LKMGMLKO@?$AAe?$AAn?$AA?9?$AAG?$AAB?$AA?$AA@ 100e3bfc     libucrt:lcidtoname_downlevel.obj
 0002:00002c08       ??_C@_1M@PGKJFFGL@?$AAe?$AAs?$AA?9?$AAM?$AAX?$AA?$AA@ 100e3c08     libucrt:lcidtoname_downlevel.obj
 0002:00002c14       ??_C@_1M@DNNANBDC@?$AAf?$AAr?$AA?9?$AAB?$AAE?$AA?$AA@ 100e3c14     libucrt:lcidtoname_downlevel.obj
 0002:00002c20       ??_C@_1M@HLGMDFHM@?$AAi?$AAt?$AA?9?$AAC?$AAH?$AA?$AA@ 100e3c20     libucrt:lcidtoname_downlevel.obj
 0002:00002c2c       ??_C@_1M@CLLBGJH@?$AAn?$AAl?$AA?9?$AAB?$AAE?$AA?$AA@ 100e3c2c     libucrt:lcidtoname_downlevel.obj
 0002:00002c38       ??_C@_1M@BODBOGLF@?$AAn?$AAn?$AA?9?$AAN?$AAO?$AA?$AA@ 100e3c38     libucrt:lcidtoname_downlevel.obj
 0002:00002c44       ??_C@_1M@HFFAHKAD@?$AAp?$AAt?$AA?9?$AAP?$AAT?$AA?$AA@ 100e3c44     libucrt:lcidtoname_downlevel.obj
 0002:00002c50       ??_C@_1BG@LNOAKHIE@?$AAs?$AAr?$AA?9?$AAS?$AAP?$AA?9?$AAL?$AAa?$AAt?$AAn?$AA?$AA@ 100e3c50     libucrt:lcidtoname_downlevel.obj
 0002:00002c68       ??_C@_1M@HBMHBGAK@?$AAs?$AAv?$AA?9?$AAF?$AAI?$AA?$AA@ 100e3c68     libucrt:lcidtoname_downlevel.obj
 0002:00002c74       ??_C@_1BG@DGCJGJBE@?$AAa?$AAz?$AA?9?$AAA?$AAZ?$AA?9?$AAC?$AAy?$AAr?$AAl?$AA?$AA@ 100e3c74     libucrt:lcidtoname_downlevel.obj
 0002:00002c8c       ??_C@_1M@KEJDAAHB@?$AAs?$AAe?$AA?9?$AAS?$AAE?$AA?$AA@ 100e3c8c     libucrt:lcidtoname_downlevel.obj
 0002:00002c98       ??_C@_1M@HEIBJJAD@?$AAm?$AAs?$AA?9?$AAB?$AAN?$AA?$AA@ 100e3c98     libucrt:lcidtoname_downlevel.obj
 0002:00002ca4       ??_C@_1BG@PBGJMCEM@?$AAu?$AAz?$AA?9?$AAU?$AAZ?$AA?9?$AAC?$AAy?$AAr?$AAl?$AA?$AA@ 100e3ca4     libucrt:lcidtoname_downlevel.obj
 0002:00002cbc       ??_C@_1O@LAOBCMDF@?$AAq?$AAu?$AAz?$AA?9?$AAE?$AAC?$AA?$AA@ 100e3cbc     libucrt:lcidtoname_downlevel.obj
 0002:00002ccc       ??_C@_1M@POEEMAIO@?$AAa?$AAr?$AA?9?$AAE?$AAG?$AA?$AA@ 100e3ccc     libucrt:lcidtoname_downlevel.obj
 0002:00002cd8       ??_C@_1M@EFAKDEDL@?$AAz?$AAh?$AA?9?$AAH?$AAK?$AA?$AA@ 100e3cd8     libucrt:lcidtoname_downlevel.obj
 0002:00002ce4       ??_C@_1M@HKKIJHGI@?$AAd?$AAe?$AA?9?$AAA?$AAT?$AA?$AA@ 100e3ce4     libucrt:lcidtoname_downlevel.obj
 0002:00002cf0       ??_C@_1M@KBFBEHJF@?$AAe?$AAn?$AA?9?$AAA?$AAU?$AA?$AA@ 100e3cf0     libucrt:lcidtoname_downlevel.obj
 0002:00002cfc       ??_C@_1M@MNPLFAAH@?$AAe?$AAs?$AA?9?$AAE?$AAS?$AA?$AA@ 100e3cfc     libucrt:lcidtoname_downlevel.obj
 0002:00002d08       ??_C@_1M@HJOOJFMA@?$AAf?$AAr?$AA?9?$AAC?$AAA?$AA?$AA@ 100e3d08     libucrt:lcidtoname_downlevel.obj
 0002:00002d14       ??_C@_1BG@JPOFPNAB@?$AAs?$AAr?$AA?9?$AAS?$AAP?$AA?9?$AAC?$AAy?$AAr?$AAl?$AA?$AA@ 100e3d14     libucrt:lcidtoname_downlevel.obj
 0002:00002d2c       ??_C@_1M@LNFOCMOB@?$AAs?$AAe?$AA?9?$AAF?$AAI?$AA?$AA@ 100e3d2c     libucrt:lcidtoname_downlevel.obj
 0002:00002d38       ??_C@_1O@MGJBOAMB@?$AAq?$AAu?$AAz?$AA?9?$AAP?$AAE?$AA?$AA@ 100e3d38     libucrt:lcidtoname_downlevel.obj
 0002:00002d48       ??_C@_1M@GJINLBOK@?$AAa?$AAr?$AA?9?$AAL?$AAY?$AA?$AA@ 100e3d48     libucrt:lcidtoname_downlevel.obj
 0002:00002d54       ??_C@_1M@GGMNHJNL@?$AAz?$AAh?$AA?9?$AAS?$AAG?$AA?$AA@ 100e3d54     libucrt:lcidtoname_downlevel.obj
 0002:00002d60       ??_C@_1M@HOIKODND@?$AAd?$AAe?$AA?9?$AAL?$AAU?$AA?$AA@ 100e3d60     libucrt:lcidtoname_downlevel.obj
 0002:00002d6c       ??_C@_1M@DDOCCGFG@?$AAe?$AAn?$AA?9?$AAC?$AAA?$AA?$AA@ 100e3d6c     libucrt:lcidtoname_downlevel.obj
 0002:00002d78       ??_C@_1M@BNOEMJLF@?$AAe?$AAs?$AA?9?$AAG?$AAT?$AA?$AA@ 100e3d78     libucrt:lcidtoname_downlevel.obj
 0002:00002d84       ??_C@_1M@EOGNKEK@?$AAf?$AAr?$AA?9?$AAC?$AAH?$AA?$AA@ 100e3d84     libucrt:lcidtoname_downlevel.obj
 0002:00002d90       ??_C@_1M@FLIDJFHL@?$AAh?$AAr?$AA?9?$AAB?$AAA?$AA?$AA@ 100e3d90     libucrt:lcidtoname_downlevel.obj
 0002:00002d9c       ??_C@_1O@FMCELNAJ@?$AAs?$AAm?$AAj?$AA?9?$AAN?$AAO?$AA?$AA@ 100e3d9c     libucrt:lcidtoname_downlevel.obj
 0002:00002dac       ??_C@_1M@JHGLJMGJ@?$AAa?$AAr?$AA?9?$AAD?$AAZ?$AA?$AA@ 100e3dac     libucrt:lcidtoname_downlevel.obj
 0002:00002db8       ??_C@_1M@JKKFDCNP@?$AAz?$AAh?$AA?9?$AAM?$AAO?$AA?$AA@ 100e3db8     libucrt:lcidtoname_downlevel.obj
 0002:00002dc4       ??_C@_1M@GEEFALPE@?$AAd?$AAe?$AA?9?$AAL?$AAI?$AA?$AA@ 100e3dc4     libucrt:lcidtoname_downlevel.obj
 0002:00002dd0       ??_C@_1M@IGEOFBG@?$AAe?$AAn?$AA?9?$AAN?$AAZ?$AA?$AA@ 100e3dd0     libucrt:lcidtoname_downlevel.obj
 0002:00002ddc       ??_C@_1M@KDBONEHP@?$AAe?$AAs?$AA?9?$AAC?$AAR?$AA?$AA@ 100e3ddc     libucrt:lcidtoname_downlevel.obj
 0002:00002de8       ??_C@_1M@FHMDOHNN@?$AAf?$AAr?$AA?9?$AAL?$AAU?$AA?$AA@ 100e3de8     libucrt:lcidtoname_downlevel.obj
 0002:00002df4       ??_C@_1BG@NFKKMAFG@?$AAb?$AAs?$AA?9?$AAB?$AAA?$AA?9?$AAL?$AAa?$AAt?$AAn?$AA?$AA@ 100e3df4     libucrt:lcidtoname_downlevel.obj
 0002:00002e0c       ??_C@_1O@IMNBEMCI@?$AAs?$AAm?$AAj?$AA?9?$AAS?$AAE?$AA?$AA@ 100e3e0c     libucrt:lcidtoname_downlevel.obj
 0002:00002e1c       ??_C@_1M@DHHMBNDP@?$AAa?$AAr?$AA?9?$AAM?$AAA?$AA?$AA@ 100e3e1c     libucrt:lcidtoname_downlevel.obj
 0002:00002e28       ??_C@_1M@BNBLJCGH@?$AAe?$AAn?$AA?9?$AAI?$AAE?$AA?$AA@ 100e3e28     libucrt:lcidtoname_downlevel.obj
 0002:00002e34       ??_C@_1M@GEPAFMDL@?$AAe?$AAs?$AA?9?$AAP?$AAA?$AA?$AA@ 100e3e34     libucrt:lcidtoname_downlevel.obj
 0002:00002e40       ??_C@_1M@OJONDMDL@?$AAf?$AAr?$AA?9?$AAM?$AAC?$AA?$AA@ 100e3e40     libucrt:lcidtoname_downlevel.obj
 0002:00002e4c       ??_C@_1BG@OBCNFJB@?$AAs?$AAr?$AA?9?$AAB?$AAA?$AA?9?$AAL?$AAa?$AAt?$AAn?$AA?$AA@ 100e3e4c     libucrt:lcidtoname_downlevel.obj
 0002:00002e64       ??_C@_1O@KEMEEGPO@?$AAs?$AAm?$AAa?$AA?9?$AAN?$AAO?$AA?$AA@ 100e3e64     libucrt:lcidtoname_downlevel.obj
 0002:00002e74       ??_C@_1M@ELMGFODK@?$AAa?$AAr?$AA?9?$AAT?$AAN?$AA?$AA@ 100e3e74     libucrt:lcidtoname_downlevel.obj
 0002:00002e80       ??_C@_1M@BHDLHFAF@?$AAe?$AAn?$AA?9?$AAZ?$AAA?$AA?$AA@ 100e3e80     libucrt:lcidtoname_downlevel.obj
 0002:00002e8c       ??_C@_1M@BMGIGLIF@?$AAe?$AAs?$AA?9?$AAD?$AAO?$AA?$AA@ 100e3e8c     libucrt:lcidtoname_downlevel.obj
 0002:00002e98       ??_C@_1BG@CMBHIPBE@?$AAs?$AAr?$AA?9?$AAB?$AAA?$AA?9?$AAC?$AAy?$AAr?$AAl?$AA?$AA@ 100e3e98     libucrt:lcidtoname_downlevel.obj
 0002:00002eb0       ??_C@_1O@HEDBLHNP@?$AAs?$AAm?$AAa?$AA?9?$AAS?$AAE?$AA?$AA@ 100e3eb0     libucrt:lcidtoname_downlevel.obj
 0002:00002ec0       ??_C@_1M@DAGCADIM@?$AAa?$AAr?$AA?9?$AAO?$AAM?$AA?$AA@ 100e3ec0     libucrt:lcidtoname_downlevel.obj
 0002:00002ecc       ??_C@_1M@FODLMICG@?$AAe?$AAn?$AA?9?$AAJ?$AAM?$AA?$AA@ 100e3ecc     libucrt:lcidtoname_downlevel.obj
 0002:00002ed8       ??_C@_1M@DNMLCIHB@?$AAe?$AAs?$AA?9?$AAV?$AAE?$AA?$AA@ 100e3ed8     libucrt:lcidtoname_downlevel.obj
 0002:00002ee4       ??_C@_1O@EOKHMKJK@?$AAs?$AAm?$AAs?$AA?9?$AAF?$AAI?$AA?$AA@ 100e3ee4     libucrt:lcidtoname_downlevel.obj
 0002:00002ef4       ??_C@_1M@CAFJMKOF@?$AAa?$AAr?$AA?9?$AAY?$AAE?$AA?$AA@ 100e3ef4     libucrt:lcidtoname_downlevel.obj
 0002:00002f00       ??_C@_1M@CBFHIJLI@?$AAe?$AAn?$AA?9?$AAC?$AAB?$AA?$AA@ 100e3f00     libucrt:lcidtoname_downlevel.obj
 0002:00002f0c       ??_C@_1M@BGNFLDN@?$AAe?$AAs?$AA?9?$AAC?$AAO?$AA?$AA@ 100e3f0c     libucrt:lcidtoname_downlevel.obj
 0002:00002f18       ??_C@_1O@JMPHMAMC@?$AAs?$AAm?$AAn?$AA?9?$AAF?$AAI?$AA?$AA@ 100e3f18     libucrt:lcidtoname_downlevel.obj
 0002:00002f28       ??_C@_1M@JLANABKE@?$AAa?$AAr?$AA?9?$AAS?$AAY?$AA?$AA@ 100e3f28     libucrt:lcidtoname_downlevel.obj
 0002:00002f34       ??_C@_1M@HPKGCFGN@?$AAe?$AAn?$AA?9?$AAB?$AAZ?$AA?$AA@ 100e3f34     libucrt:lcidtoname_downlevel.obj
 0002:00002f40       ??_C@_1M@OLJCMLGM@?$AAe?$AAs?$AA?9?$AAP?$AAE?$AA?$AA@ 100e3f40     libucrt:lcidtoname_downlevel.obj
 0002:00002f4c       ??_C@_1M@MKKGFKLE@?$AAa?$AAr?$AA?9?$AAJ?$AAO?$AA?$AA@ 100e3f4c     libucrt:lcidtoname_downlevel.obj
 0002:00002f58       ??_C@_1M@EKPGLDNI@?$AAe?$AAn?$AA?9?$AAT?$AAT?$AA?$AA@ 100e3f58     libucrt:lcidtoname_downlevel.obj
 0002:00002f64       ??_C@_1M@OONGHFHE@?$AAe?$AAs?$AA?9?$AAA?$AAR?$AA?$AA@ 100e3f64     libucrt:lcidtoname_downlevel.obj
 0002:00002f70       ??_C@_1M@OOJFGBHE@?$AAa?$AAr?$AA?9?$AAL?$AAB?$AA?$AA@ 100e3f70     libucrt:lcidtoname_downlevel.obj
 0002:00002f7c       ??_C@_1M@GCEJHNEG@?$AAe?$AAn?$AA?9?$AAZ?$AAW?$AA?$AA@ 100e3f7c     libucrt:lcidtoname_downlevel.obj
 0002:00002f88       ??_C@_1M@JNOCAHJI@?$AAe?$AAs?$AA?9?$AAE?$AAC?$AA?$AA@ 100e3f88     libucrt:lcidtoname_downlevel.obj
 0002:00002f94       ??_C@_1M@JEFHPGGB@?$AAa?$AAr?$AA?9?$AAK?$AAW?$AA?$AA@ 100e3f94     libucrt:lcidtoname_downlevel.obj
 0002:00002fa0       ??_C@_1M@MLKIBJOJ@?$AAe?$AAn?$AA?9?$AAP?$AAH?$AA?$AA@ 100e3fa0     libucrt:lcidtoname_downlevel.obj
 0002:00002fac       ??_C@_1M@BDNIPEND@?$AAe?$AAs?$AA?9?$AAC?$AAL?$AA?$AA@ 100e3fac     libucrt:lcidtoname_downlevel.obj
 0002:00002fb8       ??_C@_1M@MPNMEKBD@?$AAa?$AAr?$AA?9?$AAA?$AAE?$AA?$AA@ 100e3fb8     libucrt:lcidtoname_downlevel.obj
 0002:00002fc4       ??_C@_1M@KBJALCPI@?$AAe?$AAs?$AA?9?$AAU?$AAY?$AA?$AA@ 100e3fc4     libucrt:lcidtoname_downlevel.obj
 0002:00002fd0       ??_C@_1M@LLCCOAGA@?$AAa?$AAr?$AA?9?$AAB?$AAH?$AA?$AA@ 100e3fd0     libucrt:lcidtoname_downlevel.obj
 0002:00002fdc       ??_C@_1M@PBFNCDEL@?$AAe?$AAs?$AA?9?$AAP?$AAY?$AA?$AA@ 100e3fdc     libucrt:lcidtoname_downlevel.obj
 0002:00002fe8       ??_C@_1M@EDGINPNP@?$AAa?$AAr?$AA?9?$AAQ?$AAA?$AA?$AA@ 100e3fe8     libucrt:lcidtoname_downlevel.obj
 0002:00002ff4       ??_C@_1M@MKDBIIJI@?$AAe?$AAs?$AA?9?$AAB?$AAO?$AA?$AA@ 100e3ff4     libucrt:lcidtoname_downlevel.obj
 0002:00003000       ??_C@_1M@CPKKEBLD@?$AAe?$AAs?$AA?9?$AAS?$AAV?$AA?$AA@ 100e4000     libucrt:lcidtoname_downlevel.obj
 0002:0000300c       ??_C@_1M@NDBGMMJL@?$AAe?$AAs?$AA?9?$AAH?$AAN?$AA?$AA@ 100e400c     libucrt:lcidtoname_downlevel.obj
 0002:00003018       ??_C@_1M@JIJIBHDP@?$AAe?$AAs?$AA?9?$AAN?$AAI?$AA?$AA@ 100e4018     libucrt:lcidtoname_downlevel.obj
 0002:00003024       ??_C@_1M@CGFMKEEK@?$AAe?$AAs?$AA?9?$AAP?$AAR?$AA?$AA@ 100e4024     libucrt:lcidtoname_downlevel.obj
 0002:00003030       ??_C@_1O@ICJHKIIK@?$AAz?$AAh?$AA?9?$AAC?$AAH?$AAT?$AA?$AA@ 100e4030     libucrt:lcidtoname_downlevel.obj
 0002:00003040       ??_C@_15CLNEJCE@?$AAs?$AAr?$AA?$AA@ 100e4040     libucrt:lcidtoname_downlevel.obj
 0002:00003768       ??_C@_1M@KAHEKEIG@?$AAa?$AAf?$AA?9?$AAz?$AAa?$AA?$AA@ 100e4768     libucrt:lcidtoname_downlevel.obj
 0002:00003774       ??_C@_1M@GIECOABL@?$AAa?$AAr?$AA?9?$AAa?$AAe?$AA?$AA@ 100e4774     libucrt:lcidtoname_downlevel.obj
 0002:00003780       ??_C@_1M@BMLMEKGI@?$AAa?$AAr?$AA?9?$AAb?$AAh?$AA?$AA@ 100e4780     libucrt:lcidtoname_downlevel.obj
 0002:0000378c       ??_C@_1M@DAPFDGGB@?$AAa?$AAr?$AA?9?$AAd?$AAz?$AA?$AA@ 100e478c     libucrt:lcidtoname_downlevel.obj
 0002:00003798       ??_C@_1M@FJNKGKIG@?$AAa?$AAr?$AA?9?$AAe?$AAg?$AA?$AA@ 100e4798     libucrt:lcidtoname_downlevel.obj
 0002:000037a4       ??_C@_1M@FLGKKCLO@?$AAa?$AAr?$AA?9?$AAi?$AAq?$AA?$AA@ 100e47a4     libucrt:lcidtoname_downlevel.obj
 0002:000037b0       ??_C@_1M@GNDIPALM@?$AAa?$AAr?$AA?9?$AAj?$AAo?$AA?$AA@ 100e47b0     libucrt:lcidtoname_downlevel.obj
 0002:000037bc       ??_C@_1M@DDMJFMGJ@?$AAa?$AAr?$AA?9?$AAk?$AAw?$AA?$AA@ 100e47bc     libucrt:lcidtoname_downlevel.obj
 0002:000037c8       ??_C@_1M@EJALMLHM@?$AAa?$AAr?$AA?9?$AAl?$AAb?$AA?$AA@ 100e47c8     libucrt:lcidtoname_downlevel.obj
 0002:000037d4       ??_C@_1M@MOBDBLOC@?$AAa?$AAr?$AA?9?$AAl?$AAy?$AA?$AA@ 100e47d4     libucrt:lcidtoname_downlevel.obj
 0002:000037e0       ??_C@_1M@JAOCLHDH@?$AAa?$AAr?$AA?9?$AAm?$AAa?$AA?$AA@ 100e47e0     libucrt:lcidtoname_downlevel.obj
 0002:000037ec       ??_C@_1M@JHPMKJIE@?$AAa?$AAr?$AA?9?$AAo?$AAm?$AA?$AA@ 100e47ec     libucrt:lcidtoname_downlevel.obj
 0002:000037f8       ??_C@_1M@OEPGHFNH@?$AAa?$AAr?$AA?9?$AAq?$AAa?$AA?$AA@ 100e47f8     libucrt:lcidtoname_downlevel.obj
 0002:00003804       ??_C@_1M@KJDONENM@?$AAa?$AAr?$AA?9?$AAs?$AAa?$AA?$AA@ 100e4804     libucrt:lcidtoname_downlevel.obj
 0002:00003810       ??_C@_1M@DMJDKLKM@?$AAa?$AAr?$AA?9?$AAs?$AAy?$AA?$AA@ 100e4810     libucrt:lcidtoname_downlevel.obj
 0002:0000381c       ??_C@_1M@OMFIPEDC@?$AAa?$AAr?$AA?9?$AAt?$AAn?$AA?$AA@ 100e481c     libucrt:lcidtoname_downlevel.obj
 0002:00003828       ??_C@_1M@IHMHGAON@?$AAa?$AAr?$AA?9?$AAy?$AAe?$AA?$AA@ 100e4828     libucrt:lcidtoname_downlevel.obj
 0002:00003834       ??_C@_1BG@KDCPGJGB@?$AAa?$AAz?$AA?9?$AAa?$AAz?$AA?9?$AAc?$AAy?$AAr?$AAl?$AA?$AA@ 100e4834     libucrt:lcidtoname_downlevel.obj
 0002:0000384c       ??_C@_1BG@IBCKDDOE@?$AAa?$AAz?$AA?9?$AAa?$AAz?$AA?9?$AAl?$AAa?$AAt?$AAn?$AA?$AA@ 100e484c     libucrt:lcidtoname_downlevel.obj
 0002:00003864       ??_C@_1M@EGPFDCPD@?$AAb?$AAe?$AA?9?$AAb?$AAy?$AA?$AA@ 100e4864     libucrt:lcidtoname_downlevel.obj
 0002:00003870       ??_C@_1M@PCMGMCGC@?$AAb?$AAg?$AA?9?$AAb?$AAg?$AA?$AA@ 100e4870     libucrt:lcidtoname_downlevel.obj
 0002:0000387c       ??_C@_1M@BJBMFGOB@?$AAb?$AAn?$AA?9?$AAi?$AAn?$AA?$AA@ 100e487c     libucrt:lcidtoname_downlevel.obj
 0002:00003888       ??_C@_1BG@EAKMMACD@?$AAb?$AAs?$AA?9?$AAb?$AAa?$AA?9?$AAl?$AAa?$AAt?$AAn?$AA?$AA@ 100e4888     libucrt:lcidtoname_downlevel.obj
 0002:000038a0       ??_C@_1M@KGADAODK@?$AAc?$AAa?$AA?9?$AAe?$AAs?$AA?$AA@ 100e48a0     libucrt:lcidtoname_downlevel.obj
 0002:000038ac       ??_C@_1M@COAJPDHI@?$AAc?$AAs?$AA?9?$AAc?$AAz?$AA?$AA@ 100e48ac     libucrt:lcidtoname_downlevel.obj
 0002:000038b8       ??_C@_1M@DHBHFONH@?$AAc?$AAy?$AA?9?$AAg?$AAb?$AA?$AA@ 100e48b8     libucrt:lcidtoname_downlevel.obj
 0002:000038c4       ??_C@_1M@IMGKELGA@?$AAd?$AAa?$AA?9?$AAd?$AAk?$AA?$AA@ 100e48c4     libucrt:lcidtoname_downlevel.obj
 0002:000038d0       ??_C@_1M@NNDGDNGA@?$AAd?$AAe?$AA?9?$AAa?$AAt?$AA?$AA@ 100e48d0     libucrt:lcidtoname_downlevel.obj
 0002:000038dc       ??_C@_1M@IKDBHEEM@?$AAd?$AAe?$AA?9?$AAc?$AAh?$AA?$AA@ 100e48dc     libucrt:lcidtoname_downlevel.obj
 0002:000038e8       ??_C@_1M@GFFOJMCJ@?$AAd?$AAe?$AA?9?$AAd?$AAe?$AA?$AA@ 100e48e8     libucrt:lcidtoname_downlevel.obj
 0002:000038f4       ??_C@_1M@MDNLKBPM@?$AAd?$AAe?$AA?9?$AAl?$AAi?$AA?$AA@ 100e48f4     libucrt:lcidtoname_downlevel.obj
 0002:00003900       ??_C@_1M@NJBEEJNL@?$AAd?$AAe?$AA?9?$AAl?$AAu?$AA?$AA@ 100e4900     libucrt:lcidtoname_downlevel.obj
 0002:0000390c       ??_C@_1O@GNNELBAP@?$AAd?$AAi?$AAv?$AA?9?$AAm?$AAv?$AA?$AA@ 100e490c     libucrt:lcidtoname_downlevel.obj
 0002:0000391c       ??_C@_1M@EJLEOGAE@?$AAe?$AAl?$AA?9?$AAg?$AAr?$AA?$AA@ 100e491c     libucrt:lcidtoname_downlevel.obj
 0002:00003928       ??_C@_1M@GMPONJN@?$AAe?$AAn?$AA?9?$AAa?$AAu?$AA?$AA@ 100e4928     libucrt:lcidtoname_downlevel.obj
 0002:00003934       ??_C@_1M@NIDIIPGF@?$AAe?$AAn?$AA?9?$AAb?$AAz?$AA?$AA@ 100e4934     libucrt:lcidtoname_downlevel.obj
 0002:00003940       ??_C@_1M@JEHMIMFO@?$AAe?$AAn?$AA?9?$AAc?$AAa?$AA?$AA@ 100e4940     libucrt:lcidtoname_downlevel.obj
 0002:0000394c       ??_C@_1M@IGMJCDLA@?$AAe?$AAn?$AA?9?$AAc?$AAb?$AA?$AA@ 100e494c     libucrt:lcidtoname_downlevel.obj
 0002:00003958       ??_C@_1M@BNFIGBKG@?$AAe?$AAn?$AA?9?$AAg?$AAb?$AA?$AA@ 100e4958     libucrt:lcidtoname_downlevel.obj
 0002:00003964       ??_C@_1M@LKIFDIGP@?$AAe?$AAn?$AA?9?$AAi?$AAe?$AA?$AA@ 100e4964     libucrt:lcidtoname_downlevel.obj
 0002:00003970       ??_C@_1M@PJKFGCCO@?$AAe?$AAn?$AA?9?$AAj?$AAm?$AA?$AA@ 100e4970     libucrt:lcidtoname_downlevel.obj
 0002:0000397c       ??_C@_1M@KPPKEPBO@?$AAe?$AAn?$AA?9?$AAn?$AAz?$AA?$AA@ 100e497c     libucrt:lcidtoname_downlevel.obj
 0002:00003988       ??_C@_1M@GMDGLDOB@?$AAe?$AAn?$AA?9?$AAp?$AAh?$AA?$AA@ 100e4988     libucrt:lcidtoname_downlevel.obj
 0002:00003994       ??_C@_1M@ONGIBJNA@?$AAe?$AAn?$AA?9?$AAt?$AAt?$AA?$AA@ 100e4994     libucrt:lcidtoname_downlevel.obj
 0002:000039a0       ??_C@_1M@LLODPCMM@?$AAe?$AAn?$AA?9?$AAu?$AAs?$AA?$AA@ 100e49a0     libucrt:lcidtoname_downlevel.obj
 0002:000039ac       ??_C@_1M@LAKFNPAN@?$AAe?$AAn?$AA?9?$AAz?$AAa?$AA?$AA@ 100e49ac     libucrt:lcidtoname_downlevel.obj
 0002:000039b8       ??_C@_1M@MFNHNHEO@?$AAe?$AAn?$AA?9?$AAz?$AAw?$AA?$AA@ 100e49b8     libucrt:lcidtoname_downlevel.obj
 0002:000039c4       ??_C@_1M@EJEINPHM@?$AAe?$AAs?$AA?9?$AAa?$AAr?$AA?$AA@ 100e49c4     libucrt:lcidtoname_downlevel.obj
 0002:000039d0       ??_C@_1M@GNKPCCJA@?$AAe?$AAs?$AA?9?$AAb?$AAo?$AA?$AA@ 100e49d0     libucrt:lcidtoname_downlevel.obj
 0002:000039dc       ??_C@_1M@LEEGFONL@?$AAe?$AAs?$AA?9?$AAc?$AAl?$AA?$AA@ 100e49dc     libucrt:lcidtoname_downlevel.obj
 0002:000039e8       ??_C@_1M@KGPDPBDF@?$AAe?$AAs?$AA?9?$AAc?$AAo?$AA?$AA@ 100e49e8     libucrt:lcidtoname_downlevel.obj
 0002:000039f4       ??_C@_1M@EIAHOHH@?$AAe?$AAs?$AA?9?$AAc?$AAr?$AA?$AA@ 100e49f4     libucrt:lcidtoname_downlevel.obj
 0002:00003a00       ??_C@_1M@LLPGMBIN@?$AAe?$AAs?$AA?9?$AAd?$AAo?$AA?$AA@ 100e4a00     libucrt:lcidtoname_downlevel.obj
 0002:00003a0c       ??_C@_1M@DKHMKNJA@?$AAe?$AAs?$AA?9?$AAe?$AAc?$AA?$AA@ 100e4a0c     libucrt:lcidtoname_downlevel.obj
 0002:00003a18       ??_C@_1M@GKGFPKAP@?$AAe?$AAs?$AA?9?$AAe?$AAs?$AA?$AA@ 100e4a18     libucrt:lcidtoname_downlevel.obj
 0002:00003a24       ??_C@_1M@LKHKGDLN@?$AAe?$AAs?$AA?9?$AAg?$AAt?$AA?$AA@ 100e4a24     libucrt:lcidtoname_downlevel.obj
 0002:00003a30       ??_C@_1M@HEIIGGJD@?$AAe?$AAs?$AA?9?$AAh?$AAn?$AA?$AA@ 100e4a30     libucrt:lcidtoname_downlevel.obj
 0002:00003a3c       ??_C@_1M@FBDHPPGD@?$AAe?$AAs?$AA?9?$AAm?$AAx?$AA?$AA@ 100e4a3c     libucrt:lcidtoname_downlevel.obj
 0002:00003a48       ??_C@_1M@DPAGLNDH@?$AAe?$AAs?$AA?9?$AAn?$AAi?$AA?$AA@ 100e4a48     libucrt:lcidtoname_downlevel.obj
 0002:00003a54       ??_C@_1M@MDGOPGDD@?$AAe?$AAs?$AA?9?$AAp?$AAa?$AA?$AA@ 100e4a54     libucrt:lcidtoname_downlevel.obj
 0002:00003a60       ??_C@_1M@EMAMGBGE@?$AAe?$AAs?$AA?9?$AAp?$AAe?$AA?$AA@ 100e4a60     libucrt:lcidtoname_downlevel.obj
 0002:00003a6c       ??_C@_1M@IBMCAOEC@?$AAe?$AAs?$AA?9?$AAp?$AAr?$AA?$AA@ 100e4a6c     libucrt:lcidtoname_downlevel.obj
 0002:00003a78       ??_C@_1M@FGMDIJED@?$AAe?$AAs?$AA?9?$AAp?$AAy?$AA?$AA@ 100e4a78     libucrt:lcidtoname_downlevel.obj
 0002:00003a84       ??_C@_1M@IIDEOLLL@?$AAe?$AAs?$AA?9?$AAs?$AAv?$AA?$AA@ 100e4a84     libucrt:lcidtoname_downlevel.obj
 0002:00003a90       ??_C@_1M@GAOBIPA@?$AAe?$AAs?$AA?9?$AAu?$AAy?$AA?$AA@ 100e4a90     libucrt:lcidtoname_downlevel.obj
 0002:00003a9c       ??_C@_1M@JKFFICHJ@?$AAe?$AAs?$AA?9?$AAv?$AAe?$AA?$AA@ 100e4a9c     libucrt:lcidtoname_downlevel.obj
 0002:00003aa8       ??_C@_1M@PNMLOJDF@?$AAe?$AAt?$AA?9?$AAe?$AAe?$AA?$AA@ 100e4aa8     libucrt:lcidtoname_downlevel.obj
 0002:00003ab4       ??_C@_1M@GHHLIKEI@?$AAe?$AAu?$AA?9?$AAe?$AAs?$AA?$AA@ 100e4ab4     libucrt:lcidtoname_downlevel.obj
 0002:00003ac0       ??_C@_1M@PBNONODE@?$AAf?$AAa?$AA?9?$AAi?$AAr?$AA?$AA@ 100e4ac0     libucrt:lcidtoname_downlevel.obj
 0002:00003acc       ??_C@_1M@JEEHPMIL@?$AAf?$AAi?$AA?9?$AAf?$AAi?$AA?$AA@ 100e4acc     libucrt:lcidtoname_downlevel.obj
 0002:00003ad8       ??_C@_1M@LMDCNDBA@?$AAf?$AAo?$AA?9?$AAf?$AAo?$AA?$AA@ 100e4ad8     libucrt:lcidtoname_downlevel.obj
 0002:00003ae4       ??_C@_1M@JKEOHLDK@?$AAf?$AAr?$AA?9?$AAb?$AAe?$AA?$AA@ 100e4ae4     libucrt:lcidtoname_downlevel.obj
 0002:00003af0       ??_C@_1M@NOHADPMI@?$AAf?$AAr?$AA?9?$AAc?$AAa?$AA?$AA@ 100e4af0     libucrt:lcidtoname_downlevel.obj
 0002:00003afc       ??_C@_1M@KDHIHAEC@?$AAf?$AAr?$AA?9?$AAc?$AAh?$AA?$AA@ 100e4afc     libucrt:lcidtoname_downlevel.obj
 0002:00003b08       ??_C@_1M@MMBBFGAK@?$AAf?$AAr?$AA?9?$AAf?$AAr?$AA?$AA@ 100e4b08     libucrt:lcidtoname_downlevel.obj
 0002:00003b14       ??_C@_1M@PAFNENNF@?$AAf?$AAr?$AA?9?$AAl?$AAu?$AA?$AA@ 100e4b14     libucrt:lcidtoname_downlevel.obj
 0002:00003b20       ??_C@_1M@EOHDJGDD@?$AAf?$AAr?$AA?9?$AAm?$AAc?$AA?$AA@ 100e4b20     libucrt:lcidtoname_downlevel.obj
 0002:00003b2c       ??_C@_1M@FAPLLOPF@?$AAg?$AAl?$AA?9?$AAe?$AAs?$AA?$AA@ 100e4b2c     libucrt:lcidtoname_downlevel.obj
 0002:00003b38       ??_C@_1M@FOPBFLOO@?$AAg?$AAu?$AA?9?$AAi?$AAn?$AA?$AA@ 100e4b38     libucrt:lcidtoname_downlevel.obj
 0002:00003b44       ??_C@_1M@KBMCINPM@?$AAh?$AAe?$AA?9?$AAi?$AAl?$AA?$AA@ 100e4b44     libucrt:lcidtoname_downlevel.obj
 0002:00003b50       ??_C@_1M@BBPHKFPJ@?$AAh?$AAi?$AA?9?$AAi?$AAn?$AA?$AA@ 100e4b50     libucrt:lcidtoname_downlevel.obj
 0002:00003b5c       ??_C@_1M@PMBNDPHD@?$AAh?$AAr?$AA?9?$AAb?$AAa?$AA?$AA@ 100e4b5c     libucrt:lcidtoname_downlevel.obj
 0002:00003b68       ??_C@_1M@BPCKOEGE@?$AAh?$AAr?$AA?9?$AAh?$AAr?$AA?$AA@ 100e4b68     libucrt:lcidtoname_downlevel.obj
 0002:00003b74       ??_C@_1M@GACBMHKE@?$AAh?$AAu?$AA?9?$AAh?$AAu?$AA?$AA@ 100e4b74     libucrt:lcidtoname_downlevel.obj
 0002:00003b80       ??_C@_1M@MILPAJJC@?$AAh?$AAy?$AA?9?$AAa?$AAm?$AA?$AA@ 100e4b80     libucrt:lcidtoname_downlevel.obj
 0002:00003b8c       ??_C@_1M@BABBICEC@?$AAi?$AAd?$AA?9?$AAi?$AAd?$AA?$AA@ 100e4b8c     libucrt:lcidtoname_downlevel.obj
 0002:00003b98       ??_C@_1M@BIKNHHPF@?$AAi?$AAs?$AA?9?$AAi?$AAs?$AA?$AA@ 100e4b98     libucrt:lcidtoname_downlevel.obj
 0002:00003ba4       ??_C@_1M@NMPCJPHE@?$AAi?$AAt?$AA?9?$AAc?$AAh?$AA?$AA@ 100e4ba4     libucrt:lcidtoname_downlevel.obj
 0002:00003bb0       ??_C@_1M@GHKGFEDF@?$AAi?$AAt?$AA?9?$AAi?$AAt?$AA?$AA@ 100e4bb0     libucrt:lcidtoname_downlevel.obj
 0002:00003bbc       ??_C@_1M@NIEJCJJA@?$AAj?$AAa?$AA?9?$AAj?$AAp?$AA?$AA@ 100e4bbc     libucrt:lcidtoname_downlevel.obj
 0002:00003bc8       ??_C@_1M@JILFNBIM@?$AAk?$AAa?$AA?9?$AAg?$AAe?$AA?$AA@ 100e4bc8     libucrt:lcidtoname_downlevel.obj
 0002:00003bd4       ??_C@_1M@PACPMGPH@?$AAk?$AAk?$AA?9?$AAk?$AAz?$AA?$AA@ 100e4bd4     libucrt:lcidtoname_downlevel.obj
 0002:00003be0       ??_C@_1M@IELFGMHA@?$AAk?$AAn?$AA?9?$AAi?$AAn?$AA?$AA@ 100e4be0     libucrt:lcidtoname_downlevel.obj
 0002:00003bec       ??_C@_1O@IBBJHCH@?$AAk?$AAo?$AAk?$AA?9?$AAi?$AAn?$AA?$AA@ 100e4bec     libucrt:lcidtoname_downlevel.obj
 0002:00003bfc       ??_C@_1M@DMHAEOGC@?$AAk?$AAo?$AA?9?$AAk?$AAr?$AA?$AA@ 100e4bfc     libucrt:lcidtoname_downlevel.obj
 0002:00003c08       ??_C@_1M@HBAHBIGA@?$AAk?$AAy?$AA?9?$AAk?$AAg?$AA?$AA@ 100e4c08     libucrt:lcidtoname_downlevel.obj
 0002:00003c14       ??_C@_1M@KPMILCJG@?$AAl?$AAt?$AA?9?$AAl?$AAt?$AA?$AA@ 100e4c14     libucrt:lcidtoname_downlevel.obj
 0002:00003c20       ??_C@_1M@BDEKKCA@?$AAl?$AAv?$AA?9?$AAl?$AAv?$AA?$AA@ 100e4c20     libucrt:lcidtoname_downlevel.obj
 0002:00003c2c       ??_C@_1M@ELCKCCJJ@?$AAm?$AAi?$AA?9?$AAn?$AAz?$AA?$AA@ 100e4c2c     libucrt:lcidtoname_downlevel.obj
 0002:00003c38       ??_C@_1M@CBOOLAPA@?$AAm?$AAk?$AA?9?$AAm?$AAk?$AA?$AA@ 100e4c38     libucrt:lcidtoname_downlevel.obj
 0002:00003c44       ??_C@_1M@GPHNBJKN@?$AAm?$AAl?$AA?9?$AAi?$AAn?$AA?$AA@ 100e4c44     libucrt:lcidtoname_downlevel.obj
 0002:00003c50       ??_C@_1M@PABJILIG@?$AAm?$AAn?$AA?9?$AAm?$AAn?$AA?$AA@ 100e4c50     libucrt:lcidtoname_downlevel.obj
 0002:00003c5c       ??_C@_1M@FGBKKIPG@?$AAm?$AAr?$AA?9?$AAi?$AAn?$AA?$AA@ 100e4c5c     libucrt:lcidtoname_downlevel.obj
 0002:00003c68       ??_C@_1M@NDBPDDAL@?$AAm?$AAs?$AA?9?$AAb?$AAn?$AA?$AA@ 100e4c68     libucrt:lcidtoname_downlevel.obj
 0002:00003c74       ??_C@_1M@OPIHOOPI@?$AAm?$AAs?$AA?9?$AAm?$AAy?$AA?$AA@ 100e4c74     libucrt:lcidtoname_downlevel.obj
 0002:00003c80       ??_C@_1M@PPDBCNFM@?$AAm?$AAt?$AA?9?$AAm?$AAt?$AA?$AA@ 100e4c80     libucrt:lcidtoname_downlevel.obj
 0002:00003c8c       ??_C@_1M@KDJDKMDD@?$AAn?$AAb?$AA?9?$AAn?$AAo?$AA?$AA@ 100e4c8c     libucrt:lcidtoname_downlevel.obj
 0002:00003c98       ??_C@_1M@KFCFLMJP@?$AAn?$AAl?$AA?9?$AAb?$AAe?$AA?$AA@ 100e4c98     libucrt:lcidtoname_downlevel.obj
 0002:00003ca4       ??_C@_1M@KPOPDDGO@?$AAn?$AAl?$AA?9?$AAn?$AAl?$AA?$AA@ 100e4ca4     libucrt:lcidtoname_downlevel.obj
 0002:00003cb0       ??_C@_1M@LJKPEMLN@?$AAn?$AAn?$AA?9?$AAn?$AAo?$AA?$AA@ 100e4cb0     libucrt:lcidtoname_downlevel.obj
 0002:00003cbc       ??_C@_1M@BDGHHBFL@?$AAn?$AAs?$AA?9?$AAz?$AAa?$AA?$AA@ 100e4cbc     libucrt:lcidtoname_downlevel.obj
 0002:00003cc8       ??_C@_1M@IDEHOAP@?$AAp?$AAa?$AA?9?$AAi?$AAn?$AA?$AA@ 100e4cc8     libucrt:lcidtoname_downlevel.obj
 0002:00003cd4       ??_C@_1M@HDBKGOGH@?$AAp?$AAl?$AA?9?$AAp?$AAl?$AA?$AA@ 100e4cd4     libucrt:lcidtoname_downlevel.obj
 0002:00003ce0       ??_C@_1M@LJLLCMEH@?$AAp?$AAt?$AA?9?$AAb?$AAr?$AA?$AA@ 100e4ce0     libucrt:lcidtoname_downlevel.obj
 0002:00003cec       ??_C@_1M@NCMONAAL@?$AAp?$AAt?$AA?9?$AAp?$AAt?$AA?$AA@ 100e4cec     libucrt:lcidtoname_downlevel.obj
 0002:00003cf8       ??_C@_1O@EAKMAJDN@?$AAq?$AAu?$AAz?$AA?9?$AAb?$AAo?$AA?$AA@ 100e4cf8     libucrt:lcidtoname_downlevel.obj
 0002:00003d08       ??_C@_1O@BHHPIGDN@?$AAq?$AAu?$AAz?$AA?9?$AAe?$AAc?$AA?$AA@ 100e4d08     libucrt:lcidtoname_downlevel.obj
 0002:00003d18       ??_C@_1O@GBAPEKMJ@?$AAq?$AAu?$AAz?$AA?9?$AAp?$AAe?$AA?$AA@ 100e4d18     libucrt:lcidtoname_downlevel.obj
 0002:00003d28       ??_C@_1M@CLGLEFBO@?$AAr?$AAo?$AA?9?$AAr?$AAo?$AA?$AA@ 100e4d28     libucrt:lcidtoname_downlevel.obj
 0002:00003d34       ??_C@_1M@CEEDODME@?$AAr?$AAu?$AA?9?$AAr?$AAu?$AA?$AA@ 100e4d34     libucrt:lcidtoname_downlevel.obj
 0002:00003d40       ??_C@_1M@HPKKKMPP@?$AAs?$AAa?$AA?9?$AAi?$AAn?$AA?$AA@ 100e4d40     libucrt:lcidtoname_downlevel.obj
 0002:00003d4c       ??_C@_1M@BKMAIGOJ@?$AAs?$AAe?$AA?9?$AAf?$AAi?$AA?$AA@ 100e4d4c     libucrt:lcidtoname_downlevel.obj
 0002:00003d58       ??_C@_1M@NDPIFLFI@?$AAs?$AAe?$AA?9?$AAn?$AAo?$AA?$AA@ 100e4d58     libucrt:lcidtoname_downlevel.obj
 0002:00003d64       ??_C@_1M@DANKKHJ@?$AAs?$AAe?$AA?9?$AAs?$AAe?$AA?$AA@ 100e4d64     libucrt:lcidtoname_downlevel.obj
 0002:00003d70       ??_C@_1M@PNBLONPJ@?$AAs?$AAk?$AA?9?$AAs?$AAk?$AA?$AA@ 100e4d70     libucrt:lcidtoname_downlevel.obj
 0002:00003d7c       ??_C@_1M@LFMODOAL@?$AAs?$AAl?$AA?9?$AAs?$AAi?$AA?$AA@ 100e4d7c     libucrt:lcidtoname_downlevel.obj
 0002:00003d88       ??_C@_1O@DFKOMPG@?$AAs?$AAm?$AAa?$AA?9?$AAn?$AAo?$AA?$AA@ 100e4d88     libucrt:lcidtoname_downlevel.obj
 0002:00003d98       ??_C@_1O@NDKPBNNH@?$AAs?$AAm?$AAa?$AA?9?$AAs?$AAe?$AA?$AA@ 100e4d98     libucrt:lcidtoname_downlevel.obj
 0002:00003da8       ??_C@_1O@PLLKBHAB@?$AAs?$AAm?$AAj?$AA?9?$AAn?$AAo?$AA?$AA@ 100e4da8     libucrt:lcidtoname_downlevel.obj
 0002:00003db8       ??_C@_1O@CLEPOGCA@?$AAs?$AAm?$AAj?$AA?9?$AAs?$AAe?$AA?$AA@ 100e4db8     libucrt:lcidtoname_downlevel.obj
 0002:00003dc8       ??_C@_1O@DLGJGKMK@?$AAs?$AAm?$AAn?$AA?9?$AAf?$AAi?$AA?$AA@ 100e4dc8     libucrt:lcidtoname_downlevel.obj
 0002:00003dd8       ??_C@_1O@OJDJGAJC@?$AAs?$AAm?$AAs?$AA?9?$AAf?$AAi?$AA?$AA@ 100e4dd8     libucrt:lcidtoname_downlevel.obj
 0002:00003de8       ??_C@_1M@BOFOGHPB@?$AAs?$AAq?$AA?9?$AAa?$AAl?$AA?$AA@ 100e4de8     libucrt:lcidtoname_downlevel.obj
 0002:00003df4       ??_C@_1BG@LJBBIPGB@?$AAs?$AAr?$AA?9?$AAb?$AAa?$AA?9?$AAc?$AAy?$AAr?$AAl?$AA?$AA@ 100e4df4     libucrt:lcidtoname_downlevel.obj
 0002:00003e0c       ??_C@_1BG@JLBENFOE@?$AAs?$AAr?$AA?9?$AAb?$AAa?$AA?9?$AAl?$AAa?$AAt?$AAn?$AA?$AA@ 100e4e0c     libucrt:lcidtoname_downlevel.obj
 0002:00003e24       ??_C@_1BG@KODPNHE@?$AAs?$AAr?$AA?9?$AAs?$AAp?$AA?9?$AAc?$AAy?$AAr?$AAl?$AA?$AA@ 100e4e24     libucrt:lcidtoname_downlevel.obj
 0002:00003e3c       ??_C@_1BG@CIOGKHPB@?$AAs?$AAr?$AA?9?$AAs?$AAp?$AA?9?$AAl?$AAa?$AAt?$AAn?$AA?$AA@ 100e4e3c     libucrt:lcidtoname_downlevel.obj
 0002:00003e54       ??_C@_1M@NGFJLMAC@?$AAs?$AAv?$AA?9?$AAf?$AAi?$AA?$AA@ 100e4e54     libucrt:lcidtoname_downlevel.obj
 0002:00003e60       ??_C@_1M@MPJEJAJC@?$AAs?$AAv?$AA?9?$AAs?$AAe?$AA?$AA@ 100e4e60     libucrt:lcidtoname_downlevel.obj
 0002:00003e6c       ??_C@_1M@MPNDHLFK@?$AAs?$AAw?$AA?9?$AAk?$AAe?$AA?$AA@ 100e4e6c     libucrt:lcidtoname_downlevel.obj
 0002:00003e78       ??_C@_1O@KOHBJJI@?$AAs?$AAy?$AAr?$AA?9?$AAs?$AAy?$AA?$AA@ 100e4e78     libucrt:lcidtoname_downlevel.obj
 0002:00003e88       ??_C@_1M@LDCEFHA@?$AAt?$AAa?$AA?9?$AAi?$AAn?$AA?$AA@ 100e4e88     libucrt:lcidtoname_downlevel.obj
 0002:00003e94       ??_C@_1M@CNJOFAK@?$AAt?$AAe?$AA?9?$AAi?$AAn?$AA?$AA@ 100e4e94     libucrt:lcidtoname_downlevel.obj
 0002:00003ea0       ??_C@_1M@GNAECACD@?$AAt?$AAh?$AA?9?$AAt?$AAh?$AA?$AA@ 100e4ea0     libucrt:lcidtoname_downlevel.obj
 0002:00003eac       ??_C@_1M@CHBIHOJO@?$AAt?$AAn?$AA?9?$AAz?$AAa?$AA?$AA@ 100e4eac     libucrt:lcidtoname_downlevel.obj
 0002:00003eb8       ??_C@_1M@GCCMIGPJ@?$AAt?$AAr?$AA?9?$AAt?$AAr?$AA?$AA@ 100e4eb8     libucrt:lcidtoname_downlevel.obj
 0002:00003ec4       ??_C@_1M@CELMCNBK@?$AAt?$AAt?$AA?9?$AAr?$AAu?$AA?$AA@ 100e4ec4     libucrt:lcidtoname_downlevel.obj
 0002:00003ed0       ??_C@_1M@KLMCELGA@?$AAu?$AAk?$AA?9?$AAu?$AAa?$AA?$AA@ 100e4ed0     libucrt:lcidtoname_downlevel.obj
 0002:00003edc       ??_C@_1M@EPAJJAJF@?$AAu?$AAr?$AA?9?$AAp?$AAk?$AA?$AA@ 100e4edc     libucrt:lcidtoname_downlevel.obj
 0002:00003ee8       ??_C@_1BG@GEGPMCDJ@?$AAu?$AAz?$AA?9?$AAu?$AAz?$AA?9?$AAc?$AAy?$AAr?$AAl?$AA?$AA@ 100e4ee8     libucrt:lcidtoname_downlevel.obj
 0002:00003f00       ??_C@_1BG@EGGKJILM@?$AAu?$AAz?$AA?9?$AAu?$AAz?$AA?9?$AAl?$AAa?$AAt?$AAn?$AA?$AA@ 100e4f00     libucrt:lcidtoname_downlevel.obj
 0002:00003f18       ??_C@_1M@GFOCLFF@?$AAv?$AAi?$AA?9?$AAv?$AAn?$AA?$AA@ 100e4f18     libucrt:lcidtoname_downlevel.obj
 0002:00003f24       ??_C@_1M@CPAMEDFI@?$AAx?$AAh?$AA?9?$AAz?$AAa?$AA?$AA@ 100e4f24     libucrt:lcidtoname_downlevel.obj
 0002:00003f30       ??_C@_1O@EBKIFIGN@?$AAz?$AAh?$AA?9?$AAc?$AAh?$AAs?$AA?$AA@ 100e4f30     libucrt:lcidtoname_downlevel.obj
 0002:00003f40       ??_C@_1O@NMHPGANE@?$AAz?$AAh?$AA?9?$AAc?$AAh?$AAt?$AA?$AA@ 100e4f40     libucrt:lcidtoname_downlevel.obj
 0002:00003f50       ??_C@_1M@LPINJOMC@?$AAz?$AAh?$AA?9?$AAc?$AAn?$AA?$AA@ 100e4f50     libucrt:lcidtoname_downlevel.obj
 0002:00003f5c       ??_C@_1M@OCJEJODD@?$AAz?$AAh?$AA?9?$AAh?$AAk?$AA?$AA@ 100e4f5c     libucrt:lcidtoname_downlevel.obj
 0002:00003f68       ??_C@_1M@DNDLJINH@?$AAz?$AAh?$AA?9?$AAm?$AAo?$AA?$AA@ 100e4f68     libucrt:lcidtoname_downlevel.obj
 0002:00003f74       ??_C@_1M@MBFDNDND@?$AAz?$AAh?$AA?9?$AAs?$AAg?$AA?$AA@ 100e4f74     libucrt:lcidtoname_downlevel.obj
 0002:00003f80       ??_C@_1M@IMEPLEPE@?$AAz?$AAh?$AA?9?$AAt?$AAw?$AA?$AA@ 100e4f80     libucrt:lcidtoname_downlevel.obj
 0002:00003f8c       ??_C@_1M@BBGHNHJP@?$AAz?$AAu?$AA?9?$AAz?$AAa?$AA?$AA@ 100e4f8c     libucrt:lcidtoname_downlevel.obj
 0002:00004100       __infinity                 100e5100     libucrt:87tran.obj
 0002:0000410a       __minfinity                100e510a     libucrt:87tran.obj
 0002:00004114       __logemax                  100e5114     libucrt:87tran.obj
 0002:0000413a       __OP_EXPjmptab             100e513a     libucrt:87tran.obj
 0002:00004160       __indefinite               100e5160     libucrt:87disp.obj
 0002:0000416a       __piby2                    100e516a     libucrt:87disp.obj
 0002:00004174       __piby4                    100e5174     libucrt:87disp.obj
 0002:000041a8       __DEFAULT_CW_in_mem        100e51a8     libucrt:common.obj
 0002:000041aa       __pi_by_2_to_61            100e51aa     libucrt:common.obj
 0002:000041e4       ??_C@_05HGHHAHAP@log10?$AA@ 100e51e4     libucrt:libm_error.obj
 0002:000041ec       ??_C@_03KHJOGHMM@exp?$AA@  100e51ec     libucrt:libm_error.obj
 0002:000041f0       ??_C@_03JGHBODFD@pow?$AA@  100e51f0     libucrt:libm_error.obj
 0002:000041f4       ??_C@_04FIHNOPOL@asin?$AA@ 100e51f4     libucrt:libm_error.obj
 0002:000041fc       ??_C@_04PDIFKINK@acos?$AA@ 100e51fc     libucrt:libm_error.obj
 0002:00004204       ??_C@_04EIAKFFMI@sqrt?$AA@ 100e5204     libucrt:libm_error.obj
 0002:0000420c       ??_C@_1BA@BALFACEM@?$AAC?$AAO?$AAN?$AAO?$AAU?$AAT?$AA$?$AA?$AA@ 100e520c     libucrt:initcon.obj
 0002:00004240       ___acrt_log10_table_t      100e5240     libucrt:log10_tables.obj
 0002:00004650       ___acrt_log10_table_cb     100e5650     libucrt:log10_tables.obj
 0002:00004a60       ??_C@_04FJHINJAO@tanh?$AA@ 100e5a60     libucrt:fpexcept.obj
 0002:00004a68       ??_C@_04MLLJIGOK@atan?$AA@ 100e5a68     libucrt:fpexcept.obj
 0002:00004a70       ??_C@_05KNGEOGJB@atan2?$AA@ 100e5a70     libucrt:fpexcept.obj
 0002:00004a78       ??_C@_03BLEJJJBH@sin?$AA@  100e5a78     libucrt:fpexcept.obj
 0002:00004a7c       ??_C@_03LALBNOCG@cos?$AA@  100e5a7c     libucrt:fpexcept.obj
 0002:00004a80       ??_C@_03IIINPABG@tan?$AA@  100e5a80     libucrt:fpexcept.obj
 0002:00004a84       ??_C@_04GFPJNGEK@ceil?$AA@ 100e5a84     libucrt:fpexcept.obj
 0002:00004a8c       ??_C@_05PBJFFIGL@floor?$AA@ 100e5a8c     libucrt:fpexcept.obj
 0002:00004a94       ??_C@_04ODHECPBC@fabs?$AA@ 100e5a94     libucrt:fpexcept.obj
 0002:00004a9c       ??_C@_04EHEDPDJG@modf?$AA@ 100e5a9c     libucrt:fpexcept.obj
 0002:00004aa4       ??_C@_05CEJMAHNP@ldexp?$AA@ 100e5aa4     libucrt:fpexcept.obj
 0002:00004aac       ??_C@_05KBKMEMPO@_cabs?$AA@ 100e5aac     libucrt:fpexcept.obj
 0002:00004ab4       ??_C@_06MEIMCGCF@_hypot?$AA@ 100e5ab4     libucrt:fpexcept.obj
 0002:00004abc       ??_C@_04KEPJIHGP@fmod?$AA@ 100e5abc     libucrt:fpexcept.obj
 0002:00004ac4       ??_C@_05GKKHEGJL@frexp?$AA@ 100e5ac4     libucrt:fpexcept.obj
 0002:00004acc       ??_C@_03MJLDFKDL@_y0?$AA@  100e5acc     libucrt:fpexcept.obj
 0002:00004ad0       ??_C@_03NAKIGLHK@_y1?$AA@  100e5ad0     libucrt:fpexcept.obj
 0002:00004ad4       ??_C@_03ONILCKOB@_yn?$AA@  100e5ad4     libucrt:fpexcept.obj
 0002:00004ad8       ??_C@_05JGDBENOH@_logb?$AA@ 100e5ad8     libucrt:fpexcept.obj
 0002:00004ae0       ??_C@_0L@KDOEJCKC@_nextafter?$AA@ 100e5ae0     libucrt:fpexcept.obj
 0002:00004bd8       ??_C@_04COOMCNPB@sinh?$AA@ 100e5bd8     libucrt:fpexcept.obj
 0002:00004be0       ??_C@_04HPJJNFIM@cosh?$AA@ 100e5be0     libucrt:fpexcept.obj
 0002:00004be8       __d_inf                    100e5be8     libucrt:util.obj
 0002:00004bf0       __d_max                    100e5bf0     libucrt:util.obj
 0002:00004bf8       __d_mzero                  100e5bf8     libucrt:util.obj
 0002:00004c00       ??_C@_1BK@DBDEIDLH@?$AAK?$AAE?$AAR?$AAN?$AAE?$AAL?$AA3?$AA2?$AA?4?$AAD?$AAL?$AAL?$AA?$AA@ 100e5c00     DelayImp:delayhlp.obj
 0002:00004c1c       ??_C@_0BI@OMNLIJDB@AcquireSRWLockExclusive?$AA@ 100e5c1c     DelayImp:delayhlp.obj
 0002:00004c34       ??_C@_0BI@HMIEPCNJ@ReleaseSRWLockExclusive?$AA@ 100e5c34     DelayImp:delayhlp.obj
 0002:00004c4c       ___pfnDliFailureHook2      100e5c4c     DelayImp:delayhk1.obj
 0002:00004c50       __load_config_used         100e5c50     LIBCMT:loadcfg.obj
 0002:00004cac       ??_C@_00CNPNBAHC@?$AA@     100e5cac     better_sqlite3.obj
 0002:00004cb0       ??_C@_0BJ@MEJJILFH@?4?1src?1better_sqlite3?4lzz?$AA@ 100e5cb0     better_sqlite3.obj
 0002:00004ccc       ??_C@_0P@DEMBGIAO@better_sqlite3?$AA@ 100e5ccc     better_sqlite3.obj
 0002:00004cdc       ??_C@_07FFLLPPLH@require?$AA@ 100e5cdc     better_sqlite3.obj
 0002:00004ce4       ??_C@_0BG@EPIBODOC@UNKNOWN_SQLITE_ERROR_?$AA@ 100e5ce4     better_sqlite3.obj
 0002:00004cfc       ??_C@_08PBOCEOLL@database?$AA@ 100e5cfc     better_sqlite3.obj
 0002:00004d08       ??_C@_06CFOFDHM@reader?$AA@ 100e5d08     better_sqlite3.obj
 0002:00004d10       ??_C@_06OEKOLKIL@source?$AA@ 100e5d10     better_sqlite3.obj
 0002:00004d18       ??_C@_06HLKELJGF@memory?$AA@ 100e5d18     better_sqlite3.obj
 0002:00004d20       ??_C@_08JOKHDEJH@readonly?$AA@ 100e5d20     better_sqlite3.obj
 0002:00004d2c       ??_C@_04MEMAJGDJ@name?$AA@ 100e5d2c     better_sqlite3.obj
 0002:00004d34       ??_C@_04CJGEDOF@next?$AA@  100e5d34     better_sqlite3.obj
 0002:00004d3c       ??_C@_06IJDLPEM@length?$AA@ 100e5d3c     better_sqlite3.obj
 0002:00004d44       ??_C@_04GMOJEHPC@done?$AA@ 100e5d44     better_sqlite3.obj
 0002:00004d4c       ??_C@_05MFEJDJP@value?$AA@ 100e5d4c     better_sqlite3.obj
 0002:00004d54       ??_C@_07HFLFHMNL@changes?$AA@ 100e5d54     better_sqlite3.obj
 0002:00004d5c       ??_C@_0BA@CCEKNDNB@lastInsertRowid?$AA@ 100e5d5c     better_sqlite3.obj
 0002:00004d6c       ??_C@_04NDFOBODE@code?$AA@ 100e5d6c     better_sqlite3.obj
 0002:00004d74       ??_C@_09JEFLBPCK@statement?$AA@ 100e5d74     better_sqlite3.obj
 0002:00004d80       ??_C@_06JKDNBPMO@column?$AA@ 100e5d80     better_sqlite3.obj
 0002:00004d88       ??_C@_05LCLENNFI@table?$AA@ 100e5d88     better_sqlite3.obj
 0002:00004d90       ??_C@_04GPMDFGEJ@type?$AA@ 100e5d90     better_sqlite3.obj
 0002:00004d98       ??_C@_0L@EDFEJOLM@totalPages?$AA@ 100e5d98     better_sqlite3.obj
 0002:00004da4       ??_C@_0P@KPIEDNAL@remainingPages?$AA@ 100e5da4     better_sqlite3.obj
 0002:00004db4       ??_C@_09HIPHMGOA@SQLITE_OK?$AA@ 100e5db4     better_sqlite3.obj
 0002:00004dc0       ??_C@_0N@EJLPCDDI@SQLITE_ERROR?$AA@ 100e5dc0     better_sqlite3.obj
 0002:00004dd0       ??_C@_0BA@JGDLGEMB@SQLITE_INTERNAL?$AA@ 100e5dd0     better_sqlite3.obj
 0002:00004de0       ??_C@_0M@EPJFAGI@SQLITE_PERM?$AA@ 100e5de0     better_sqlite3.obj
 0002:00004dec       ??_C@_0N@FCBJOOEL@SQLITE_ABORT?$AA@ 100e5dec     better_sqlite3.obj
 0002:00004dfc       ??_C@_0M@GBKMHOHH@SQLITE_BUSY?$AA@ 100e5dfc     better_sqlite3.obj
 0002:00004e08       ??_C@_0O@FNAFEFLK@SQLITE_LOCKED?$AA@ 100e5e08     better_sqlite3.obj
 0002:00004e18       ??_C@_0N@HDLPEMEJ@SQLITE_NOMEM?$AA@ 100e5e18     better_sqlite3.obj
 0002:00004e28       ??_C@_0BA@LMGDOCID@SQLITE_READONLY?$AA@ 100e5e28     better_sqlite3.obj
 0002:00004e38       ??_C@_0BB@FNHFLBEN@SQLITE_INTERRUPT?$AA@ 100e5e38     better_sqlite3.obj
 0002:00004e4c       ??_C@_0N@HPDNOPHF@SQLITE_IOERR?$AA@ 100e5e4c     better_sqlite3.obj
 0002:00004e5c       ??_C@_0P@MCFCKNNF@SQLITE_CORRUPT?$AA@ 100e5e5c     better_sqlite3.obj
 0002:00004e6c       ??_C@_0BA@GEIJDFKA@SQLITE_NOTFOUND?$AA@ 100e5e6c     better_sqlite3.obj
 0002:00004e7c       ??_C@_0M@LEODNKOO@SQLITE_FULL?$AA@ 100e5e7c     better_sqlite3.obj
 0002:00004e88       ??_C@_0BA@MMJIFHIM@SQLITE_CANTOPEN?$AA@ 100e5e88     better_sqlite3.obj
 0002:00004e98       ??_C@_0BA@HAJLALGB@SQLITE_PROTOCOL?$AA@ 100e5e98     better_sqlite3.obj
 0002:00004ea8       ??_C@_0N@PCIBHOLK@SQLITE_EMPTY?$AA@ 100e5ea8     better_sqlite3.obj
 0002:00004eb8       ??_C@_0O@FPDKIKDJ@SQLITE_SCHEMA?$AA@ 100e5eb8     better_sqlite3.obj
 0002:00004ec8       ??_C@_0O@JDPLJPDP@SQLITE_TOOBIG?$AA@ 100e5ec8     better_sqlite3.obj
 0002:00004ed8       ??_C@_0BC@JCKACJPO@SQLITE_CONSTRAINT?$AA@ 100e5ed8     better_sqlite3.obj
 0002:00004eec       ??_C@_0BA@JHOKMLPE@SQLITE_MISMATCH?$AA@ 100e5eec     better_sqlite3.obj
 0002:00004efc       ??_C@_0O@PMLNPELO@SQLITE_MISUSE?$AA@ 100e5efc     better_sqlite3.obj
 0002:00004f0c       ??_C@_0N@BNAEKKKK@SQLITE_NOLFS?$AA@ 100e5f0c     better_sqlite3.obj
 0002:00004f1c       ??_C@_0M@HAJKDBDC@SQLITE_AUTH?$AA@ 100e5f1c     better_sqlite3.obj
 0002:00004f28       ??_C@_0O@MMFFEBJH@SQLITE_FORMAT?$AA@ 100e5f28     better_sqlite3.obj
 0002:00004f38       ??_C@_0N@GBHDMBEA@SQLITE_RANGE?$AA@ 100e5f38     better_sqlite3.obj
 0002:00004f48       ??_C@_0O@CAHPDCNE@SQLITE_NOTADB?$AA@ 100e5f48     better_sqlite3.obj
 0002:00004f58       ??_C@_0O@KPMFJKHJ@SQLITE_NOTICE?$AA@ 100e5f58     better_sqlite3.obj
 0002:00004f68       ??_C@_0P@KCBELEBF@SQLITE_WARNING?$AA@ 100e5f68     better_sqlite3.obj
 0002:00004f78       ??_C@_0L@PAPCPJLD@SQLITE_ROW?$AA@ 100e5f78     better_sqlite3.obj
 0002:00004f84       ??_C@_0M@CDMBFBFC@SQLITE_DONE?$AA@ 100e5f84     better_sqlite3.obj
 0002:00004f90       ??_C@_0BC@MNLGMOFL@SQLITE_IOERR_READ?$AA@ 100e5f90     better_sqlite3.obj
 0002:00004fa4       ??_C@_0BI@PGHCCDEB@SQLITE_IOERR_SHORT_READ?$AA@ 100e5fa4     better_sqlite3.obj
 0002:00004fbc       ??_C@_0BD@CKOFNEEM@SQLITE_IOERR_WRITE?$AA@ 100e5fbc     better_sqlite3.obj
 0002:00004fd0       ??_C@_0BD@MIPNPKHN@SQLITE_IOERR_FSYNC?$AA@ 100e5fd0     better_sqlite3.obj
 0002:00004fe4       ??_C@_0BH@IMFIBAEH@SQLITE_IOERR_DIR_FSYNC?$AA@ 100e5fe4     better_sqlite3.obj
 0002:00004ffc       ??_C@_0BG@DNFJHODE@SQLITE_IOERR_TRUNCATE?$AA@ 100e5ffc     better_sqlite3.obj
 0002:00005014       ??_C@_0BD@DEEIOBAL@SQLITE_IOERR_FSTAT?$AA@ 100e6014     better_sqlite3.obj
 0002:00005028       ??_C@_0BE@MEDDIODE@SQLITE_IOERR_UNLOCK?$AA@ 100e6028     better_sqlite3.obj
 0002:0000503c       ??_C@_0BE@KAAPJDNM@SQLITE_IOERR_RDLOCK?$AA@ 100e603c     better_sqlite3.obj
 0002:00005050       ??_C@_0BE@IHAKJBJC@SQLITE_IOERR_DELETE?$AA@ 100e6050     better_sqlite3.obj
 0002:00005064       ??_C@_0BF@NIMKPOGL@SQLITE_IOERR_BLOCKED?$AA@ 100e6064     better_sqlite3.obj
 0002:0000507c       ??_C@_0BD@MMBDAADE@SQLITE_IOERR_NOMEM?$AA@ 100e607c     better_sqlite3.obj
 0002:00005090       ??_C@_0BE@JIOMGJKL@SQLITE_IOERR_ACCESS?$AA@ 100e6090     better_sqlite3.obj
 0002:000050a4       ??_C@_0BP@NFLMJIBN@SQLITE_IOERR_CHECKRESERVEDLOCK?$AA@ 100e60a4     better_sqlite3.obj
 0002:000050c4       ??_C@_0BC@PJMHMPHN@SQLITE_IOERR_LOCK?$AA@ 100e60c4     better_sqlite3.obj
 0002:000050d8       ??_C@_0BD@ENFGPEHL@SQLITE_IOERR_CLOSE?$AA@ 100e60d8     better_sqlite3.obj
 0002:000050ec       ??_C@_0BH@JPDBOEB@SQLITE_IOERR_DIR_CLOSE?$AA@ 100e60ec     better_sqlite3.obj
 0002:00005104       ??_C@_0BF@GJFLJPND@SQLITE_IOERR_SHMOPEN?$AA@ 100e6104     better_sqlite3.obj
 0002:0000511c       ??_C@_0BF@BFNEMAMD@SQLITE_IOERR_SHMSIZE?$AA@ 100e611c     better_sqlite3.obj
 0002:00005134       ??_C@_0BF@FPHLCKDN@SQLITE_IOERR_SHMLOCK?$AA@ 100e6134     better_sqlite3.obj
 0002:0000514c       ??_C@_0BE@EMGBKGNM@SQLITE_IOERR_SHMMAP?$AA@ 100e614c     better_sqlite3.obj
 0002:00005160       ??_C@_0BC@HAEHFDPI@SQLITE_IOERR_SEEK?$AA@ 100e6160     better_sqlite3.obj
 0002:00005174       ??_C@_0BK@FHKPJMG@SQLITE_IOERR_DELETE_NOENT?$AA@ 100e6174     better_sqlite3.obj
 0002:00005190       ??_C@_0BC@MEBMDBLC@SQLITE_IOERR_MMAP?$AA@ 100e6190     better_sqlite3.obj
 0002:000051a4       ??_C@_0BJ@OIONPIOC@SQLITE_IOERR_GETTEMPPATH?$AA@ 100e61a4     better_sqlite3.obj
 0002:000051c0       ??_C@_0BG@KPEKOKL@SQLITE_IOERR_CONVPATH?$AA@ 100e61c0     better_sqlite3.obj
 0002:000051d8       ??_C@_0BD@HNOEIBMG@SQLITE_IOERR_VNODE?$AA@ 100e61d8     better_sqlite3.obj
 0002:000051ec       ??_C@_0BC@MLHFKAB@SQLITE_IOERR_AUTH?$AA@ 100e61ec     better_sqlite3.obj
 0002:00005200       ??_C@_0BK@DPPKPKAC@SQLITE_LOCKED_SHAREDCACHE?$AA@ 100e6200     better_sqlite3.obj
 0002:0000521c       ??_C@_0BF@IPEIGJBN@SQLITE_BUSY_RECOVERY?$AA@ 100e621c     better_sqlite3.obj
 0002:00005234       ??_C@_0BF@DLJMNJKM@SQLITE_BUSY_SNAPSHOT?$AA@ 100e6234     better_sqlite3.obj
 0002:0000524c       ??_C@_0BK@NIPGHKME@SQLITE_CANTOPEN_NOTEMPDIR?$AA@ 100e624c     better_sqlite3.obj
 0002:00005268       ??_C@_0BG@GCMJFAAF@SQLITE_CANTOPEN_ISDIR?$AA@ 100e6268     better_sqlite3.obj
 0002:00005280       ??_C@_0BJ@COEBNDBC@SQLITE_CANTOPEN_FULLPATH?$AA@ 100e6280     better_sqlite3.obj
 0002:0000529c       ??_C@_0BJ@LMHPILGK@SQLITE_CANTOPEN_CONVPATH?$AA@ 100e629c     better_sqlite3.obj
 0002:000052b8       ??_C@_0BE@NFBDKMCP@SQLITE_CORRUPT_VTAB?$AA@ 100e62b8     better_sqlite3.obj
 0002:000052cc       ??_C@_0BJ@KIIILKKG@SQLITE_READONLY_RECOVERY?$AA@ 100e62cc     better_sqlite3.obj
 0002:000052e8       ??_C@_0BJ@LPECKHCF@SQLITE_READONLY_CANTLOCK?$AA@ 100e62e8     better_sqlite3.obj
 0002:00005304       ??_C@_0BJ@DGIGLLKI@SQLITE_READONLY_ROLLBACK?$AA@ 100e6304     better_sqlite3.obj
 0002:00005320       ??_C@_0BI@KEDDMIHI@SQLITE_READONLY_DBMOVED?$AA@ 100e6320     better_sqlite3.obj
 0002:00005338       ??_C@_0BG@GGAPKCA@SQLITE_ABORT_ROLLBACK?$AA@ 100e6338     better_sqlite3.obj
 0002:00005350       ??_C@_0BI@KJPMLPML@SQLITE_CONSTRAINT_CHECK?$AA@ 100e6350     better_sqlite3.obj
 0002:00005368       ??_C@_0BN@JHHOPNFJ@SQLITE_CONSTRAINT_COMMITHOOK?$AA@ 100e6368     better_sqlite3.obj
 0002:00005388       ??_C@_0BN@LGLGCAMJ@SQLITE_CONSTRAINT_FOREIGNKEY?$AA@ 100e6388     better_sqlite3.obj
 0002:000053a8       ??_C@_0BL@PEBCPPJF@SQLITE_CONSTRAINT_FUNCTION?$AA@ 100e63a8     better_sqlite3.obj
 0002:000053c4       ??_C@_0BK@IIOCGDLF@SQLITE_CONSTRAINT_NOTNULL?$AA@ 100e63c4     better_sqlite3.obj
 0002:000053e0       ??_C@_0BN@GNOBHFNN@SQLITE_CONSTRAINT_PRIMARYKEY?$AA@ 100e63e0     better_sqlite3.obj
 0002:00005400       ??_C@_0BK@PAEIFLCI@SQLITE_CONSTRAINT_TRIGGER?$AA@ 100e6400     better_sqlite3.obj
 0002:0000541c       ??_C@_0BJ@HKBOOKEB@SQLITE_CONSTRAINT_UNIQUE?$AA@ 100e641c     better_sqlite3.obj
 0002:00005438       ??_C@_0BH@NMCGJLM@SQLITE_CONSTRAINT_VTAB?$AA@ 100e6438     better_sqlite3.obj
 0002:00005450       ??_C@_0BI@KDEJLEOI@SQLITE_CONSTRAINT_ROWID?$AA@ 100e6450     better_sqlite3.obj
 0002:00005468       ??_C@_0BK@POCPIPO@SQLITE_NOTICE_RECOVER_WAL?$AA@ 100e6468     better_sqlite3.obj
 0002:00005484       ??_C@_0BP@NOGFMEDJ@SQLITE_NOTICE_RECOVER_ROLLBACK?$AA@ 100e6484     better_sqlite3.obj
 0002:000054a4       ??_C@_0BJ@OCMPHFND@SQLITE_WARNING_AUTOINDEX?$AA@ 100e64a4     better_sqlite3.obj
 0002:000054c0       ??_C@_0BB@GGICBKNK@SQLITE_AUTH_USER?$AA@ 100e64c0     better_sqlite3.obj
 0002:000054d4       ??_C@_0BL@PLHIKOFE@SQLITE_OK_LOAD_PERMANENTLY?$AA@ 100e64d4     better_sqlite3.obj
 0002:000054f0       ??_C@_07LKHFMGFB@integer?$AA@ 100e64f0     better_sqlite3.obj
 0002:000054f8       ??_C@_0L@HFEMGONH@isInstance?$AA@ 100e64f8     better_sqlite3.obj
 0002:00005504       ??_C@_09IKDJFMEJ@prototype?$AA@ 100e6504     better_sqlite3.obj
 0002:00005510       ??_C@_08HDBDMMBI@Database?$AA@ 100e6510     better_sqlite3.obj
 0002:0000551c       ??_C@_07CAPELNJI@prepare?$AA@ 100e651c     better_sqlite3.obj
 0002:00005524       ??_C@_04MGEIEJAD@exec?$AA@ 100e6524     better_sqlite3.obj
 0002:0000552c       ??_C@_06PGFLMPLC@pragma?$AA@ 100e652c     better_sqlite3.obj
 0002:00005534       ??_C@_0L@BCLIOAO@checkpoint?$AA@ 100e6534     better_sqlite3.obj
 0002:00005540       ??_C@_06PCKCAPGA@backup?$AA@ 100e6540     better_sqlite3.obj
 0002:00005548       ??_C@_08HFFPPCHF@function?$AA@ 100e6548     better_sqlite3.obj
 0002:00005554       ??_C@_09EIIGLG@aggregate?$AA@ 100e6554     better_sqlite3.obj
 0002:00005560       ??_C@_0O@ECDOIFAD@loadExtension?$AA@ 100e6560     better_sqlite3.obj
 0002:00005570       ??_C@_05LBOHBHFK@close?$AA@ 100e6570     better_sqlite3.obj
 0002:00005578       ??_C@_0BE@IDNNIBIK@defaultSafeIntegers?$AA@ 100e6578     better_sqlite3.obj
 0002:0000558c       ??_C@_04PMOCAHAA@open?$AA@ 100e658c     better_sqlite3.obj
 0002:00005594       ??_C@_0O@LIJKAHOC@inTransaction?$AA@ 100e6594     better_sqlite3.obj
 0002:000055a4       ??_C@_0BE@IJDNMHGI@?4?4?1lib?1sqlite?9error?$AA@ 100e65a4     better_sqlite3.obj
 0002:000055b8       ??_C@_0CH@FLHIHPDO@Expected?5first?5argument?5to?5be?5a?5@ 100e65b8     better_sqlite3.obj
 0002:000055e0       ??_C@_0CI@LBGCBJHO@Expected?5second?5argument?5to?5be?5a@ 100e65e0     better_sqlite3.obj
 0002:00005608       ??_C@_0CI@FGKEHFMD@Expected?5third?5argument?5to?5be?5a?5@ 100e6608     better_sqlite3.obj
 0002:00005630       ??_C@_0CJ@JJOMPJOC@Expected?5fourth?5argument?5to?5be?5a@ 100e6630     better_sqlite3.obj
 0002:0000565c       ??_C@_0CI@GDLALFOH@Expected?5fifth?5argument?5to?5be?5a?5@ 100e665c     better_sqlite3.obj
 0002:00005684       ??_C@_0DG@IHHBIGGM@Expected?5sixth?5argument?5to?5be?5a?5@ 100e6684     better_sqlite3.obj
 0002:000056bc       ??_C@_0BM@NMCBLDEO@Expected?5a?5seventh?5argument?$AA@ 100e66bc     better_sqlite3.obj
 0002:000056d8       ??_C@_0CE@CEKEMCLO@The?5database?5connection?5is?5not?5o@ 100e66d8     better_sqlite3.obj
 0002:000056fc       ??_C@_0DD@IFBLDGGO@This?5database?5connection?5is?5busy@ 100e66fc     better_sqlite3.obj
 0002:00005730       ??_C@_0CI@ELKILPPK@Expected?5first?5argument?5to?5be?5a?5@ 100e6730     better_sqlite3.obj
 0002:00005758       ??_C@_0CF@BLBCJHGH@Invalid?5database?5name?5?$CIempty?5str@ 100e6758     better_sqlite3.obj
 0002:00005780       ??_C@_0BF@PHOFCHKM@PRAGMA?5database_list?$AA@ 100e6780     better_sqlite3.obj
 0002:00005798       ??_C@_0CJ@NIBNMMPA@Expected?5first?5argument?5to?5be?5a?5@ 100e6798     better_sqlite3.obj
 0002:000057c4       ??_C@_0DG@NHOACDEJ@Expected?5third?5argument?5to?5be?5a?5@ 100e67c4     better_sqlite3.obj
 0002:000057fc       ??_C@_0DH@LJGFDPLD@Expected?5fourth?5argument?5to?5be?5a@ 100e67fc     better_sqlite3.obj
 0002:00005834       ??_C@_0BK@HKLFICLE@Expected?5a?5first?5argument?$AA@ 100e6834     better_sqlite3.obj
 0002:00005850       ??_C@_0CK@IMLFKNIC@Expected?5second?5argument?5to?5be?5a@ 100e6850     better_sqlite3.obj
 0002:0000587c       ??_C@_0BK@GNMDNMMB@Expected?5a?5third?5argument?$AA@ 100e687c     better_sqlite3.obj
 0002:00005898       ??_C@_0BL@EIGFOLOK@Expected?5a?5fourth?5argument?$AA@ 100e6898     better_sqlite3.obj
 0002:000058b4       ??_C@_0CH@EBMKPMAG@Expected?5fifth?5argument?5to?5be?5a?5@ 100e68b4     better_sqlite3.obj
 0002:000058dc       ??_C@_0DI@INAGHJDF@Expected?5seventh?5argument?5to?5be?5@ 100e68dc     better_sqlite3.obj
 0002:00005914       ??_C@_0CJ@JAJFIDEG@Expected?5eighth?5argument?5to?5be?5a@ 100e6914     better_sqlite3.obj
 0002:00005940       ??_C@_09NLAGBMPK@Statement?$AA@ 100e6940     better_sqlite3.obj
 0002:0000594c       ??_C@_03LGMJKEGG@run?$AA@  100e694c     better_sqlite3.obj
 0002:00005950       ??_C@_03HNAFFKGA@get?$AA@  100e6950     better_sqlite3.obj
 0002:00005954       ??_C@_03NFKEKGGK@all?$AA@  100e6954     better_sqlite3.obj
 0002:00005958       ??_C@_07FOJNINHA@iterate?$AA@ 100e6958     better_sqlite3.obj
 0002:00005960       ??_C@_04NPNJNMMP@bind?$AA@ 100e6960     better_sqlite3.obj
 0002:00005968       ??_C@_05IJKEFOGK@pluck?$AA@ 100e6968     better_sqlite3.obj
 0002:00005970       ??_C@_06GFPMPEEP@expand?$AA@ 100e6970     better_sqlite3.obj
 0002:00005978       ??_C@_03DGOGAGNC@raw?$AA@  100e6978     better_sqlite3.obj
 0002:0000597c       ??_C@_0N@EICOENHM@safeIntegers?$AA@ 100e697c     better_sqlite3.obj
 0002:0000598c       ??_C@_07HIFEPIJN@columns?$AA@ 100e698c     better_sqlite3.obj
 0002:00005994       ??_C@_0DO@JCJPJLJD@Statements?5can?5only?5be?5construct@ 100e6994     better_sqlite3.obj
 0002:000059d4       ??_C@_0CI@LGDHGKDE@Expected?5first?5argument?5to?5be?5an@ 100e69d4     better_sqlite3.obj
 0002:000059fc       ??_C@_0CP@OCHEPGOD@The?5supplied?5SQL?5string?5contains@ 100e69fc     better_sqlite3.obj
 0002:00005a2c       ??_C@_0DJ@PEAPHBND@The?5supplied?5SQL?5string?5contains@ 100e6a2c     better_sqlite3.obj
 0002:00005a68       ??_C@_0EE@JGMEIJLO@This?5statement?5returns?5data?4?5Use@ 100e6a68     better_sqlite3.obj
 0002:00005aac       ??_C@_0CM@PAFOLJHD@This?5statement?5already?5has?5bound@ 100e6aac     better_sqlite3.obj
 0002:00005ad8       ??_C@_0DH@ECJGPOIH@This?5statement?5does?5not?5return?5d@ 100e6ad8     better_sqlite3.obj
 0002:00005b10       ??_C@_0CJ@GBMAJAPP@This?5statement?5is?5busy?5executing@ 100e6b10     better_sqlite3.obj
 0002:00005b3c       ??_C@_0CI@MKNCMGHB@Array?5overflow?5?$CItoo?5many?5rows?5re@ 100e6b3c     better_sqlite3.obj
 0002:00005b68       ??_C@_0EA@JKJGBOMO@The?5bind?$CI?$CJ?5method?5can?5only?5be?5in@ 100e6b68     better_sqlite3.obj
 0002:00005ba8       ??_C@_0DL@EOCEMHPC@The?5pluck?$CI?$CJ?5method?5is?5only?5for?5s@ 100e6ba8     better_sqlite3.obj
 0002:00005be4       ??_C@_0DM@ONFMBKJF@The?5expand?$CI?$CJ?5method?5is?5only?5for?5@ 100e6be4     better_sqlite3.obj
 0002:00005c20       ??_C@_0DJ@MECDJCHA@The?5raw?$CI?$CJ?5method?5is?5only?5for?5sta@ 100e6c20     better_sqlite3.obj
 0002:00005c5c       ??_C@_0DN@MIPLIPFK@The?5columns?$CI?$CJ?5method?5is?5only?5for@ 100e6c5c     better_sqlite3.obj
 0002:00005c9c       ??_C@_0BC@DNGLEIIM@StatementIterator?$AA@ 100e6c9c     better_sqlite3.obj
 0002:00005cb0       ??_C@_06LNOFJDNM@return?$AA@ 100e6cb0     better_sqlite3.obj
 0002:00005cb8       ??_C@_0BF@MEPJGGCA@Disabled?5constructor?$AA@ 100e6cb8     better_sqlite3.obj
 0002:00005cd0       ??_C@_0CD@HGDJADEA@Too?5many?5active?5database?5iterato@ 100e6cd0     better_sqlite3.obj
 0002:00005cf4       ??_C@_04GHJNJNPO@main?$AA@ 100e6cf4     better_sqlite3.obj
 0002:00005cfc       ??_C@_06DNBPDGPM@Backup?$AA@ 100e6cfc     better_sqlite3.obj
 0002:00005d04       ??_C@_08LGNJOGGB@transfer?$AA@ 100e6d04     better_sqlite3.obj
 0002:00005d10       ??_C@_0CH@OAKCCCCO@Expected?5third?5argument?5to?5be?5a?5@ 100e6d10     better_sqlite3.obj
 0002:00005d38       ??_C@_0DG@JFLAIOGK@Expected?5first?5argument?5to?5be?5a?5@ 100e6d38     better_sqlite3.obj
 0002:00005d70       ??_C@_0BN@FNMIDEKP@?$CI?$CJ?5returned?5an?5invalid?5value?$AA@ 100e6d70     better_sqlite3.obj
 0002:00005d90       ??_C@_0BH@FPDCGNAD@User?9defined?5function?5?$AA@ 100e6d90     better_sqlite3.obj
 0002:00005da8       ??_C@_01EPMOAMKG@$?$AA@    100e6da8     better_sqlite3.obj
 0002:00005dac       ??_C@_0BJ@EDLGGOJK@Missing?5named?5parameters?$AA@ 100e6dac     better_sqlite3.obj
 0002:00005dc8       ??_C@_0CH@LOPNPCIM@Too?5few?5parameter?5values?5were?5pr@ 100e6dc8     better_sqlite3.obj
 0002:00005df0       ??_C@_0CI@BGHFDICF@Too?5many?5parameter?5values?5were?5p@ 100e6df0     better_sqlite3.obj
 0002:00005e18       ??_C@_0DK@JKCJBJDJ@SQLite3?5can?5only?5bind?5numbers?0?5s@ 100e6e18     better_sqlite3.obj
 0002:00005e54       ??_C@_0CG@GFKFGPNO@The?5bound?5string?5or?5Buffer?5is?5to@ 100e6e54     better_sqlite3.obj
 0002:00005e7c       ??_C@_0O@NALGGDJF@Out?5of?5memory?$AA@ 100e6e7c     better_sqlite3.obj
 0002:00005e8c       ??_C@_0DM@KNJPDKIK@An?5unexpected?5error?5occured?5whil@ 100e6e8c     better_sqlite3.obj
 0002:00005ec8       ??_C@_01BJJEKLCA@?$CC?$AA@ 100e6ec8     better_sqlite3.obj
 0002:00005ecc       ??_C@_0BK@NJNBBKPN@Missing?5named?5parameter?5?$CC?$AA@ 100e6ecc     better_sqlite3.obj
 0002:00005ee8       ??_C@_0DN@OBNIBJIP@You?5cannot?5specify?5named?5paramet@ 100e6ee8     better_sqlite3.obj
 0002:00005f28       ??_C@_0BA@JFNIOLAK@string?5too?5long?$AA@ 100e6f28     better_sqlite3.obj
 0002:00005f38       ??_C@_0BI@CFPLBAOH@invalid?5string?5position?$AA@ 100e6f38     better_sqlite3.obj
 0002:00005f50       ??_C@_0BD@OLBABOEK@vector?$DMT?$DO?5too?5long?$AA@ 100e6f50     better_sqlite3.obj
 0002:00005f64       ??_C@_0BE@JONHPENG@map?1set?$DMT?$DO?5too?5long?$AA@ 100e6f64     better_sqlite3.obj
 0002:00005f78       ??_C@_0BB@MOGOBHAF@list?$DMT?$DO?5too?5long?$AA@ 100e6f78     better_sqlite3.obj
 0002:00005f8c       ??_7ObjectWrap@node@@6B@   100e6f8c     better_sqlite3.obj
 0002:00005f98       ??_7StatementIterator@@6B@ 100e6f98     better_sqlite3.obj
 0002:00005fa4       ??_7Statement@@6B@         100e6fa4     better_sqlite3.obj
 0002:00005fb0       ??_7Backup@@6B@            100e6fb0     better_sqlite3.obj
 0002:00005fbc       ??_7Database@@6B@          100e6fbc     better_sqlite3.obj
 0002:00005fcc       ___pfnDliNotifyHook2       100e6fcc     win_delay_load_hook.obj
 0002:00009030       _sqlite3_version           100ea030     sqlite3:sqlite3.obj
 0002:0000e394       ??_7CustomFunction@@6B@    100ef394     better_sqlite3.obj
 0002:0000e39c       ??_7CustomAggregate@@6B@   100ef39c     better_sqlite3.obj
 0002:0000e3a4       ??_C@_08JDDNMFDB@node?4exe?$AA@ 100ef3a4     win_delay_load_hook.obj
 0002:0000e3b0       ??_C@_0BD@CIAIDBEM@COMPILER?$DNmsvc?91900?$AA@ 100ef3b0     sqlite3:sqlite3.obj
 0002:0000e3c4       ??_C@_0BK@NLDNALBN@DEFAULT_CACHE_SIZE?$DN?916000?$AA@ 100ef3c4     sqlite3:sqlite3.obj
 0002:0000e3e0       ??_C@_0BF@EPEMDHCH@DEFAULT_FOREIGN_KEYS?$AA@ 100ef3e0     sqlite3:sqlite3.obj
 0002:0000e3f8       ??_C@_0BK@IJAJEONG@DEFAULT_WAL_SYNCHRONOUS?$DN1?$AA@ 100ef3f8     sqlite3:sqlite3.obj
 0002:0000e414       ??_C@_0BH@CMJLKIMD@ENABLE_COLUMN_METADATA?$AA@ 100ef414     sqlite3:sqlite3.obj
 0002:0000e42c       ??_C@_0M@LFFMHLBN@ENABLE_FTS3?$AA@ 100ef42c     sqlite3:sqlite3.obj
 0002:0000e438       ??_C@_0BI@GNDMOODM@ENABLE_FTS3_PARENTHESIS?$AA@ 100ef438     sqlite3:sqlite3.obj
 0002:0000e450       ??_C@_0M@PKBNONNK@ENABLE_FTS4?$AA@ 100ef450     sqlite3:sqlite3.obj
 0002:0000e45c       ??_C@_0M@ODAGNMJL@ENABLE_FTS5?$AA@ 100ef45c     sqlite3:sqlite3.obj
 0002:0000e468       ??_C@_0N@CGOKDIFP@ENABLE_JSON1?$AA@ 100ef468     sqlite3:sqlite3.obj
 0002:0000e478       ??_C@_0N@JODKLIOI@ENABLE_RTREE?$AA@ 100ef478     sqlite3:sqlite3.obj
 0002:0000e488       ??_C@_0N@DMAKBCMM@ENABLE_STAT4?$AA@ 100ef488     sqlite3:sqlite3.obj
 0002:0000e498       ??_C@_0BL@CADPHPEC@ENABLE_UPDATE_DELETE_LIMIT?$AA@ 100ef498     sqlite3:sqlite3.obj
 0002:0000e4b4       ??_C@_0BA@MKACKBEO@OMIT_DEPRECATED?$AA@ 100ef4b4     sqlite3:sqlite3.obj
 0002:0000e4c4       ??_C@_0P@HFLCEKDJ@OMIT_GET_TABLE?$AA@ 100ef4c4     sqlite3:sqlite3.obj
 0002:0000e4d4       ??_C@_0BH@OIAHFCBD@OMIT_PROGRESS_CALLBACK?$AA@ 100ef4d4     sqlite3:sqlite3.obj
 0002:0000e4ec       ??_C@_0BC@NPHADNFG@OMIT_TCL_VARIABLE?$AA@ 100ef4ec     sqlite3:sqlite3.obj
 0002:0000e500       ??_C@_07FIPCPJFC@SOUNDEX?$AA@ 100ef500     sqlite3:sqlite3.obj
 0002:0000e508       ??_C@_0N@GNBNDJPD@THREADSAFE?$DN0?$AA@ 100ef508     sqlite3:sqlite3.obj
 0002:0000e518       ??_C@_07MCKABMNJ@USE_URI?$AA@ 100ef518     sqlite3:sqlite3.obj
 0002:0000e520       ??_C@_01GBGANLPD@0?$AA@    100ef520     sqlite3:sqlite3.obj
 0002:0000e524       ??_C@_01HIHLOKLC@1?$AA@    100ef524     sqlite3:sqlite3.obj
 0002:0000e528       ??_C@_07DNDIJFOK@20b?320e?$AA@ 100ef528     sqlite3:sqlite3.obj
 0002:0000e530       ??_C@_07PGGEEGEP@20c?320e?$AA@ 100ef530     sqlite3:sqlite3.obj
 0002:0000e538       ??_C@_03LIHIGKLL@20e?$AA@  100ef538     sqlite3:sqlite3.obj
 0002:0000e53c       ??_C@_0M@FJDHLCLG@40f?921a?921d?$AA@ 100ef53c     sqlite3:sqlite3.obj
 0002:0000e548       ??_C@_03CGLHMDPP@now?$AA@  100ef548     sqlite3:sqlite3.obj
 0002:0000e54c       ??_C@_0BH@HEILFFIJ@local?5time?5unavailable?$AA@ 100ef54c     sqlite3:sqlite3.obj
 0002:0000e564       ??_C@_06BJCFNGJP@second?$AA@ 100ef564     sqlite3:sqlite3.obj
 0002:0000e56c       ??_C@_06JGJIJFNK@minute?$AA@ 100ef56c     sqlite3:sqlite3.obj
 0002:0000e574       ??_C@_04LMOJGCPE@hour?$AA@ 100ef574     sqlite3:sqlite3.obj
 0002:0000e57c       ??_C@_03NNBHCDBP@day?$AA@  100ef57c     sqlite3:sqlite3.obj
 0002:0000e580       ??_C@_05MEBAADFH@month?$AA@ 100ef580     sqlite3:sqlite3.obj
 0002:0000e588       ??_C@_04JFPLDHAO@year?$AA@ 100ef588     sqlite3:sqlite3.obj
 0002:0000e590       ??_C@_09EKBOCLDN@localtime?$AA@ 100ef590     sqlite3:sqlite3.obj
 0002:0000e59c       ??_C@_09KNIMKLBK@unixepoch?$AA@ 100ef59c     sqlite3:sqlite3.obj
 0002:0000e5a8       ??_C@_03JPHCIIKF@utc?$AA@  100ef5a8     sqlite3:sqlite3.obj
 0002:0000e5ac       ??_C@_08IPAOEBNP@weekday?5?$AA@ 100ef5ac     sqlite3:sqlite3.obj
 0002:0000e5b8       ??_C@_09CABLEOFK@start?5of?5?$AA@ 100ef5b8     sqlite3:sqlite3.obj
 0002:0000e5c4       ??_C@_0BO@NGNOHJIK@?$CF04d?9?$CF02d?9?$CF02d?5?$CF02d?3?$CF02d?3?$CF02d?$AA@ 100ef5c4     sqlite3:sqlite3.obj
 0002:0000e5e4       ??_C@_0P@PLMNPDMB@?$CF02d?3?$CF02d?3?$CF02d?$AA@ 100ef5e4     sqlite3:sqlite3.obj
 0002:0000e5f4       ??_C@_0P@MCDGMPHH@?$CF04d?9?$CF02d?9?$CF02d?$AA@ 100ef5f4     sqlite3:sqlite3.obj
 0002:0000e604       ??_C@_04OGKJMPGK@?$CF02d?$AA@ 100ef604     sqlite3:sqlite3.obj
 0002:0000e60c       ??_C@_06IAGKDDNE@?$CF06?43f?$AA@ 100ef60c     sqlite3:sqlite3.obj
 0002:0000e614       ??_C@_04OHGLKFFN@?$CF03d?$AA@ 100ef614     sqlite3:sqlite3.obj
 0002:0000e61c       ??_C@_05CFGAKADK@?$CF?416g?$AA@ 100ef61c     sqlite3:sqlite3.obj
 0002:0000e624       ??_C@_04BFAHMMK@?$CFlld?$AA@ 100ef624     sqlite3:sqlite3.obj
 0002:0000e62c       ??_C@_04OCCELDNI@?$CF04d?$AA@ 100ef62c     sqlite3:sqlite3.obj
 0002:0000e634       ??_C@_09BPOICPEH@julianday?$AA@ 100ef634     sqlite3:sqlite3.obj
 0002:0000e640       ??_C@_04JNIHBGGH@date?$AA@ 100ef640     sqlite3:sqlite3.obj
 0002:0000e648       ??_C@_04CLCEDBPF@time?$AA@ 100ef648     sqlite3:sqlite3.obj
 0002:0000e650       ??_C@_08FGNPMIBK@datetime?$AA@ 100ef650     sqlite3:sqlite3.obj
 0002:0000e65c       ??_C@_08EPGBJPHJ@strftime?$AA@ 100ef65c     sqlite3:sqlite3.obj
 0002:0000e668       ??_C@_0N@IPDKEGPB@current_time?$AA@ 100ef668     sqlite3:sqlite3.obj
 0002:0000e678       ??_C@_0BC@DDICBCEN@current_timestamp?$AA@ 100ef678     sqlite3:sqlite3.obj
 0002:0000e68c       ??_C@_0N@DJJJGBGD@current_date?$AA@ 100ef68c     sqlite3:sqlite3.obj
 0002:0000e69c       ??_C@_0CG@DAAPKCCM@failed?5to?5allocate?5?$CFu?5bytes?5of?5m@ 100ef69c     sqlite3:sqlite3.obj
 0002:0000e6c4       ??_C@_0CE@BFFKOBMD@failed?5memory?5resize?5?$CFu?5to?5?$CFu?5by@ 100ef6c4     sqlite3:sqlite3.obj
 0002:0000e6e8       ??_C@_01FGNFDNOH@?$CF?$AA@ 100ef6e8     sqlite3:sqlite3.obj
 0002:0000e6ec       ??_C@_03ICJPMMHB@NaN?$AA@  100ef6ec     sqlite3:sqlite3.obj
 0002:0000e6f0       ??_C@_04HIBGFPH@NULL?$AA@  100ef6f0     sqlite3:sqlite3.obj
 0002:0000e6f8       ??_C@_06LHGEHABH@?$CINULL?$CJ?$AA@ 100ef6f8     sqlite3:sqlite3.obj
 0002:0000e700       ??_C@_01LFCBOECM@?4?$AA@   100ef700     sqlite3:sqlite3.obj
 0002:0000e704       ??_C@_0BD@FKIFACO@922337203685477580?$AA@ 100ef704     sqlite3:sqlite3.obj
 0002:0000e718       ??_C@_0CN@EOKIBNLJ@API?5call?5with?5?$CFs?5database?5connec@ 100ef718     sqlite3:sqlite3.obj
 0002:0000e748       ??_C@_08NFNJDBOK@unopened?$AA@ 100ef748     sqlite3:sqlite3.obj
 0002:0000e754       ??_C@_07MALOAKCI@invalid?$AA@ 100ef754     sqlite3:sqlite3.obj
 0002:0000e75c       ??_C@_09OJILMLHM@Savepoint?$AA@ 100ef75c     sqlite3:sqlite3.obj
 0002:0000e768       ??_C@_0L@BPKAOEDK@AutoCommit?$AA@ 100ef768     sqlite3:sqlite3.obj
 0002:0000e774       ??_C@_0M@MEGKBOMN@Transaction?$AA@ 100ef774     sqlite3:sqlite3.obj
 0002:0000e780       ??_C@_0L@MGGJHFHJ@SorterNext?$AA@ 100ef780     sqlite3:sqlite3.obj
 0002:0000e78c       ??_C@_04PHIBHIIF@Prev?$AA@ 100ef78c     sqlite3:sqlite3.obj
 0002:0000e794       ??_C@_04MDFHGMOB@Next?$AA@ 100ef794     sqlite3:sqlite3.obj
 0002:0000e79c       ??_C@_0L@IHLHABNJ@Checkpoint?$AA@ 100ef79c     sqlite3:sqlite3.obj
 0002:0000e7a8       ??_C@_0M@FAIDBMDK@JournalMode?$AA@ 100ef7a8     sqlite3:sqlite3.obj
 0002:0000e7b4       ??_C@_06OBCEMCJB@Vacuum?$AA@ 100ef7b4     sqlite3:sqlite3.obj
 0002:0000e7bc       ??_C@_07OKDOHLDO@VFilter?$AA@ 100ef7bc     sqlite3:sqlite3.obj
 0002:0000e7c4       ??_C@_07NHABAPID@VUpdate?$AA@ 100ef7c4     sqlite3:sqlite3.obj
 0002:0000e7cc       ??_C@_04BNGNMAK@Goto?$AA@  100ef7cc     sqlite3:sqlite3.obj
 0002:0000e7d4       ??_C@_05DLHJCIPI@Gosub?$AA@ 100ef7d4     sqlite3:sqlite3.obj
 0002:0000e7dc       ??_C@_0O@OADCGMIE@InitCoroutine?$AA@ 100ef7dc     sqlite3:sqlite3.obj
 0002:0000e7ec       ??_C@_05LNDKIJIJ@Yield?$AA@ 100ef7ec     sqlite3:sqlite3.obj
 0002:0000e7f4       ??_C@_09LLJOBHN@MustBeInt?$AA@ 100ef7f4     sqlite3:sqlite3.obj
 0002:0000e800       ??_C@_04BIEPDJCB@Jump?$AA@ 100ef800     sqlite3:sqlite3.obj
 0002:0000e808       ??_C@_04GKJMKNNB@Once?$AA@ 100ef808     sqlite3:sqlite3.obj
 0002:0000e810       ??_C@_02EMFCFMID@If?$AA@   100ef810     sqlite3:sqlite3.obj
 0002:0000e814       ??_C@_03KNKIDPAC@Not?$AA@  100ef814     sqlite3:sqlite3.obj
 0002:0000e818       ??_C@_05DALJIPE@IfNot?$AA@ 100ef818     sqlite3:sqlite3.obj
 0002:0000e820       ??_C@_09LCOBJNPG@IfNullRow?$AA@ 100ef820     sqlite3:sqlite3.obj
 0002:0000e82c       ??_C@_06DCDFCJIJ@SeekLT?$AA@ 100ef82c     sqlite3:sqlite3.obj
 0002:0000e834       ??_C@_06GBOMAKJJ@SeekLE?$AA@ 100ef834     sqlite3:sqlite3.obj
 0002:0000e83c       ??_C@_06GNLJOFHI@SeekGE?$AA@ 100ef83c     sqlite3:sqlite3.obj
 0002:0000e844       ??_C@_06DOGAMGGI@SeekGT?$AA@ 100ef844     sqlite3:sqlite3.obj
 0002:0000e84c       ??_C@_08NHGIEHPF@IfNoHope?$AA@ 100ef84c     sqlite3:sqlite3.obj
 0002:0000e858       ??_C@_0L@MAHEJOGD@NoConflict?$AA@ 100ef858     sqlite3:sqlite3.obj
 0002:0000e864       ??_C@_08MDBAGECB@NotFound?$AA@ 100ef864     sqlite3:sqlite3.obj
 0002:0000e870       ??_C@_05JDGHEPJG@Found?$AA@ 100ef870     sqlite3:sqlite3.obj
 0002:0000e878       ??_C@_09KDEDFHKA@SeekRowid?$AA@ 100ef878     sqlite3:sqlite3.obj
 0002:0000e884       ??_C@_09HMMGFEAA@NotExists?$AA@ 100ef884     sqlite3:sqlite3.obj
 0002:0000e890       ??_C@_04DKKAEHDH@Last?$AA@ 100ef890     sqlite3:sqlite3.obj
 0002:0000e898       ??_C@_09NNOEIGHK@IfSmaller?$AA@ 100ef898     sqlite3:sqlite3.obj
 0002:0000e8a4       ??_C@_0L@DMDDEDPI@SorterSort?$AA@ 100ef8a4     sqlite3:sqlite3.obj
 0002:0000e8b0       ??_C@_04DJANFKGA@Sort?$AA@ 100ef8b0     sqlite3:sqlite3.obj
 0002:0000e8b8       ??_C@_06MAOEIKCJ@Rewind?$AA@ 100ef8b8     sqlite3:sqlite3.obj
 0002:0000e8c0       ??_C@_05FANNJDOC@IdxLE?$AA@ 100ef8c0     sqlite3:sqlite3.obj
 0002:0000e8c8       ??_C@_05PFBFPBD@IdxGT?$AA@ 100ef8c8     sqlite3:sqlite3.obj
 0002:0000e8d0       ??_C@_05DAELAPC@IdxLT?$AA@ 100ef8d0     sqlite3:sqlite3.obj
 0002:0000e8d8       ??_C@_05FMIIHMAD@IdxGE?$AA@ 100ef8d8     sqlite3:sqlite3.obj
 0002:0000e8e0       ??_C@_0L@JELPJHIJ@RowSetRead?$AA@ 100ef8e0     sqlite3:sqlite3.obj
 0002:0000e8ec       ??_C@_0L@EOJPAHGG@RowSetTest?$AA@ 100ef8ec     sqlite3:sqlite3.obj
 0002:0000e8f8       ??_C@_02GGHBPHGE@Or?$AA@   100ef8f8     sqlite3:sqlite3.obj
 0002:0000e8fc       ??_C@_03LOMLFHDC@And?$AA@  100ef8fc     sqlite3:sqlite3.obj
 0002:0000e900       ??_C@_07DOMMNIGK@Program?$AA@ 100ef900     sqlite3:sqlite3.obj
 0002:0000e908       ??_C@_08PNIKOKNB@FkIfZero?$AA@ 100ef908     sqlite3:sqlite3.obj
 0002:0000e914       ??_C@_05PMIMCOJP@IfPos?$AA@ 100ef914     sqlite3:sqlite3.obj
 0002:0000e91c       ??_C@_09ELLCPLME@IfNotZero?$AA@ 100ef91c     sqlite3:sqlite3.obj
 0002:0000e928       ??_C@_0N@IDMANBEA@DecrJumpZero?$AA@ 100ef928     sqlite3:sqlite3.obj
 0002:0000e938       ??_C@_06NBBMPCN@IsNull?$AA@ 100ef938     sqlite3:sqlite3.obj
 0002:0000e940       ??_C@_07HICACDPL@NotNull?$AA@ 100ef940     sqlite3:sqlite3.obj
 0002:0000e948       ??_C@_02GCDABJMF@Ne?$AA@   100ef948     sqlite3:sqlite3.obj
 0002:0000e94c       ??_C@_02EAMLCBHB@Eq?$AA@   100ef94c     sqlite3:sqlite3.obj
 0002:0000e950       ??_C@_02DODIABFK@Gt?$AA@   100ef950     sqlite3:sqlite3.obj
 0002:0000e954       ??_C@_02GBLEMNKL@Le?$AA@   100ef954     sqlite3:sqlite3.obj
 0002:0000e958       ??_C@_02DCGNOOLL@Lt?$AA@   100ef958     sqlite3:sqlite3.obj
 0002:0000e95c       ??_C@_02GNOBCCEK@Ge?$AA@   100ef95c     sqlite3:sqlite3.obj
 0002:0000e960       ??_C@_09KPPIGHDL@ElseNotEq?$AA@ 100ef960     sqlite3:sqlite3.obj
 0002:0000e96c       ??_C@_0L@POHPJECG@IncrVacuum?$AA@ 100ef96c     sqlite3:sqlite3.obj
 0002:0000e978       ??_C@_05GOGANBLF@VNext?$AA@ 100ef978     sqlite3:sqlite3.obj
 0002:0000e980       ??_C@_04LLJCPOLH@Init?$AA@ 100ef980     sqlite3:sqlite3.obj
 0002:0000e988       ??_C@_09IOLDCHIA@PureFunc0?$AA@ 100ef988     sqlite3:sqlite3.obj
 0002:0000e994       ??_C@_09LAABOPGC@Function0?$AA@ 100ef994     sqlite3:sqlite3.obj
 0002:0000e9a0       ??_C@_08CLBBEJDB@PureFunc?$AA@ 100ef9a0     sqlite3:sqlite3.obj
 0002:0000e9ac       ??_C@_08PHKOHANG@Function?$AA@ 100ef9ac     sqlite3:sqlite3.obj
 0002:0000e9b8       ??_C@_06HCFIKKEA@Return?$AA@ 100ef9b8     sqlite3:sqlite3.obj
 0002:0000e9c0       ??_C@_0N@FPMLICGC@EndCoroutine?$AA@ 100ef9c0     sqlite3:sqlite3.obj
 0002:0000e9d0       ??_C@_0L@GIACEIKJ@HaltIfNull?$AA@ 100ef9d0     sqlite3:sqlite3.obj
 0002:0000e9dc       ??_C@_04NIFKAFLK@Halt?$AA@ 100ef9dc     sqlite3:sqlite3.obj
 0002:0000e9e4       ??_C@_07EDADKEAH@Integer?$AA@ 100ef9e4     sqlite3:sqlite3.obj
 0002:0000e9ec       ??_C@_05DPPJJBMK@Int64?$AA@ 100ef9ec     sqlite3:sqlite3.obj
 0002:0000e9f4       ??_C@_06ENNEIMBA@String?$AA@ 100ef9f4     sqlite3:sqlite3.obj
 0002:0000e9fc       ??_C@_04KHKKIIL@Null?$AA@  100ef9fc     sqlite3:sqlite3.obj
 0002:0000ea04       ??_C@_08BAJALCJE@SoftNull?$AA@ 100efa04     sqlite3:sqlite3.obj
 0002:0000ea10       ??_C@_04HOFOMOEI@Blob?$AA@ 100efa10     sqlite3:sqlite3.obj
 0002:0000ea18       ??_C@_08DMMJCAML@Variable?$AA@ 100efa18     sqlite3:sqlite3.obj
 0002:0000ea24       ??_C@_04LCANPIEP@Move?$AA@ 100efa24     sqlite3:sqlite3.obj
 0002:0000ea2c       ??_C@_04OPMHGHMB@Copy?$AA@ 100efa2c     sqlite3:sqlite3.obj
 0002:0000ea34       ??_C@_05BCDNELCG@SCopy?$AA@ 100efa34     sqlite3:sqlite3.obj
 0002:0000ea3c       ??_C@_07DBCPOOBM@IntCopy?$AA@ 100efa3c     sqlite3:sqlite3.obj
 0002:0000ea44       ??_C@_09BKHKEBMD@ResultRow?$AA@ 100efa44     sqlite3:sqlite3.obj
 0002:0000ea50       ??_C@_07MCEFGNMJ@CollSeq?$AA@ 100efa50     sqlite3:sqlite3.obj
 0002:0000ea58       ??_C@_06JHIJIKD@AddImm?$AA@ 100efa58     sqlite3:sqlite3.obj
 0002:0000ea60       ??_C@_0N@KGPEGHPK@RealAffinity?$AA@ 100efa60     sqlite3:sqlite3.obj
 0002:0000ea70       ??_C@_04LIPANAOG@Cast?$AA@ 100efa70     sqlite3:sqlite3.obj
 0002:0000ea78       ??_C@_0M@LPEOJDB@Permutation?$AA@ 100efa78     sqlite3:sqlite3.obj
 0002:0000ea84       ??_C@_07MBOMJGGF@Compare?$AA@ 100efa84     sqlite3:sqlite3.obj
 0002:0000ea8c       ??_C@_06HIKDFLAB@IsTrue?$AA@ 100efa8c     sqlite3:sqlite3.obj
 0002:0000ea94       ??_C@_06GEMKPBPA@Offset?$AA@ 100efa94     sqlite3:sqlite3.obj
 0002:0000ea9c       ??_C@_06FFIACGFC@Column?$AA@ 100efa9c     sqlite3:sqlite3.obj
 0002:0000eaa4       ??_C@_08MMCPABPC@Affinity?$AA@ 100efaa4     sqlite3:sqlite3.obj
 0002:0000eab0       ??_C@_0L@PGPMFKDB@MakeRecord?$AA@ 100efab0     sqlite3:sqlite3.obj
 0002:0000eabc       ??_C@_05IJGIMMHE@Count?$AA@ 100efabc     sqlite3:sqlite3.obj
 0002:0000eac4       ??_C@_0L@LIFFPDNM@ReadCookie?$AA@ 100efac4     sqlite3:sqlite3.obj
 0002:0000ead0       ??_C@_09FEDANMPL@SetCookie?$AA@ 100efad0     sqlite3:sqlite3.obj
 0002:0000eadc       ??_C@_06PCNOCLJN@BitAnd?$AA@ 100efadc     sqlite3:sqlite3.obj
 0002:0000eae4       ??_C@_05BKBNAGEF@BitOr?$AA@ 100efae4     sqlite3:sqlite3.obj
 0002:0000eaec       ??_C@_09IIGOLNPP@ShiftLeft?$AA@ 100efaec     sqlite3:sqlite3.obj
 0002:0000eaf8       ??_C@_0L@DHHFIOFJ@ShiftRight?$AA@ 100efaf8     sqlite3:sqlite3.obj
 0002:0000eb04       ??_C@_03LDFMNCOE@Add?$AA@  100efb04     sqlite3:sqlite3.obj
 0002:0000eb08       ??_C@_08DLEJPBEP@Subtract?$AA@ 100efb08     sqlite3:sqlite3.obj
 0002:0000eb14       ??_C@_08EOBDLMOI@Multiply?$AA@ 100efb14     sqlite3:sqlite3.obj
 0002:0000eb20       ??_C@_06JKMEHOIB@Divide?$AA@ 100efb20     sqlite3:sqlite3.obj
 0002:0000eb28       ??_C@_09DPOHBCHJ@Remainder?$AA@ 100efb28     sqlite3:sqlite3.obj
 0002:0000eb34       ??_C@_06ODAFHOMO@Concat?$AA@ 100efb34     sqlite3:sqlite3.obj
 0002:0000eb3c       ??_C@_09GCNMLHFL@ReopenIdx?$AA@ 100efb3c     sqlite3:sqlite3.obj
 0002:0000eb48       ??_C@_06OBLNEDKN@BitNot?$AA@ 100efb48     sqlite3:sqlite3.obj
 0002:0000eb50       ??_C@_08FJFCCPFB@OpenRead?$AA@ 100efb50     sqlite3:sqlite3.obj
 0002:0000eb5c       ??_C@_09FPCAPNBB@OpenWrite?$AA@ 100efb5c     sqlite3:sqlite3.obj
 0002:0000eb68       ??_C@_07KGFHIBD@String8?$AA@ 100efb68     sqlite3:sqlite3.obj
 0002:0000eb70       ??_C@_07JBEAGLBO@OpenDup?$AA@ 100efb70     sqlite3:sqlite3.obj
 0002:0000eb78       ??_C@_0O@LLCBFLCA@OpenAutoindex?$AA@ 100efb78     sqlite3:sqlite3.obj
 0002:0000eb88       ??_C@_0O@MHKNMBPC@OpenEphemeral?$AA@ 100efb88     sqlite3:sqlite3.obj
 0002:0000eb98       ??_C@_0L@DIBNDBJM@SorterOpen?$AA@ 100efb98     sqlite3:sqlite3.obj
 0002:0000eba4       ??_C@_0N@DGILIAAH@SequenceTest?$AA@ 100efba4     sqlite3:sqlite3.obj
 0002:0000ebb4       ??_C@_0L@PKPPHKBP@OpenPseudo?$AA@ 100efbb4     sqlite3:sqlite3.obj
 0002:0000ebc0       ??_C@_05LGELBCGM@Close?$AA@ 100efbc0     sqlite3:sqlite3.obj
 0002:0000ebc8       ??_C@_0M@KKDBEJBG@ColumnsUsed?$AA@ 100efbc8     sqlite3:sqlite3.obj
 0002:0000ebd4       ??_C@_07HMNEFDML@SeekHit?$AA@ 100efbd4     sqlite3:sqlite3.obj
 0002:0000ebdc       ??_C@_08DOCONEG@Sequence?$AA@ 100efbdc     sqlite3:sqlite3.obj
 0002:0000ebe8       ??_C@_08FEDJPMPH@NewRowid?$AA@ 100efbe8     sqlite3:sqlite3.obj
 0002:0000ebf4       ??_C@_06CPFCODOD@Insert?$AA@ 100efbf4     sqlite3:sqlite3.obj
 0002:0000ebfc       ??_C@_06JBKGCNBB@Delete?$AA@ 100efbfc     sqlite3:sqlite3.obj
 0002:0000ec04       ??_C@_0L@NDDNCBN@ResetCount?$AA@ 100efc04     sqlite3:sqlite3.obj
 0002:0000ec10       ??_C@_0O@GIINMLJL@SorterCompare?$AA@ 100efc10     sqlite3:sqlite3.obj
 0002:0000ec20       ??_C@_0L@DNBEOFPP@SorterData?$AA@ 100efc20     sqlite3:sqlite3.obj
 0002:0000ec2c       ??_C@_07OHPACBNN@RowData?$AA@ 100efc2c     sqlite3:sqlite3.obj
 0002:0000ec34       ??_C@_05KEGGNBBF@Rowid?$AA@ 100efc34     sqlite3:sqlite3.obj
 0002:0000ec3c       ??_C@_07HJJPPOKN@NullRow?$AA@ 100efc3c     sqlite3:sqlite3.obj
 0002:0000ec44       ??_C@_07MBDDIPMC@SeekEnd?$AA@ 100efc44     sqlite3:sqlite3.obj
 0002:0000ec4c       ??_C@_0N@PCKBEOAP@SorterInsert?$AA@ 100efc4c     sqlite3:sqlite3.obj
 0002:0000ec5c       ??_C@_09ENCBCCAM@IdxInsert?$AA@ 100efc5c     sqlite3:sqlite3.obj
 0002:0000ec68       ??_C@_09PDNFOMPO@IdxDelete?$AA@ 100efc68     sqlite3:sqlite3.obj
 0002:0000ec74       ??_C@_0N@HDHEJACK@DeferredSeek?$AA@ 100efc74     sqlite3:sqlite3.obj
 0002:0000ec84       ??_C@_08KLKOBEJ@IdxRowid?$AA@ 100efc84     sqlite3:sqlite3.obj
 0002:0000ec90       ??_C@_07BDCAJABG@Destroy?$AA@ 100efc90     sqlite3:sqlite3.obj
 0002:0000ec98       ??_C@_05MDNHABIA@Clear?$AA@ 100efc98     sqlite3:sqlite3.obj
 0002:0000eca0       ??_C@_0M@IJLMHKBN@ResetSorter?$AA@ 100efca0     sqlite3:sqlite3.obj
 0002:0000ecac       ??_C@_0M@DBLJACAP@CreateBtree?$AA@ 100efcac     sqlite3:sqlite3.obj
 0002:0000ecb8       ??_C@_07EKAJKOOI@SqlExec?$AA@ 100efcb8     sqlite3:sqlite3.obj
 0002:0000ecc0       ??_C@_0M@IPJMJJPI@ParseSchema?$AA@ 100efcc0     sqlite3:sqlite3.obj
 0002:0000eccc       ??_C@_0N@FEAPPFEN@LoadAnalysis?$AA@ 100efccc     sqlite3:sqlite3.obj
 0002:0000ecdc       ??_C@_09ELPHDPAO@DropTable?$AA@ 100efcdc     sqlite3:sqlite3.obj
 0002:0000ece8       ??_C@_09KDDJLBNF@DropIndex?$AA@ 100efce8     sqlite3:sqlite3.obj
 0002:0000ecf4       ??_C@_04PHKLBGME@Real?$AA@ 100efcf4     sqlite3:sqlite3.obj
 0002:0000ecfc       ??_C@_0M@JKNINGPB@DropTrigger?$AA@ 100efcfc     sqlite3:sqlite3.obj
 0002:0000ed08       ??_C@_0M@KCIGPGBI@IntegrityCk?$AA@ 100efd08     sqlite3:sqlite3.obj
 0002:0000ed14       ??_C@_09KPGKMOML@RowSetAdd?$AA@ 100efd14     sqlite3:sqlite3.obj
 0002:0000ed20       ??_C@_05LOJBNELM@Param?$AA@ 100efd20     sqlite3:sqlite3.obj
 0002:0000ed28       ??_C@_09EBKOHGDP@FkCounter?$AA@ 100efd28     sqlite3:sqlite3.obj
 0002:0000ed34       ??_C@_06LJFJMLCE@MemMax?$AA@ 100efd34     sqlite3:sqlite3.obj
 0002:0000ed3c       ??_C@_0M@MCOGCAAC@OffsetLimit?$AA@ 100efd3c     sqlite3:sqlite3.obj
 0002:0000ed48       ??_C@_0L@GGHOKCDL@AggInverse?$AA@ 100efd48     sqlite3:sqlite3.obj
 0002:0000ed54       ??_C@_07NOMHFNIB@AggStep?$AA@ 100efd54     sqlite3:sqlite3.obj
 0002:0000ed5c       ??_C@_08FMDMHDFJ@AggStep1?$AA@ 100efd5c     sqlite3:sqlite3.obj
 0002:0000ed68       ??_C@_08BOFOPCJ@AggValue?$AA@ 100efd68     sqlite3:sqlite3.obj
 0002:0000ed74       ??_C@_08FCKHNOBN@AggFinal?$AA@ 100efd74     sqlite3:sqlite3.obj
 0002:0000ed80       ??_C@_06GDNCIOGJ@Expire?$AA@ 100efd80     sqlite3:sqlite3.obj
 0002:0000ed88       ??_C@_09FDKNKOOK@TableLock?$AA@ 100efd88     sqlite3:sqlite3.obj
 0002:0000ed94       ??_C@_06CLFNNGGK@VBegin?$AA@ 100efd94     sqlite3:sqlite3.obj
 0002:0000ed9c       ??_C@_07KDKHCOMM@VCreate?$AA@ 100efd9c     sqlite3:sqlite3.obj
 0002:0000eda4       ??_C@_08JBEDGDCN@VDestroy?$AA@ 100efda4     sqlite3:sqlite3.obj
 0002:0000edb0       ??_C@_05JABEJFFA@VOpen?$AA@ 100efdb0     sqlite3:sqlite3.obj
 0002:0000edb8       ??_C@_07DOIHNMAE@VColumn?$AA@ 100efdb8     sqlite3:sqlite3.obj
 0002:0000edc0       ??_C@_07BIPKCCHL@VRename?$AA@ 100efdc0     sqlite3:sqlite3.obj
 0002:0000edc8       ??_C@_09CNCANJNI@Pagecount?$AA@ 100efdc8     sqlite3:sqlite3.obj
 0002:0000edd4       ??_C@_08PCPIJAPH@MaxPgcnt?$AA@ 100efdd4     sqlite3:sqlite3.obj
 0002:0000ede0       ??_C@_05ILLBNNOP@Trace?$AA@ 100efde0     sqlite3:sqlite3.obj
 0002:0000ede8       ??_C@_0L@CLJLGDBO@CursorHint?$AA@ 100efde8     sqlite3:sqlite3.obj
 0002:0000edf4       ??_C@_04NBOPPMHE@Noop?$AA@ 100efdf4     sqlite3:sqlite3.obj
 0002:0000edfc       ??_C@_07EMCFMDDO@Explain?$AA@ 100efdfc     sqlite3:sqlite3.obj
 0002:0000ee04       ??_C@_09JBCNKCCE@Abortable?$AA@ 100efe04     sqlite3:sqlite3.obj
 0002:0000ee10       ??_C@_0BA@FHFNEAED@AreFileApisANSI?$AA@ 100efe10     sqlite3:sqlite3.obj
 0002:0000ee20       ??_C@_0L@CDADJILC@CharLowerW?$AA@ 100efe20     sqlite3:sqlite3.obj
 0002:0000ee2c       ??_C@_0L@JBOFCNPB@CharUpperW?$AA@ 100efe2c     sqlite3:sqlite3.obj
 0002:0000ee38       ??_C@_0M@JHJNLFGC@CloseHandle?$AA@ 100efe38     sqlite3:sqlite3.obj
 0002:0000ee44       ??_C@_0M@HDHGNCCA@CreateFileA?$AA@ 100efe44     sqlite3:sqlite3.obj
 0002:0000ee50       ??_C@_0M@GPOOGHPH@CreateFileW?$AA@ 100efe50     sqlite3:sqlite3.obj
 0002:0000ee5c       ??_C@_0BD@GJENCGJD@CreateFileMappingA?$AA@ 100efe5c     sqlite3:sqlite3.obj
 0002:0000ee70       ??_C@_0BD@HFNFJDEE@CreateFileMappingW?$AA@ 100efe70     sqlite3:sqlite3.obj
 0002:0000ee84       ??_C@_0N@MDNOAJMP@CreateMutexW?$AA@ 100efe84     sqlite3:sqlite3.obj
 0002:0000ee94       ??_C@_0M@CBNKJACB@DeleteFileA?$AA@ 100efe94     sqlite3:sqlite3.obj
 0002:0000eea0       ??_C@_0M@DNECCFPG@DeleteFileW?$AA@ 100efea0     sqlite3:sqlite3.obj
 0002:0000eeac       ??_C@_0BI@EKFDIGHI@FileTimeToLocalFileTime?$AA@ 100efeac     sqlite3:sqlite3.obj
 0002:0000eec4       ??_C@_0BF@KPJNHALE@FileTimeToSystemTime?$AA@ 100efec4     sqlite3:sqlite3.obj
 0002:0000eedc       ??_C@_0BB@MOGECGEP@FlushFileBuffers?$AA@ 100efedc     sqlite3:sqlite3.obj
 0002:0000eef0       ??_C@_0P@FKPELJOF@FormatMessageA?$AA@ 100efef0     sqlite3:sqlite3.obj
 0002:0000ef00       ??_C@_0P@EGGMAMDC@FormatMessageW?$AA@ 100eff00     sqlite3:sqlite3.obj
 0002:0000ef10       ??_C@_0M@FACAOGOA@FreeLibrary?$AA@ 100eff10     sqlite3:sqlite3.obj
 0002:0000ef1c       ??_C@_0BE@BEODBHKD@GetCurrentProcessId?$AA@ 100eff1c     sqlite3:sqlite3.obj
 0002:0000ef30       ??_C@_0BC@CLHNLNI@GetDiskFreeSpaceA?$AA@ 100eff30     sqlite3:sqlite3.obj
 0002:0000ef44       ??_C@_0BC@BOCPGOAP@GetDiskFreeSpaceW?$AA@ 100eff44     sqlite3:sqlite3.obj
 0002:0000ef58       ??_C@_0BD@DJMMCMCB@GetFileAttributesA?$AA@ 100eff58     sqlite3:sqlite3.obj
 0002:0000ef6c       ??_C@_0BD@CFFEJJPG@GetFileAttributesW?$AA@ 100eff6c     sqlite3:sqlite3.obj
 0002:0000ef80       ??_C@_0BF@JODNCFOA@GetFileAttributesExW?$AA@ 100eff80     sqlite3:sqlite3.obj
 0002:0000ef98       ??_C@_0M@BAICHOOE@GetFileSize?$AA@ 100eff98     sqlite3:sqlite3.obj
 0002:0000efa4       ??_C@_0BB@HALHENPC@GetFullPathNameA?$AA@ 100effa4     sqlite3:sqlite3.obj
 0002:0000efb8       ??_C@_0BB@GMCPPICF@GetFullPathNameW?$AA@ 100effb8     sqlite3:sqlite3.obj
 0002:0000efcc       ??_C@_0N@HICKNDGL@GetLastError?$AA@ 100effcc     sqlite3:sqlite3.obj
 0002:0000efdc       ??_C@_0BA@EJGIKKLP@GetProcAddressA?$AA@ 100effdc     sqlite3:sqlite3.obj
 0002:0000efec       ??_C@_0O@HJFFHIPG@GetSystemInfo?$AA@ 100effec     sqlite3:sqlite3.obj
 0002:0000effc       ??_C@_0O@IKEIBEBH@GetSystemTime?$AA@ 100efffc     sqlite3:sqlite3.obj
 0002:0000f00c       ??_C@_0BI@ENMDHCMK@GetSystemTimeAsFileTime?$AA@ 100f000c     sqlite3:sqlite3.obj
 0002:0000f024       ??_C@_0N@CMNFBGGC@GetTempPathA?$AA@ 100f0024     sqlite3:sqlite3.obj
 0002:0000f034       ??_C@_0N@DAENKDLF@GetTempPathW?$AA@ 100f0034     sqlite3:sqlite3.obj
 0002:0000f044       ??_C@_0N@JOMACIEF@GetTickCount?$AA@ 100f0044     sqlite3:sqlite3.obj
 0002:0000f054       ??_C@_0O@LLCLDPIK@GetVersionExA?$AA@ 100f0054     sqlite3:sqlite3.obj
 0002:0000f064       ??_C@_0O@KHLDIKFN@GetVersionExW?$AA@ 100f0064     sqlite3:sqlite3.obj
 0002:0000f074       ??_C@_09JDKINLHP@HeapAlloc?$AA@ 100f0074     sqlite3:sqlite3.obj
 0002:0000f080       ??_C@_0L@ICEGIJOB@HeapCreate?$AA@ 100f0080     sqlite3:sqlite3.obj
 0002:0000f08c       ??_C@_0M@NELNNOPP@HeapDestroy?$AA@ 100f008c     sqlite3:sqlite3.obj
 0002:0000f098       ??_C@_08ICEHPNNG@HeapFree?$AA@ 100f0098     sqlite3:sqlite3.obj
 0002:0000f0a4       ??_C@_0M@HHKAEGMB@HeapReAlloc?$AA@ 100f00a4     sqlite3:sqlite3.obj
 0002:0000f0b0       ??_C@_08LKCFNBPH@HeapSize?$AA@ 100f00b0     sqlite3:sqlite3.obj
 0002:0000f0bc       ??_C@_0N@BKFJNCJM@HeapValidate?$AA@ 100f00bc     sqlite3:sqlite3.obj
 0002:0000f0cc       ??_C@_0M@EIEMDCNL@HeapCompact?$AA@ 100f00cc     sqlite3:sqlite3.obj
 0002:0000f0d8       ??_C@_0N@LOMLCOFC@LoadLibraryA?$AA@ 100f00d8     sqlite3:sqlite3.obj
 0002:0000f0e8       ??_C@_0N@KCFDJLIF@LoadLibraryW?$AA@ 100f00e8     sqlite3:sqlite3.obj
 0002:0000f0f8       ??_C@_09FHKJECCN@LocalFree?$AA@ 100f00f8     sqlite3:sqlite3.obj
 0002:0000f104       ??_C@_08DICMLIHC@LockFile?$AA@ 100f0104     sqlite3:sqlite3.obj
 0002:0000f110       ??_C@_0L@EJAEKEDD@LockFileEx?$AA@ 100f0110     sqlite3:sqlite3.obj
 0002:0000f11c       ??_C@_0O@IGIELGBD@MapViewOfFile?$AA@ 100f011c     sqlite3:sqlite3.obj
 0002:0000f12c       ??_C@_0BE@HCIKGJGE@MultiByteToWideChar?$AA@ 100f012c     sqlite3:sqlite3.obj
 0002:0000f140       ??_C@_0BI@LFICGGHO@QueryPerformanceCounter?$AA@ 100f0140     sqlite3:sqlite3.obj
 0002:0000f158       ??_C@_08KLCHJOKF@ReadFile?$AA@ 100f0158     sqlite3:sqlite3.obj
 0002:0000f164       ??_C@_0N@KGGGLBCJ@SetEndOfFile?$AA@ 100f0164     sqlite3:sqlite3.obj
 0002:0000f174       ??_C@_0P@HKHKGCLN@SetFilePointer?$AA@ 100f0174     sqlite3:sqlite3.obj
 0002:0000f184       ??_C@_05PFDOMJEF@Sleep?$AA@ 100f0184     sqlite3:sqlite3.obj
 0002:0000f18c       ??_C@_0BF@HBHGIPOG@SystemTimeToFileTime?$AA@ 100f018c     sqlite3:sqlite3.obj
 0002:0000f1a4       ??_C@_0L@PBJENKDG@UnlockFile?$AA@ 100f01a4     sqlite3:sqlite3.obj
 0002:0000f1b0       ??_C@_0N@HOKNOHPO@UnlockFileEx?$AA@ 100f01b0     sqlite3:sqlite3.obj
 0002:0000f1c0       ??_C@_0BA@GLKNLELN@UnmapViewOfFile?$AA@ 100f01c0     sqlite3:sqlite3.obj
 0002:0000f1d0       ??_C@_0BE@LJADKLBD@WideCharToMultiByte?$AA@ 100f01d0     sqlite3:sqlite3.obj
 0002:0000f1e4       ??_C@_09NOIIIIGM@WriteFile?$AA@ 100f01e4     sqlite3:sqlite3.obj
 0002:0000f1f0       ??_C@_0P@DLHPPCNH@CreateEventExW?$AA@ 100f01f0     sqlite3:sqlite3.obj
 0002:0000f200       ??_C@_0BE@CLKLPNNG@WaitForSingleObject?$AA@ 100f0200     sqlite3:sqlite3.obj
 0002:0000f214       ??_C@_0BG@IFNJHLEG@WaitForSingleObjectEx?$AA@ 100f0214     sqlite3:sqlite3.obj
 0002:0000f22c       ??_C@_0BB@GDGABGCO@SetFilePointerEx?$AA@ 100f022c     sqlite3:sqlite3.obj
 0002:0000f240       ??_C@_0BN@NEEHBBPO@GetFileInformationByHandleEx?$AA@ 100f0240     sqlite3:sqlite3.obj
 0002:0000f260       ??_C@_0BF@ECJCKDGL@MapViewOfFileFromApp?$AA@ 100f0260     sqlite3:sqlite3.obj
 0002:0000f278       ??_C@_0M@HHGEPIBF@CreateFile2?$AA@ 100f0278     sqlite3:sqlite3.obj
 0002:0000f284       ??_C@_0BE@GMOAPDKA@LoadPackagedLibrary?$AA@ 100f0284     sqlite3:sqlite3.obj
 0002:0000f298       ??_C@_0P@CDHHOHKP@GetTickCount64?$AA@ 100f0298     sqlite3:sqlite3.obj
 0002:0000f2a8       ??_C@_0BE@HLKFLAJF@GetNativeSystemInfo?$AA@ 100f02a8     sqlite3:sqlite3.obj
 0002:0000f2bc       ??_C@_0BD@ILGKEMFC@OutputDebugStringA?$AA@ 100f02bc     sqlite3:sqlite3.obj
 0002:0000f2d0       ??_C@_0BD@JHPCPJIF@OutputDebugStringW?$AA@ 100f02d0     sqlite3:sqlite3.obj
 0002:0000f2e4       ??_C@_0P@BOLOPLNF@GetProcessHeap?$AA@ 100f02e4     sqlite3:sqlite3.obj
 0002:0000f2f4       ??_C@_0BJ@EKFPCGJA@CreateFileMappingFromApp?$AA@ 100f02f4     sqlite3:sqlite3.obj
 0002:0000f310       ??_C@_0BL@FOMKKFPM@InterlockedCompareExchange?$AA@ 100f0310     sqlite3:sqlite3.obj
 0002:0000f32c       ??_C@_0L@IDKDBMAM@UuidCreate?$AA@ 100f032c     sqlite3:sqlite3.obj
 0002:0000f338       ??_C@_0BF@DJFPALMK@UuidCreateSequential?$AA@ 100f0338     sqlite3:sqlite3.obj
 0002:0000f350       ??_C@_0BA@IHGACFIJ@FlushViewOfFile?$AA@ 100f0350     sqlite3:sqlite3.obj
 0002:0000f360       ??_C@_02DKCKIIND@?$CFs?$AA@ 100f0360     sqlite3:sqlite3.obj
 0002:0000f364       ??_C@_0BE@MJECGBL@OsError?50x?$CFlx?5?$CI?$CFlu?$CJ?$AA@ 100f0364     sqlite3:sqlite3.obj
 0002:0000f378       ??_C@_0BP@JDJJJHMH@os_win?4c?3?$CFd?3?5?$CI?$CFlu?$CJ?5?$CFs?$CI?$CFs?$CJ?5?9?5?$CFs?$AA@ 100f0378     sqlite3:sqlite3.obj
 0002:0000f398       ??_C@_0DC@FIDAINO@delayed?5?$CFdms?5for?5lock?1sharing?5co@ 100f0398     sqlite3:sqlite3.obj
 0002:0000f3cc       ??_C@_0M@JAPMDKOE@winSeekFile?$AA@ 100f03cc     sqlite3:sqlite3.obj
 0002:0000f3d8       ??_C@_08GBGPIFFF@winClose?$AA@ 100f03d8     sqlite3:sqlite3.obj
 0002:0000f3e4       ??_C@_07BGDHELCN@winRead?$AA@ 100f03e4     sqlite3:sqlite3.obj
 0002:0000f3ec       ??_C@_09GFOHNLGD@winWrite1?$AA@ 100f03ec     sqlite3:sqlite3.obj
 0002:0000f3f8       ??_C@_09EOMKIIKA@winWrite2?$AA@ 100f03f8     sqlite3:sqlite3.obj
 0002:0000f404       ??_C@_0N@JHOIFHJA@winTruncate1?$AA@ 100f0404     sqlite3:sqlite3.obj
 0002:0000f414       ??_C@_0N@LMMFAEFD@winTruncate2?$AA@ 100f0414     sqlite3:sqlite3.obj
 0002:0000f424       ??_C@_08LAPEMDHJ@winSync1?$AA@ 100f0424     sqlite3:sqlite3.obj
 0002:0000f430       ??_C@_08JLNJJALK@winSync2?$AA@ 100f0430     sqlite3:sqlite3.obj
 0002:0000f43c       ??_C@_0M@DODNMLAG@winFileSize?$AA@ 100f043c     sqlite3:sqlite3.obj
 0002:0000f448       ??_C@_0BC@CHABEBCJ@winUnlockReadLock?$AA@ 100f0448     sqlite3:sqlite3.obj
 0002:0000f45c       ??_C@_09INENJOCI@winUnlock?$AA@ 100f045c     sqlite3:sqlite3.obj
 0002:0000f468       ??_C@_0BE@BHPBKPGB@winLockSharedMemory?$AA@ 100f0468     sqlite3:sqlite3.obj
 0002:0000f47c       ??_C@_06KEOMCCGA@?$CFs?9shm?$AA@ 100f047c     sqlite3:sqlite3.obj
 0002:0000f484       ??_C@_0N@KAFKNICG@readonly_shm?$AA@ 100f0484     sqlite3:sqlite3.obj
 0002:0000f494       ??_C@_0L@NHPDAEHO@winOpenShm?$AA@ 100f0494     sqlite3:sqlite3.obj
 0002:0000f4a0       ??_C@_0L@JMPNPFLA@winShmMap1?$AA@ 100f04a0     sqlite3:sqlite3.obj
 0002:0000f4ac       ??_C@_0L@LHNAKGHD@winShmMap2?$AA@ 100f04ac     sqlite3:sqlite3.obj
 0002:0000f4b8       ??_C@_0L@KOMLJHDC@winShmMap3?$AA@ 100f04b8     sqlite3:sqlite3.obj
 0002:0000f4c4       ??_C@_0O@MBBPBMPM@winUnmapfile1?$AA@ 100f04c4     sqlite3:sqlite3.obj
 0002:0000f4d4       ??_C@_0O@OKDCEPDP@winUnmapfile2?$AA@ 100f04d4     sqlite3:sqlite3.obj
 0002:0000f4e4       ??_C@_0M@FMIFOGHC@winMapfile1?$AA@ 100f04e4     sqlite3:sqlite3.obj
 0002:0000f4f0       ??_C@_0M@HHKILFLB@winMapfile2?$AA@ 100f04f0     sqlite3:sqlite3.obj
 0002:0000f4fc       ??_C@_07NBNPOOME@etilqs_?$AA@ 100f04fc     sqlite3:sqlite3.obj
 0002:0000f504       ??_C@_0BA@KKAJEMJB@winGetTempname1?$AA@ 100f0504     sqlite3:sqlite3.obj
 0002:0000f514       ??_C@_0BA@IBCEBPFC@winGetTempname2?$AA@ 100f0514     sqlite3:sqlite3.obj
 0002:0000f524       ??_C@_0BA@NHHOLINE@winGetTempname4?$AA@ 100f0524     sqlite3:sqlite3.obj
 0002:0000f534       ??_C@_0BA@MOGFIJJF@winGetTempname5?$AA@ 100f0534     sqlite3:sqlite3.obj
 0002:0000f544       ??_C@_07BEGGPPOF@winOpen?$AA@ 100f0544     sqlite3:sqlite3.obj
 0002:0000f54c       ??_C@_04JKHAIEHD@psow?$AA@ 100f054c     sqlite3:sqlite3.obj
 0002:0000f554       ??_C@_09MOHEIBIO@winDelete?$AA@ 100f0554     sqlite3:sqlite3.obj
 0002:0000f560       ??_C@_09NBJCHJLH@winAccess?$AA@ 100f0560     sqlite3:sqlite3.obj
 0002:0000f56c       ??_C@_06GIIGBPHC@?$CFs?$CFc?$CFs?$AA@ 100f056c     sqlite3:sqlite3.obj
 0002:0000f574       ??_C@_0BB@OFJJKLCE@winFullPathname1?$AA@ 100f0574     sqlite3:sqlite3.obj
 0002:0000f588       ??_C@_0BB@MOLEPIOH@winFullPathname2?$AA@ 100f0588     sqlite3:sqlite3.obj
 0002:0000f59c       ??_C@_05NMJMPJJB@win32?$AA@ 100f059c     sqlite3:sqlite3.obj
 0002:0000f5a4       ??_C@_0P@DDINIIBH@win32?9longpath?$AA@ 100f05a4     sqlite3:sqlite3.obj
 0002:0000f5b4       ??_C@_0L@GKDKNNFD@win32?9none?$AA@ 100f05b4     sqlite3:sqlite3.obj
 0002:0000f5c0       ??_C@_0BE@EDBNHJPM@win32?9longpath?9none?$AA@ 100f05c0     sqlite3:sqlite3.obj
 0002:0000f5d4       ??_C@_0BL@FJPGAHP@recovered?5?$CFd?5pages?5from?5?$CFs?$AA@ 100f05d4     sqlite3:sqlite3.obj
 0002:0000f5f0       ??_C@_09HKLPJOIM@?9journal?$AA?$AA@ 100f05f0     sqlite3:sqlite3.obj
 0002:0000f5fc       ??_C@_05HMKKNGEJ@?9wal?$AA?$AA@ 100f05fc     sqlite3:sqlite3.obj
 0002:0000f604       ??_C@_06LDKHBALK@nolock?$AA@ 100f0604     sqlite3:sqlite3.obj
 0002:0000f60c       ??_C@_09JFJMBHCC@immutable?$AA@ 100f060c     sqlite3:sqlite3.obj
 0002:0000f618       ??_C@_0CF@EDMDCOFB@recovered?5?$CFd?5frames?5from?5WAL?5fil@ 100f0618     sqlite3:sqlite3.obj
 0002:0000f640       ??_C@_0BK@NCCCKLLJ@cannot?5limit?5WAL?5size?3?5?$CFs?$AA@ 100f0640     sqlite3:sqlite3.obj
 0002:0000f65c       ??_C@_08CADOGOJM@?3memory?3?$AA@ 100f065c     sqlite3:sqlite3.obj
 0002:0000f668       ??_C@_01EEMJAFIK@?6?$AA@   100f0668     sqlite3:sqlite3.obj
 0002:0000f66c       ??_C@_0BH@LLKFEBHC@invalid?5page?5number?5?$CFd?$AA@ 100f066c     sqlite3:sqlite3.obj
 0002:0000f684       ??_C@_0BJ@HHKCLCDH@2nd?5reference?5to?5page?5?$CFd?$AA@ 100f0684     sqlite3:sqlite3.obj
 0002:0000f6a0       ??_C@_0BN@NJCBBLIO@Failed?5to?5read?5ptrmap?5key?$DN?$CFd?$AA@ 100f06a0     sqlite3:sqlite3.obj
 0002:0000f6c0       ??_C@_0DG@EAEHHDPC@Bad?5ptr?5map?5entry?5key?$DN?$CFd?5expecte@ 100f06c0     sqlite3:sqlite3.obj
 0002:0000f6f8       ??_C@_0BG@GMIBDIEE@failed?5to?5get?5page?5?$CFd?$AA@ 100f06f8     sqlite3:sqlite3.obj
 0002:0000f710       ??_C@_0CH@LNHECGJJ@freelist?5leaf?5count?5too?5big?5on?5p@ 100f0710     sqlite3:sqlite3.obj
 0002:0000f738       ??_C@_04IAGNFIBA@size?$AA@ 100f0738     sqlite3:sqlite3.obj
 0002:0000f740       ??_C@_0BF@GMCEBHJ@overflow?5list?5length?$AA@ 100f0740     sqlite3:sqlite3.obj
 0002:0000f758       ??_C@_0BK@KOMJGFPC@?$CFs?5is?5?$CFd?5but?5should?5be?5?$CFd?$AA@ 100f0758     sqlite3:sqlite3.obj
 0002:0000f774       ??_C@_09OLGIMPDE@Page?5?$CFd?3?5?$AA@ 100f0774     sqlite3:sqlite3.obj
 0002:0000f780       ??_C@_0CG@ILLDAEJM@unable?5to?5get?5the?5page?4?5error?5co@ 100f0780     sqlite3:sqlite3.obj
 0002:0000f7a8       ??_C@_0CG@FFKEALPN@btreeInitPage?$CI?$CJ?5returns?5error?5co@ 100f07a8     sqlite3:sqlite3.obj
 0002:0000f7d0       ??_C@_0BG@NBOMOFLA@free?5space?5corruption?$AA@ 100f07d0     sqlite3:sqlite3.obj
 0002:0000f7e8       ??_C@_0BK@DEBKKJM@On?5tree?5page?5?$CFd?5cell?5?$CFd?3?5?$AA@ 100f07e8     sqlite3:sqlite3.obj
 0002:0000f804       ??_C@_0BM@FMPLCKPB@On?5page?5?$CFd?5at?5right?5child?3?5?$AA@ 100f0804     sqlite3:sqlite3.obj
 0002:0000f820       ??_C@_0BO@GNBLAJEP@Offset?5?$CFd?5out?5of?5range?5?$CFd?4?4?$CFd?$AA@ 100f0820     sqlite3:sqlite3.obj
 0002:0000f840       ??_C@_0BI@EFAGLMLE@Extends?5off?5end?5of?5page?$AA@ 100f0840     sqlite3:sqlite3.obj
 0002:0000f858       ??_C@_0BI@CKMEGBED@Rowid?5?$CFlld?5out?5of?5order?$AA@ 100f0858     sqlite3:sqlite3.obj
 0002:0000f870       ??_C@_0BJ@FLOCKNJL@Child?5page?5depth?5differs?$AA@ 100f0870     sqlite3:sqlite3.obj
 0002:0000f88c       ??_C@_0CF@FDPBJINM@Multiple?5uses?5for?5byte?5?$CFu?5of?5pag@ 100f088c     sqlite3:sqlite3.obj
 0002:0000f8b4       ??_C@_0DE@NONOJPEC@Fragmentation?5of?5?$CFd?5bytes?5report@ 100f08b4     sqlite3:sqlite3.obj
 0002:0000f8e8       ??_C@_0BA@EAICBBKE@Main?5freelist?3?5?$AA@ 100f08e8     sqlite3:sqlite3.obj
 0002:0000f8f8       ??_C@_0CN@GEIJPFJA@max?5rootpage?5?$CI?$CFd?$CJ?5disagrees?5with@ 100f08f8     sqlite3:sqlite3.obj
 0002:0000f928       ??_C@_0DH@BEHBIBPC@incremental_vacuum?5enabled?5with?5@ 100f0928     sqlite3:sqlite3.obj
 0002:0000f960       ??_C@_0BG@NJBAMKDO@Page?5?$CFd?5is?5never?5used?$AA@ 100f0960     sqlite3:sqlite3.obj
 0002:0000f978       ??_C@_0CC@IBCKHFBM@Pointer?5map?5page?5?$CFd?5is?5reference@ 100f0978     sqlite3:sqlite3.obj
 0002:0000f99c       ??_C@_0BE@OKPJBBEB@unknown?5database?5?$CFs?$AA@ 100f099c     sqlite3:sqlite3.obj
 0002:0000f9b0       ??_C@_0BP@CNIPEHFB@destination?5database?5is?5in?5use?$AA@ 100f09b0     sqlite3:sqlite3.obj
 0002:0000f9d0       ??_C@_0CI@IHDDPHMP@source?5and?5destination?5must?5be?5d@ 100f09d0     sqlite3:sqlite3.obj
 0002:0000f9f8       ??_C@_06NJMDEJD@?$CF?$CB?415g?$AA@ 100f09f8     sqlite3:sqlite3.obj
 0002:0000fa00       ??_C@_01JOAMLHOP@?9?$AA@   100f0a00     sqlite3:sqlite3.obj
 0002:0000fa04       ??_C@_04HDOCAJNK@?$CFs?$CFs?$AA@ 100f0a04     sqlite3:sqlite3.obj
 0002:0000fa0c       ??_C@_0O@HEEEJLEO@sqlite_record?$AA@ 100f0a0c     sqlite3:sqlite3.obj
 0002:0000fa1c       ??_C@_04INKOODMH@k?$CI?$CFd?$AA@ 100f0a1c     sqlite3:sqlite3.obj
 0002:0000fa24       ??_C@_06FJHKNKMG@BINARY?$AA@ 100f0a24     sqlite3:sqlite3.obj
 0002:0000fa2c       ??_C@_01HMGJMAIH@B?$AA@    100f0a2c     sqlite3:sqlite3.obj
 0002:0000fa30       ??_C@_05HEGMJKCJ@?0?$CFs?$CFs?$AA@ 100f0a30     sqlite3:sqlite3.obj
 0002:0000fa38       ??_C@_01PKGAHCOL@?$CJ?$AA@ 100f0a38     sqlite3:sqlite3.obj
 0002:0000fa3c       ??_C@_07CJFGHBKN@?$CI?$CF?420s?$CJ?$AA@ 100f0a3c     sqlite3:sqlite3.obj
 0002:0000fa44       ??_C@_06BPGFIOAL@?$CFs?$CI?$CFd?$CJ?$AA@ 100f0a44     sqlite3:sqlite3.obj
 0002:0000fa4c       ??_C@_02DPKJAMEF@?$CFd?$AA@ 100f0a4c     sqlite3:sqlite3.obj
 0002:0000fa50       ??_C@_06OLGPAEJH@?$CIblob?$CJ?$AA@ 100f0a50     sqlite3:sqlite3.obj
 0002:0000fa58       ??_C@_07EGLAFBFD@vtab?3?$CFp?$AA@ 100f0a58     sqlite3:sqlite3.obj
 0002:0000fa60       ??_C@_03LEIBKMN@?0?$CFd?$AA@ 100f0a60     sqlite3:sqlite3.obj
 0002:0000fa64       ??_C@_01LBDDMOBJ@?$FN?$AA@ 100f0a64     sqlite3:sqlite3.obj
 0002:0000fa68       ??_C@_07MHLKLKDM@program?$AA@ 100f0a68     sqlite3:sqlite3.obj
 0002:0000fa70       ??_C@_04LABILCJL@?$CF?42x?$AA@ 100f0a70     sqlite3:sqlite3.obj
 0002:0000fa78       ??_C@_0BA@FKMAFLJK@?$CFs?9mjXXXXXX9XXz?$AA@ 100f0a78     sqlite3:sqlite3.obj
 0002:0000fa88       ??_C@_0O@IDFCBAPA@MJ?5delete?3?5?$CFs?$AA@ 100f0a88     sqlite3:sqlite3.obj
 0002:0000fa98       ??_C@_0P@EKBGDFBG@MJ?5collide?3?5?$CFs?$AA@ 100f0a98     sqlite3:sqlite3.obj
 0002:0000faa8       ??_C@_0N@FLHACMNC@?9mj?$CF06X9?$CF02X?$AA@ 100f0aa8     sqlite3:sqlite3.obj
 0002:0000fab8       ??_C@_0BO@PMDGIFIC@FOREIGN?5KEY?5constraint?5failed?$AA@ 100f0ab8     sqlite3:sqlite3.obj
 0002:0000fad8       ??_C@_0ED@KOIKBLFM@non?9deterministic?5function?5in?5in@ 100f0ad8     sqlite3:sqlite3.obj
 0002:0000fb1c       ??_C@_0CN@JCKHFJMJ@API?5called?5with?5finalized?5prepar@ 100f0b1c     sqlite3:sqlite3.obj
 0002:0000fb4c       ??_C@_0CI@DGDEMKDJ@API?5called?5with?5NULL?5prepared?5st@ 100f0b4c     sqlite3:sqlite3.obj
 0002:0000fb74       ??_C@_0BH@BEFJIDGM@string?5or?5blob?5too?5big?$AA@ 100f0b74     sqlite3:sqlite3.obj
 0002:0000fb8c       ??_C@_0CI@NKIMDBDG@bind?5on?5a?5busy?5prepared?5statemen@ 100f0b8c     sqlite3:sqlite3.obj
 0002:0000fbb4       ??_C@_03CJPCKGBB@?9?9?5?$AA@ 100f0bb4     sqlite3:sqlite3.obj
 0002:0000fbb8       ??_C@_06BGANNCL@?8?$CF?4?$CKq?8?$AA@ 100f0bb8     sqlite3:sqlite3.obj
 0002:0000fbc0       ??_C@_0O@IMBDGMPC@?1?$CK?$CL?$CFd?5bytes?$CK?1?$AA@ 100f0bc0     sqlite3:sqlite3.obj
 0002:0000fbd0       ??_C@_0N@OGKFEFFN@zeroblob?$CI?$CFd?$CJ?$AA@ 100f0bd0     sqlite3:sqlite3.obj
 0002:0000fbe0       ??_C@_02IAJJKNGA@x?8?$AA@  100f0be0     sqlite3:sqlite3.obj
 0002:0000fbe4       ??_C@_04NOJCDH@?$CF02x?$AA@ 100f0be4     sqlite3:sqlite3.obj
 0002:0000fbec       ??_C@_01GEODFPGF@?8?$AA@   100f0bec     sqlite3:sqlite3.obj
 0002:0000fbf0       ??_C@_08BBHBEGAC@NOT?5NULL?$AA@ 100f0bf0     sqlite3:sqlite3.obj
 0002:0000fbfc       ??_C@_06OHAHIIGJ@UNIQUE?$AA@ 100f0bfc     sqlite3:sqlite3.obj
 0002:0000fc04       ??_C@_05GCOJDIEO@CHECK?$AA@ 100f0c04     sqlite3:sqlite3.obj
 0002:0000fc0c       ??_C@_0M@CFPAHGLH@FOREIGN?5KEY?$AA@ 100f0c0c     sqlite3:sqlite3.obj
 0002:0000fc18       ??_C@_0BF@PPLEKELH@?$CFs?5constraint?5failed?$AA@ 100f0c18     sqlite3:sqlite3.obj
 0002:0000fc30       ??_C@_06CEJILJDK@?$CFz?3?5?$CFs?$AA@ 100f0c30     sqlite3:sqlite3.obj
 0002:0000fc38       ??_C@_0BI@CKCEIKAL@abort?5at?5?$CFd?5in?5?$FL?$CFs?$FN?3?5?$CFs?$AA@ 100f0c38     sqlite3:sqlite3.obj
 0002:0000fc50       ??_C@_0DD@EHMCJFDN@cannot?5open?5savepoint?5?9?5SQL?5stat@ 100f0c50     sqlite3:sqlite3.obj
 0002:0000fc84       ??_C@_0BG@NADCOEGF@no?5such?5savepoint?3?5?$CFs?$AA@ 100f0c84     sqlite3:sqlite3.obj
 0002:0000fc9c       ??_C@_0DG@JCGPCDM@cannot?5release?5savepoint?5?9?5SQL?5s@ 100f0c9c     sqlite3:sqlite3.obj
 0002:0000fcd4       ??_C@_0DH@EPKPHENF@cannot?5commit?5transaction?5?9?5SQL?5@ 100f0cd4     sqlite3:sqlite3.obj
 0002:0000fd0c       ??_C@_0DA@CKKHGBEC@cannot?5start?5a?5transaction?5withi@ 100f0d0c     sqlite3:sqlite3.obj
 0002:0000fd3c       ??_C@_0CL@DIEDEFLK@cannot?5rollback?5?9?5no?5transaction@ 100f0d3c     sqlite3:sqlite3.obj
 0002:0000fd68       ??_C@_0CJ@LALCBGBP@cannot?5commit?5?9?5no?5transaction?5i@ 100f0d68     sqlite3:sqlite3.obj
 0002:0000fd94       ??_C@_0BM@FKBOKANJ@database?5schema?5has?5changed?$AA@ 100f0d94     sqlite3:sqlite3.obj
 0002:0000fdb0       ??_C@_0O@JMEKHCEB@sqlite_master?$AA@ 100f0db0     sqlite3:sqlite3.obj
 0002:0000fdc0       ??_C@_0EA@GFNDAJBJ@SELECT?5name?0?5rootpage?0?5sql?5FROM?5@ 100f0dc0     sqlite3:sqlite3.obj
 0002:0000fe00       ??_C@_0CF@DBNDEPJP@too?5many?5levels?5of?5trigger?5recur@ 100f0e00     sqlite3:sqlite3.obj
 0002:0000fe28       ??_C@_04MHJLCKAK@into?$AA@ 100f0e28     sqlite3:sqlite3.obj
 0002:0000fe30       ??_C@_06JIMOCJPC@out?5of?$AA@ 100f0e30     sqlite3:sqlite3.obj
 0002:0000fe38       ??_C@_0DE@KIPNAMAA@cannot?5change?5?$CFs?5wal?5mode?5from?5w@ 100f0e38     sqlite3:sqlite3.obj
 0002:0000fe6c       ??_C@_0BN@JOIFECGM@database?5table?5is?5locked?3?5?$CFs?$AA@ 100f0e6c     sqlite3:sqlite3.obj
 0002:0000fe8c       ??_C@_05FGPIKCAB@?9?9?5?$CFs?$AA@ 100f0e8c     sqlite3:sqlite3.obj
 0002:0000fe94       ??_C@_0CA@JGFGBIFL@statement?5aborts?5at?5?$CFd?3?5?$FL?$CFs?$FN?5?$CFs?$AA@ 100f0e94     sqlite3:sqlite3.obj
 0002:0000feb4       ??_C@_0O@BNNCBLEN@out?5of?5memory?$AA@ 100f0eb4     sqlite3:sqlite3.obj
 0002:0000fec4       ??_C@_04MLLLIHIP@null?$AA@ 100f0ec4     sqlite3:sqlite3.obj
 0002:0000fecc       ??_C@_04DGGKDJMA@real?$AA@ 100f0ecc     sqlite3:sqlite3.obj
 0002:0000fed4       ??_C@_0BN@OFFACDFM@cannot?5open?5value?5of?5type?5?$CFs?$AA@ 100f0ed4     sqlite3:sqlite3.obj
 0002:0000fef4       ??_C@_0BE@PGLAJEIK@no?5such?5rowid?3?5?$CFlld?$AA@ 100f0ef4     sqlite3:sqlite3.obj
 0002:0000ff08       ??_C@_0BO@BCBGJJEM@cannot?5open?5virtual?5table?3?5?$CFs?$AA@ 100f0f08     sqlite3:sqlite3.obj
 0002:0000ff28       ??_C@_0CE@OCACOFEC@cannot?5open?5table?5without?5rowid?3@ 100f0f28     sqlite3:sqlite3.obj
 0002:0000ff4c       ??_C@_0BF@LEHNPEDD@cannot?5open?5view?3?5?$CFs?$AA@ 100f0f4c     sqlite3:sqlite3.obj
 0002:0000ff64       ??_C@_0BF@IFOHJMAC@no?5such?5column?3?5?$CC?$CFs?$CC?$AA@ 100f0f64     sqlite3:sqlite3.obj
 0002:0000ff7c       ??_C@_0M@EKGNDAGL@foreign?5key?$AA@ 100f0f7c     sqlite3:sqlite3.obj
 0002:0000ff88       ??_C@_07KNEBDGNE@indexed?$AA@ 100f0f88     sqlite3:sqlite3.obj
 0002:0000ff90       ??_C@_0CC@PCDMPIAA@cannot?5open?5?$CFs?5column?5for?5writin@ 100f0f90     sqlite3:sqlite3.obj
 0002:0000ffb4       ??_C@_03CLCAEGCJ@new?$AA@  100f0fb4     sqlite3:sqlite3.obj
 0002:0000ffb8       ??_C@_03PNKCFLFB@old?$AA@  100f0fb8     sqlite3:sqlite3.obj
 0002:0000ffbc       ??_C@_08HPCEJEEF@excluded?$AA@ 100f0fbc     sqlite3:sqlite3.obj
 0002:0000ffc8       ??_C@_0BP@LIGNHLP@misuse?5of?5aliased?5aggregate?5?$CFs?$AA@ 100f0fc8     sqlite3:sqlite3.obj
 0002:0000ffe8       ??_C@_0CF@EPIHDDG@misuse?5of?5aliased?5window?5functio@ 100f0fe8     sqlite3:sqlite3.obj
 0002:00010010       ??_C@_0BC@ECPMLDEB@row?5value?5misused?$AA@ 100f1010     sqlite3:sqlite3.obj
 0002:00010024       ??_C@_0CD@LIGHPJAA@double?9quoted?5string?5literal?3?5?$CC?$CF@ 100f1024     sqlite3:sqlite3.obj
 0002:00010048       ??_C@_0P@OOEELNMH@no?5such?5column?$AA@ 100f1048     sqlite3:sqlite3.obj
 0002:00010058       ??_C@_0BG@CPPEOILG@ambiguous?5column?5name?$AA@ 100f1058     sqlite3:sqlite3.obj
 0002:00010070       ??_C@_0N@GOMHGJCA@?$CFs?3?5?$CFs?4?$CFs?4?$CFs?$AA@ 100f1070     sqlite3:sqlite3.obj
 0002:00010080       ??_C@_09DEPFKOIN@?$CFs?3?5?$CFs?4?$CFs?$AA@ 100f1080     sqlite3:sqlite3.obj
 0002:0001008c       ??_C@_06DJHOIPC@?$CFs?3?5?$CFs?$AA@ 100f108c     sqlite3:sqlite3.obj
 0002:00010094       ??_C@_0BM@FHGIFHJI@partial?5index?5WHERE?5clauses?$AA@ 100f1094     sqlite3:sqlite3.obj
 0002:000100b0       ??_C@_0BC@OGGBHAGM@index?5expressions?$AA@ 100f10b0     sqlite3:sqlite3.obj
 0002:000100c4       ??_C@_0BC@FDHDOACM@CHECK?5constraints?$AA@ 100f10c4     sqlite3:sqlite3.obj
 0002:000100d8       ??_C@_0BE@FFEBFOFH@?$CFs?5prohibited?5in?5?$CFs?$AA@ 100f10d8     sqlite3:sqlite3.obj
 0002:000100ec       ??_C@_0BB@MKMPFLCK@the?5?$CC?4?$CC?5operator?$AA@ 100f10ec     sqlite3:sqlite3.obj
 0002:00010100       ??_C@_0EH@BOEFIEGB@second?5argument?5to?5likelihood?$CI?$CJ?5@ 100f1100     sqlite3:sqlite3.obj
 0002:00010148       ??_C@_0CD@CLOCOINF@not?5authorized?5to?5use?5function?3?5@ 100f1148     sqlite3:sqlite3.obj
 0002:0001016c       ??_C@_0BM@KJBKFFPA@non?9deterministic?5functions?$AA@ 100f116c     sqlite3:sqlite3.obj
 0002:00010188       ??_C@_0CM@BPCHJMGA@?$CF?4?$CKs?$CI?$CJ?5may?5not?5be?5used?5as?5a?5wind@ 100f1188     sqlite3:sqlite3.obj
 0002:000101b4       ??_C@_06NFBEFKOC@window?$AA@ 100f11b4     sqlite3:sqlite3.obj
 0002:000101bc       ??_C@_0BN@NMGEKIKL@misuse?5of?5?$CFs?5function?5?$CF?4?$CKs?$CI?$CJ?$AA@ 100f11bc     sqlite3:sqlite3.obj
 0002:000101dc       ??_C@_0BH@DEPAIHDK@no?5such?5function?3?5?$CF?4?$CKs?$AA@ 100f11dc     sqlite3:sqlite3.obj
 0002:000101f4       ??_C@_0CN@GBOJIJCC@wrong?5number?5of?5arguments?5to?5fun@ 100f11f4     sqlite3:sqlite3.obj
 0002:00010224       ??_C@_0L@JIOMEFKM@subqueries?$AA@ 100f1224     sqlite3:sqlite3.obj
 0002:00010230       ??_C@_0L@HHPOFMCB@parameters?$AA@ 100f1230     sqlite3:sqlite3.obj
 0002:0001023c       ??_C@_0DI@IJOLPLNO@?$CFr?5?$CFs?5BY?5term?5out?5of?5range?5?9?5sho@ 100f123c     sqlite3:sqlite3.obj
 0002:00010274       ??_C@_0CC@GEJJPDIE@too?5many?5terms?5in?5ORDER?5BY?5claus@ 100f1274     sqlite3:sqlite3.obj
 0002:00010298       ??_C@_05BIEKMFNJ@ORDER?$AA@ 100f1298     sqlite3:sqlite3.obj
 0002:000102a0       ??_C@_0DN@KHANHMIL@?$CFr?5ORDER?5BY?5term?5does?5not?5match?5@ 100f12a0     sqlite3:sqlite3.obj
 0002:000102e0       ??_C@_0BP@OLNMGBH@too?5many?5terms?5in?5?$CFs?5BY?5clause?$AA@ 100f12e0     sqlite3:sqlite3.obj
 0002:00010300       ??_C@_0CM@CFGBPLAG@a?5GROUP?5BY?5clause?5is?5required?5be@ 100f1300     sqlite3:sqlite3.obj
 0002:0001032c       ??_C@_05NAIABEH@GROUP?$AA@ 100f132c     sqlite3:sqlite3.obj
 0002:00010334       ??_C@_0DL@LDIIFJFH@aggregate?5functions?5are?5not?5allo@ 100f1334     sqlite3:sqlite3.obj
 0002:00010370       ??_C@_0DA@HPOBBFJP@Expression?5tree?5is?5too?5large?5?$CIma@ 100f1370     sqlite3:sqlite3.obj
 0002:000103a0       ??_C@_0CC@BHLMPGNH@too?5many?5arguments?5on?5function?5?$CF@ 100f13a0     sqlite3:sqlite3.obj
 0002:000103c4       ??_C@_0CL@MAPAMFMM@variable?5number?5must?5be?5between?5@ 100f13c4     sqlite3:sqlite3.obj
 0002:000103f0       ??_C@_0BH@KLMBLGJH@too?5many?5SQL?5variables?$AA@ 100f13f0     sqlite3:sqlite3.obj
 0002:00010408       ??_C@_0BO@INDAFOLJ@?$CFd?5columns?5assigned?5?$CFd?5values?$AA@ 100f1408     sqlite3:sqlite3.obj
 0002:00010428       ??_C@_0BH@HJGFDJPB@too?5many?5columns?5in?5?$CFs?$AA@ 100f1428     sqlite3:sqlite3.obj
 0002:00010440       ??_C@_04LOAJBDKD@true?$AA@ 100f1440     sqlite3:sqlite3.obj
 0002:00010448       ??_C@_05LAPONLG@false?$AA@ 100f1448     sqlite3:sqlite3.obj
 0002:00010450       ??_C@_07HKAAOBDA@_ROWID_?$AA@ 100f1450     sqlite3:sqlite3.obj
 0002:00010458       ??_C@_05GIFMDDGN@ROWID?$AA@ 100f1458     sqlite3:sqlite3.obj
 0002:00010460       ??_C@_03PGJCFEMG@OID?$AA@  100f1460     sqlite3:sqlite3.obj
 0002:00010464       ??_C@_0CP@GOINPJN@USING?5ROWID?5SEARCH?5ON?5TABLE?5?$CFs?5F@ 100f1464     sqlite3:sqlite3.obj
 0002:00010494       ??_C@_0BP@PMIGPOKJ@USING?5INDEX?5?$CFs?5FOR?5IN?9OPERATOR?$AA@ 100f1494     sqlite3:sqlite3.obj
 0002:000104b4       ??_C@_0CM@BAEGMMEI@sub?9select?5returns?5?$CFd?5columns?5?9?5@ 100f14b4     sqlite3:sqlite3.obj
 0002:000104e0       ??_C@_0BH@PHFKCNGN@REUSE?5LIST?5SUBQUERY?5?$CFd?$AA@ 100f14e0     sqlite3:sqlite3.obj
 0002:000104f8       ??_C@_0M@MCLOEEML@CORRELATED?5?$AA@ 100f14f8     sqlite3:sqlite3.obj
 0002:00010504       ??_C@_0BD@GKIOKNDD@?$CFsLIST?5SUBQUERY?5?$CFd?$AA@ 100f1504     sqlite3:sqlite3.obj
 0002:00010518       ??_C@_0BC@KGIJOKPP@REUSE?5SUBQUERY?5?$CFd?$AA@ 100f1518     sqlite3:sqlite3.obj
 0002:0001052c       ??_C@_0BF@GBDEEALJ@?$CFsSCALAR?5SUBQUERY?5?$CFd?$AA@ 100f152c     sqlite3:sqlite3.obj
 0002:00010544       ??_C@_02MDDDDAID@0x?$AA@   100f1544     sqlite3:sqlite3.obj
 0002:00010548       ??_C@_0BK@FAKNEGAL@hex?5literal?5too?5big?3?5?$CFs?$CFs?$AA@ 100f1548     sqlite3:sqlite3.obj
 0002:00010564       ??_C@_0BK@BMEAFNCN@misuse?5of?5aggregate?3?5?$CFs?$CI?$CJ?$AA@ 100f1564     sqlite3:sqlite3.obj
 0002:00010580       ??_C@_0BH@DOLDNOOG@unknown?5function?3?5?$CFs?$CI?$CJ?$AA@ 100f1580     sqlite3:sqlite3.obj
 0002:00010598       ??_C@_0DC@JGGJAPOJ@RAISE?$CI?$CJ?5may?5only?5be?5used?5within?5@ 100f1598     sqlite3:sqlite3.obj
 0002:000105cc       ??_C@_07IOGLMIPM@sqlite_?$AA@ 100f15cc     sqlite3:sqlite3.obj
 0002:000105d4       ??_C@_0BM@IAHFHDLE@table?5?$CFs?5may?5not?5be?5altered?$AA@ 100f15d4     sqlite3:sqlite3.obj
 0002:000105f0       ??_C@_0JM@KDKOFODP@SELECT?51?5FROM?5?$CC?$CFw?$CC?4?$CFs?5WHERE?5name@ 100f15f0     sqlite3:sqlite3.obj
 0002:00010690       ??_C@_0JL@HIOILODC@SELECT?51?5FROM?5temp?4?$CFs?5WHERE?5name@ 100f1690     sqlite3:sqlite3.obj
 0002:0001072c       ??_C@_0DL@DAEIJKNC@there?5is?5already?5another?5table?5o@ 100f172c     sqlite3:sqlite3.obj
 0002:00010768       ??_C@_0BL@FIDIAKLG@view?5?$CFs?5may?5not?5be?5altered?$AA@ 100f1768     sqlite3:sqlite3.obj
 0002:00010788       ??_C@_0KN@FOHOCLLA@UPDATE?5?$CC?$CFw?$CC?4?$CFs?5SET?5sql?5?$DN?5sqlite_@ 100f1788     sqlite3:sqlite3.obj
 0002:00010838       ??_C@_0BCG@FIGFMCDE@UPDATE?5?$CFQ?4?$CFs?5SET?5tbl_name?5?$DN?5?$CFQ?0?5@ 100f1838     sqlite3:sqlite3.obj
 0002:00010960       ??_C@_0BA@KDDGKFDH@sqlite_sequence?$AA@ 100f1960     sqlite3:sqlite3.obj
 0002:00010970       ??_C@_0DK@NPMGFNPC@UPDATE?5?$CC?$CFw?$CC?4sqlite_sequence?5set?5@ 100f1970     sqlite3:sqlite3.obj
 0002:000109b0       ??_C@_0PO@KNDAAELD@UPDATE?5sqlite_temp_master?5SET?5sq@ 100f19b0     sqlite3:sqlite3.obj
 0002:00010ab0       ??_C@_0CA@KEHKHMLG@Cannot?5add?5a?5PRIMARY?5KEY?5column?$AA@ 100f1ab0     sqlite3:sqlite3.obj
 0002:00010ad0       ??_C@_0BL@NAFLCLKF@Cannot?5add?5a?5UNIQUE?5column?$AA@ 100f1ad0     sqlite3:sqlite3.obj
 0002:00010aec       ??_C@_0DL@KNFPANHI@Cannot?5add?5a?5REFERENCES?5column?5w@ 100f1aec     sqlite3:sqlite3.obj
 0002:00010b28       ??_C@_0DF@JACFJFPO@Cannot?5add?5a?5NOT?5NULL?5column?5wit@ 100f1b28     sqlite3:sqlite3.obj
 0002:00010b60       ??_C@_0CO@DPKGGDEF@Cannot?5add?5a?5column?5with?5non?9con@ 100f1b60     sqlite3:sqlite3.obj
 0002:00010b90       ??_C@_0GN@GPPLIGGM@UPDATE?5?$CC?$CFw?$CC?4?$CFs?5SET?5sql?5?$DN?5substr?$CI@ 100f1b90     sqlite3:sqlite3.obj
 0002:00010c00       ??_C@_0CC@HCCMFAJP@virtual?5tables?5may?5not?5be?5altere@ 100f1c00     sqlite3:sqlite3.obj
 0002:00010c24       ??_C@_0BO@IKHDEECD@Cannot?5add?5a?5column?5to?5a?5view?$AA@ 100f1c24     sqlite3:sqlite3.obj
 0002:00010c44       ??_C@_0BD@PKLNNDD@sqlite_altertab_?$CFs?$AA@ 100f1c44     sqlite3:sqlite3.obj
 0002:00010c58       ??_C@_04CHADEDPO@view?$AA@ 100f1c58     sqlite3:sqlite3.obj
 0002:00010c60       ??_C@_0O@NMANEEDA@virtual?5table?$AA@ 100f1c60     sqlite3:sqlite3.obj
 0002:00010c70       ??_C@_0CB@FKCGKGFD@cannot?5rename?5columns?5of?5?$CFs?5?$CC?$CFs?$CC@ 100f1c70     sqlite3:sqlite3.obj
 0002:00010c98       ??_C@_0MP@OIBCFMNP@UPDATE?5?$CC?$CFw?$CC?4?$CFs?5SET?5sql?5?$DN?5sqlite_@ 100f1c98     sqlite3:sqlite3.obj
 0002:00010d68       ??_C@_0HI@BAAKCJH@UPDATE?5temp?4?$CFs?5SET?5sql?5?$DN?5sqlite_@ 100f1d68     sqlite3:sqlite3.obj
 0002:00010de0       ??_C@_0O@HHOPJCKD@?5after?5rename?$AA@ 100f1de0     sqlite3:sqlite3.obj
 0002:00010df0       ??_C@_0BF@MECNHAM@error?5in?5?$CFs?5?$CFs?$CFs?3?5?$CFs?$AA@ 100f1df0     sqlite3:sqlite3.obj
 0002:00010e08       ??_C@_04ODDMBDHP@?$CC?$CFw?$CC?$AA@ 100f1e08     sqlite3:sqlite3.obj
 0002:00010e10       ??_C@_0BF@FDBEBLAN@sqlite_rename_column?$AA@ 100f1e10     sqlite3:sqlite3.obj
 0002:00010e28       ??_C@_0BE@JHJAJICL@sqlite_rename_table?$AA@ 100f1e28     sqlite3:sqlite3.obj
 0002:00010e3c       ??_C@_0BD@GPAEPAJF@sqlite_rename_test?$AA@ 100f1e3c     sqlite3:sqlite3.obj
 0002:00010e50       ??_C@_0N@EIGEIEIJ@sqlite_stat1?$AA@ 100f1e50     sqlite3:sqlite3.obj
 0002:00010e60       ??_C@_0N@BCOBMINH@tbl?0idx?0stat?$AA@ 100f1e60     sqlite3:sqlite3.obj
 0002:00010e70       ??_C@_0N@DFBDHAMM@sqlite_stat4?$AA@ 100f1e70     sqlite3:sqlite3.obj
 0002:00010e80       ??_C@_0BM@EJONBLKK@tbl?0idx?0neq?0nlt?0ndlt?0sample?$AA@ 100f1e80     sqlite3:sqlite3.obj
 0002:00010e9c       ??_C@_0N@HKFCOGAL@sqlite_stat3?$AA@ 100f1e9c     sqlite3:sqlite3.obj
 0002:00010eac       ??_C@_0BH@NPNIHFHO@CREATE?5TABLE?5?$CFQ?4?$CFs?$CI?$CFs?$CJ?$AA@ 100f1eac     sqlite3:sqlite3.obj
 0002:00010ec4       ??_C@_0BO@HNIAJBGG@DELETE?5FROM?5?$CFQ?4?$CFs?5WHERE?5?$CFs?$DN?$CFQ?$AA@ 100f1ec4     sqlite3:sqlite3.obj
 0002:00010ee4       ??_C@_09BGHEAMKF@stat_init?$AA@ 100f1ee4     sqlite3:sqlite3.obj
 0002:00010ef0       ??_C@_09LFKFCDD@stat_push?$AA@ 100f1ef0     sqlite3:sqlite3.obj
 0002:00010efc       ??_C@_04FCIJFPNK@?$CFllu?$AA@ 100f1efc     sqlite3:sqlite3.obj
 0002:00010f04       ??_C@_05CCMFAMFC@?5?$CFllu?$AA@ 100f1f04     sqlite3:sqlite3.obj
 0002:00010f0c       ??_C@_05PDNAJGDH@?$CFllu?5?$AA@ 100f1f0c     sqlite3:sqlite3.obj
 0002:00010f14       ??_C@_08FMENKBDE@stat_get?$AA@ 100f1f14     sqlite3:sqlite3.obj
 0002:00010f20       ??_C@_09LABAHMNM@sqlite?2_?$CF?$AA@ 100f1f20     sqlite3:sqlite3.obj
 0002:00010f2c       ??_C@_03FOPHMEHM@BBB?$AA@  100f1f2c     sqlite3:sqlite3.obj
 0002:00010f30       ??_C@_03DAKNAIGI@idx?$AA@  100f1f30     sqlite3:sqlite3.obj
 0002:00010f34       ??_C@_03LIPNCMMN@tbl?$AA@  100f1f34     sqlite3:sqlite3.obj
 0002:00010f38       ??_C@_0L@DBBDLBKM@unordered?$CK?$AA@ 100f1f38     sqlite3:sqlite3.obj
 0002:00010f44       ??_C@_09OAJLDBEA@sz?$DN?$FL0?99?$FN?$CK?$AA@ 100f1f44     sqlite3:sqlite3.obj
 0002:00010f50       ??_C@_0M@JLHNGGLH@noskipscan?$CK?$AA@ 100f1f50     sqlite3:sqlite3.obj
 0002:00010f5c       ??_C@_0DE@CFNJMCCH@SELECT?5idx?0neq?0nlt?0ndlt?0sample?5F@ 100f1f5c     sqlite3:sqlite3.obj
 0002:00010f90       ??_C@_0DG@DMFOEOLN@SELECT?5idx?0count?$CI?$CK?$CJ?5FROM?5?$CFQ?4sqli@ 100f1f90     sqlite3:sqlite3.obj
 0002:00010fc8       ??_C@_0ED@BDPAKHEL@SELECT?5idx?0neq?0nlt?0ndlt?0sqlite_r@ 100f1fc8     sqlite3:sqlite3.obj
 0002:0001100c       ??_C@_0DG@KHFPEBKH@SELECT?5idx?0count?$CI?$CK?$CJ?5FROM?5?$CFQ?4sqli@ 100f200c     sqlite3:sqlite3.obj
 0002:00011044       ??_C@_0CJ@CJKDHBGL@SELECT?5tbl?0idx?0stat?5FROM?5?$CFQ?4sqli@ 100f2044     sqlite3:sqlite3.obj
 0002:00011070       ??_C@_0CF@FLFLBLIN@too?5many?5attached?5databases?5?9?5ma@ 100f2070     sqlite3:sqlite3.obj
 0002:00011098       ??_C@_0BO@FOBANNIG@database?5?$CFs?5is?5already?5in?5use?$AA@ 100f2098     sqlite3:sqlite3.obj
 0002:000110b8       ??_C@_0BN@IAAPNCPC@database?5is?5already?5attached?$AA@ 100f20b8     sqlite3:sqlite3.obj
 0002:000110d8       ??_C@_0EE@MLIDCBJA@attached?5databases?5must?5use?5the?5@ 100f20d8     sqlite3:sqlite3.obj
 0002:0001111c       ??_C@_0BM@JECJFHOP@unable?5to?5open?5database?3?5?$CFs?$AA@ 100f211c     sqlite3:sqlite3.obj
 0002:00011138       ??_C@_0BF@PJFCJDG@no?5such?5database?3?5?$CFs?$AA@ 100f2138     sqlite3:sqlite3.obj
 0002:00011150       ??_C@_0BK@KGABJE@cannot?5detach?5database?5?$CFs?$AA@ 100f2150     sqlite3:sqlite3.obj
 0002:0001116c       ??_C@_0BG@HKAEEBEM@database?5?$CFs?5is?5locked?$AA@ 100f216c     sqlite3:sqlite3.obj
 0002:00011184       ??_C@_0O@PDAEIIFA@sqlite_detach?$AA@ 100f2184     sqlite3:sqlite3.obj
 0002:00011194       ??_C@_0O@GJLGHGMJ@sqlite_attach?$AA@ 100f2194     sqlite3:sqlite3.obj
 0002:000111a4       ??_C@_0CO@IGOBCPDP@?$CFs?5?$CFT?5cannot?5reference?5objects?5i@ 100f21a4     sqlite3:sqlite3.obj
 0002:000111d4       ??_C@_0BI@NDHFOPCH@?$CFs?5cannot?5use?5variables?$AA@ 100f21d4     sqlite3:sqlite3.obj
 0002:000111ec       ??_C@_0BH@KNHNEHPN@authorizer?5malfunction?$AA@ 100f21ec     sqlite3:sqlite3.obj
 0002:00011204       ??_C@_05NNFHCGPF@?$CFs?4?$CFs?$AA@ 100f2204     sqlite3:sqlite3.obj
 0002:0001120c       ??_C@_05MJFJNLM@?$CFs?4?$CFz?$AA@ 100f220c     sqlite3:sqlite3.obj
 0002:00011214       ??_C@_0BL@EPLLLCGN@access?5to?5?$CFz?5is?5prohibited?$AA@ 100f2214     sqlite3:sqlite3.obj
 0002:00011230       ??_C@_0P@PEBGBLCC@not?5authorized?$AA@ 100f2230     sqlite3:sqlite3.obj
 0002:00011240       ??_C@_0BD@OLGFAFA@sqlite_temp_master?$AA@ 100f2240     sqlite3:sqlite3.obj
 0002:00011254       ??_C@_07BILKMIPE@pragma_?$AA@ 100f2254     sqlite3:sqlite3.obj
 0002:0001125c       ??_C@_0N@IAMBEAMM@no?5such?5view?$AA@ 100f225c     sqlite3:sqlite3.obj
 0002:0001126c       ??_C@_0O@HKMEEONL@no?5such?5table?$AA@ 100f226c     sqlite3:sqlite3.obj
 0002:0001127c       ??_C@_0BB@GODMDNII@corrupt?5database?$AA@ 100f227c     sqlite3:sqlite3.obj
 0002:00011290       ??_C@_0BE@DADMKDCE@unknown?5database?5?$CFT?$AA@ 100f2290     sqlite3:sqlite3.obj
 0002:000112a4       ??_C@_0CK@DHAAGEMP@object?5name?5reserved?5for?5interna@ 100f22a4     sqlite3:sqlite3.obj
 0002:000112d0       ??_C@_0CJ@GGBIBJLH@temporary?5table?5name?5must?5be?5unq@ 100f22d0     sqlite3:sqlite3.obj
 0002:000112fc       ??_C@_0BI@NMBJKJHP@table?5?$CFT?5already?5exists?$AA@ 100f22fc     sqlite3:sqlite3.obj
 0002:00011314       ??_C@_0CD@FJHICPML@there?5is?5already?5an?5index?5named?5@ 100f2314     sqlite3:sqlite3.obj
 0002:00011338       ??_C@_0BH@KPDMNKOM@too?5many?5columns?5on?5?$CFs?$AA@ 100f2338     sqlite3:sqlite3.obj
 0002:00011350       ??_C@_0BK@CJJKBEHE@duplicate?5column?5name?3?5?$CFs?$AA@ 100f2350     sqlite3:sqlite3.obj
 0002:0001136c       ??_C@_0CN@MLPCOIJO@default?5value?5of?5column?5?$FL?$CFs?$FN?5is?5@ 100f236c     sqlite3:sqlite3.obj
 0002:0001139c       ??_C@_0CJ@LEOOFHMA@table?5?$CC?$CFs?$CC?5has?5more?5than?5one?5pri@ 100f239c     sqlite3:sqlite3.obj
 0002:000113c8       ??_C@_07EHCIHKNF@INTEGER?$AA@ 100f23c8     sqlite3:sqlite3.obj
 0002:000113d0       ??_C@_0DI@IAIBDBA@AUTOINCREMENT?5is?5only?5allowed?5on@ 100f23d0     sqlite3:sqlite3.obj
 0002:00011408       ??_C@_01IHBHIGKO@?0?$AA@   100f2408     sqlite3:sqlite3.obj
 0002:0001140c       ??_C@_03BMMPKCMF@?6?5?5?$AA@ 100f240c     sqlite3:sqlite3.obj
 0002:00011410       ??_C@_04PPJIEIMB@?0?6?5?5?$AA@ 100f2410     sqlite3:sqlite3.obj
 0002:00011418       ??_C@_02EJGPDMNA@?6?$CJ?$AA@ 100f2418     sqlite3:sqlite3.obj
 0002:0001141c       ??_C@_0O@BLHKEBID@CREATE?5TABLE?5?$AA@ 100f241c     sqlite3:sqlite3.obj
 0002:0001142c       ??_C@_05JELAHNDG@?5TEXT?$AA@ 100f242c     sqlite3:sqlite3.obj
 0002:00011434       ??_C@_04KMHHNFPL@?5NUM?$AA@ 100f2434     sqlite3:sqlite3.obj
 0002:0001143c       ??_C@_04LKNDAIML@?5INT?$AA@ 100f243c     sqlite3:sqlite3.obj
 0002:00011444       ??_C@_05IKBMIIDA@?5REAL?$AA@ 100f2444     sqlite3:sqlite3.obj
 0002:0001144c       ??_C@_0DC@FOEHBEGD@AUTOINCREMENT?5not?5allowed?5on?5WIT@ 100f244c     sqlite3:sqlite3.obj
 0002:00011480       ??_C@_0CA@OMALJPLC@PRIMARY?5KEY?5missing?5on?5table?5?$CFs?$AA@ 100f2480     sqlite3:sqlite3.obj
 0002:000114a0       ??_C@_05HJCCDKBG@TABLE?$AA@ 100f24a0     sqlite3:sqlite3.obj
 0002:000114a8       ??_C@_04OLDJKBIG@VIEW?$AA@ 100f24a8     sqlite3:sqlite3.obj
 0002:000114b0       ??_C@_0P@BPBAOJCC@CREATE?5?$CFs?5?$CF?4?$CKs?$AA@ 100f24b0     sqlite3:sqlite3.obj
 0002:000114c0       ??_C@_0FH@BLIGLCKI@UPDATE?5?$CFQ?4?$CFs?5SET?5type?$DN?8?$CFs?8?0?5name@ 100f24c0     sqlite3:sqlite3.obj
 0002:00011518       ??_C@_0CK@BLJIJAMD@CREATE?5TABLE?5?$CFQ?4sqlite_sequence?$CI@ 100f2518     sqlite3:sqlite3.obj
 0002:00011544       ??_C@_0CC@CBOBIFGC@tbl_name?$DN?8?$CFq?8?5AND?5type?$CB?$DN?8trigger@ 100f2544     sqlite3:sqlite3.obj
 0002:00011568       ??_C@_0CE@HIMMFEMD@parameters?5are?5not?5allowed?5in?5vi@ 100f2568     sqlite3:sqlite3.obj
 0002:0001158c       ??_C@_0BO@BLAOKNKN@view?5?$CFs?5is?5circularly?5defined?$AA@ 100f258c     sqlite3:sqlite3.obj
 0002:000115ac       ??_C@_0P@FEEJDLDF@corrupt?5schema?$AA@ 100f25ac     sqlite3:sqlite3.obj
 0002:000115bc       ??_C@_0DI@GKCMDFKF@UPDATE?5?$CFQ?4?$CFs?5SET?5rootpage?$DN?$CFd?5WHE@ 100f25bc     sqlite3:sqlite3.obj
 0002:000115f4       ??_C@_0O@IOJCPKAP@sqlite_stat?$CFd?$AA@ 100f25f4     sqlite3:sqlite3.obj
 0002:00011604       ??_C@_0CN@DKDOKGOO@DELETE?5FROM?5?$CFQ?4sqlite_sequence?5W@ 100f2604     sqlite3:sqlite3.obj
 0002:00011634       ??_C@_0DI@FOLLFOLB@DELETE?5FROM?5?$CFQ?4?$CFs?5WHERE?5tbl_name@ 100f2634     sqlite3:sqlite3.obj
 0002:0001166c       ??_C@_0M@IHGMMCJN@sqlite_stat?$AA@ 100f266c     sqlite3:sqlite3.obj
 0002:00011678       ??_C@_0BM@JEGMLIGC@table?5?$CFs?5may?5not?5be?5dropped?$AA@ 100f2678     sqlite3:sqlite3.obj
 0002:00011694       ??_C@_0CC@HNNEDPB@use?5DROP?5TABLE?5to?5delete?5table?5?$CF@ 100f2694     sqlite3:sqlite3.obj
 0002:000116b8       ??_C@_0CA@FJIHAAAA@use?5DROP?5VIEW?5to?5delete?5view?5?$CFs?$AA@ 100f26b8     sqlite3:sqlite3.obj
 0002:000116d8       ??_C@_0DP@HFDIOLMB@foreign?5key?5on?5?$CFs?5should?5referen@ 100f26d8     sqlite3:sqlite3.obj
 0002:00011718       ??_C@_0FO@BDBBNOLJ@number?5of?5columns?5in?5foreign?5key@ 100f2718     sqlite3:sqlite3.obj
 0002:00011778       ??_C@_0CO@ECJPGOGF@unknown?5column?5?$CC?$CFs?$CC?5in?5foreign?5k@ 100f2778     sqlite3:sqlite3.obj
 0002:000117a8       ??_C@_05FKHKFDID@index?$AA@ 100f27a8     sqlite3:sqlite3.obj
 0002:000117b0       ??_C@_0DC@MMFBMLFB@cannot?5create?5a?5TEMP?5index?5on?5no@ 100f27b0     sqlite3:sqlite3.obj
 0002:000117e4       ??_C@_0BM@KIGEJLNH@table?5?$CFs?5may?5not?5be?5indexed?$AA@ 100f27e4     sqlite3:sqlite3.obj
 0002:00011800       ??_C@_0BJ@CFGNJLOC@views?5may?5not?5be?5indexed?$AA@ 100f2800     sqlite3:sqlite3.obj
 0002:0001181c       ??_C@_0CC@FKDNLIPM@virtual?5tables?5may?5not?5be?5indexe@ 100f281c     sqlite3:sqlite3.obj
 0002:00011840       ??_C@_0CC@CKJEJGLG@there?5is?5already?5a?5table?5named?5?$CF@ 100f2840     sqlite3:sqlite3.obj
 0002:00011864       ??_C@_0BI@HPCDPJFN@index?5?$CFs?5already?5exists?$AA@ 100f2864     sqlite3:sqlite3.obj
 0002:0001187c       ??_C@_0BH@HCCALECK@sqlite_autoindex_?$CFs_?$CFd?$AA@ 100f287c     sqlite3:sqlite3.obj
 0002:00011894       ??_C@_0DN@KANOKGBN@expressions?5prohibited?5in?5PRIMAR@ 100f2894     sqlite3:sqlite3.obj
 0002:000118d4       ??_C@_0CK@BPKJMBLB@conflicting?5ON?5CONFLICT?5clauses?5@ 100f28d4     sqlite3:sqlite3.obj
 0002:00011900       ??_C@_0BB@JDJPANJL@invalid?5rootpage?$AA@ 100f2900     sqlite3:sqlite3.obj
 0002:00011914       ??_C@_07OGDPOKCI@?5UNIQUE?$AA@ 100f2914     sqlite3:sqlite3.obj
 0002:0001191c       ??_C@_0BE@NHCJMGDI@CREATE?$CFs?5INDEX?5?$CF?4?$CKs?$AA@ 100f291c     sqlite3:sqlite3.obj
 0002:00011930       ??_C@_0DA@DLDDDEKN@INSERT?5INTO?5?$CFQ?4?$CFs?5VALUES?$CI?8index?8@ 100f2930     sqlite3:sqlite3.obj
 0002:00011960       ??_C@_0BL@CHCJOOMG@name?$DN?8?$CFq?8?5AND?5type?$DN?8index?8?$AA@ 100f2960     sqlite3:sqlite3.obj
 0002:0001197c       ??_C@_0BC@JBPCAJCH@no?5such?5index?3?5?$CFS?$AA@ 100f297c     sqlite3:sqlite3.obj
 0002:00011990       ??_C@_0EJ@MFMNFJHB@index?5associated?5with?5UNIQUE?5or?5@ 100f2990     sqlite3:sqlite3.obj
 0002:000119dc       ??_C@_0DB@DNHAJCKG@DELETE?5FROM?5?$CFQ?4?$CFs?5WHERE?5name?$DN?$CFQ?5@ 100f29dc     sqlite3:sqlite3.obj
 0002:00011a10       ??_C@_0CE@MBHNOAOC@too?5many?5FROM?5clause?5terms?0?5max?3@ 100f2a10     sqlite3:sqlite3.obj
 0002:00011a34       ??_C@_02BFICIOJL@ON?$AA@   100f2a34     sqlite3:sqlite3.obj
 0002:00011a38       ??_C@_05EOONBMLM@USING?$AA@ 100f2a38     sqlite3:sqlite3.obj
 0002:00011a40       ??_C@_0CE@GFPKLECD@a?5JOIN?5clause?5is?5required?5before@ 100f2a40     sqlite3:sqlite3.obj
 0002:00011a64       ??_C@_05ILMMJGEC@BEGIN?$AA@ 100f2a64     sqlite3:sqlite3.obj
 0002:00011a6c       ??_C@_08COBEBGNM@ROLLBACK?$AA@ 100f2a6c     sqlite3:sqlite3.obj
 0002:00011a78       ??_C@_06IBPPMFNL@COMMIT?$AA@ 100f2a78     sqlite3:sqlite3.obj
 0002:00011a80       ??_C@_07LDDIIHCM@RELEASE?$AA@ 100f2a80     sqlite3:sqlite3.obj
 0002:00011a88       ??_C@_0EG@GIEOJFED@unable?5to?5open?5a?5temporary?5datab@ 100f2a88     sqlite3:sqlite3.obj
 0002:00011ad0       ??_C@_0L@FKJLCLHK@index?5?8?$CFq?8?$AA@ 100f2ad0     sqlite3:sqlite3.obj
 0002:00011adc       ??_C@_02KEGNLNML@?0?5?$AA@ 100f2adc     sqlite3:sqlite3.obj
 0002:00011ae0       ??_C@_08IBDKHCHA@?$CFs?4rowid?$AA@ 100f2ae0     sqlite3:sqlite3.obj
 0002:00011aec       ??_C@_0CO@PMBDNHDC@unable?5to?5identify?5the?5object?5to@ 100f2aec     sqlite3:sqlite3.obj
 0002:00011b1c       ??_C@_0BO@HBGGJFCF@duplicate?5WITH?5table?5name?3?5?$CFs?$AA@ 100f2b1c     sqlite3:sqlite3.obj
 0002:00011b3c       ??_C@_0BP@CGLMEPGG@no?5such?5collation?5sequence?3?5?$CFs?$AA@ 100f2b3c     sqlite3:sqlite3.obj
 0002:00011b5c       ??_C@_0BN@GLMOOAMK@table?5?$CFs?5may?5not?5be?5modified?$AA@ 100f2b5c     sqlite3:sqlite3.obj
 0002:00011b7c       ??_C@_0CG@CNPJIJGN@cannot?5modify?5?$CFs?5because?5it?5is?5a@ 100f2b7c     sqlite3:sqlite3.obj
 0002:00011ba4       ??_C@_0BN@IKOJJOIH@ORDER?5BY?5without?5LIMIT?5on?5?$CFs?$AA@ 100f2ba4     sqlite3:sqlite3.obj
 0002:00011bc4       ??_C@_06FKDAMKFP@DELETE?$AA@ 100f2bc4     sqlite3:sqlite3.obj
 0002:00011bcc       ??_C@_0N@DAGIBCDP@rows?5deleted?$AA@ 100f2bcc     sqlite3:sqlite3.obj
 0002:00011bdc       ??_C@_04CIMGMMMG@text?$AA@ 100f2bdc     sqlite3:sqlite3.obj
 0002:00011be4       ??_C@_04LPJPOBEM@blob?$AA@ 100f2be4     sqlite3:sqlite3.obj
 0002:00011bec       ??_C@_0BB@KBEKGHFK@integer?5overflow?$AA@ 100f2bec     sqlite3:sqlite3.obj
 0002:00011c00       ??_C@_04HGGMHPIM@?$CF?4?$CKf?$AA@ 100f2c00     sqlite3:sqlite3.obj
 0002:00011c08       ??_C@_0CB@LFIMBCA@LIKE?5or?5GLOB?5pattern?5too?5complex@ 100f2c08     sqlite3:sqlite3.obj
 0002:00011c2c       ??_C@_0CN@PAMOLCDH@ESCAPE?5expression?5must?5be?5a?5sing@ 100f2c2c     sqlite3:sqlite3.obj
 0002:00011c5c       ??_C@_06CLNEDLBE@?$CF?$CB?420e?$AA@ 100f2c5c     sqlite3:sqlite3.obj
 0002:00011c64       ??_C@_01CLKCMJKC@?5?$AA@   100f2c64     sqlite3:sqlite3.obj
 0002:00011c68       ??_C@_04BBKKAMHH@?$DP000?$AA@ 100f2c68     sqlite3:sqlite3.obj
 0002:00011c70       ??_C@_05JGHLFIHG@MATCH?$AA@ 100f2c70     sqlite3:sqlite3.obj
 0002:00011c78       ??_C@_04HPDJJBAE@like?$AA@ 100f2c78     sqlite3:sqlite3.obj
 0002:00011c80       ??_C@_07KFKPEFNG@soundex?$AA@ 100f2c80     sqlite3:sqlite3.obj
 0002:00011c88       ??_C@_0P@BJKPICNH@load_extension?$AA@ 100f2c88     sqlite3:sqlite3.obj
 0002:00011c98       ??_C@_0BK@NPIMPNGH@sqlite_compileoption_used?$AA@ 100f2c98     sqlite3:sqlite3.obj
 0002:00011cb4       ??_C@_0BJ@BHKPGCCL@sqlite_compileoption_get?$AA@ 100f2cb4     sqlite3:sqlite3.obj
 0002:00011cd0       ??_C@_08FIGEBGNH@unlikely?$AA@ 100f2cd0     sqlite3:sqlite3.obj
 0002:00011cdc       ??_C@_0L@EOIJFFJE@likelihood?$AA@ 100f2cdc     sqlite3:sqlite3.obj
 0002:00011ce8       ??_C@_06FMFEOJBE@likely?$AA@ 100f2ce8     sqlite3:sqlite3.obj
 0002:00011cf0       ??_C@_05GLDKFKCA@ltrim?$AA@ 100f2cf0     sqlite3:sqlite3.obj
 0002:00011cf8       ??_C@_05FCOGDJML@rtrim?$AA@ 100f2cf8     sqlite3:sqlite3.obj
 0002:00011d00       ??_C@_04GDOMMDLP@trim?$AA@ 100f2d00     sqlite3:sqlite3.obj
 0002:00011d08       ??_C@_03KLIPLJLL@min?$AA@  100f2d08     sqlite3:sqlite3.obj
 0002:00011d0c       ??_C@_03LJAEFNNE@max?$AA@  100f2d0c     sqlite3:sqlite3.obj
 0002:00011d10       ??_C@_06NDJPCPHC@typeof?$AA@ 100f2d10     sqlite3:sqlite3.obj
 0002:00011d18       ??_C@_05HALPBNGI@instr?$AA@ 100f2d18     sqlite3:sqlite3.obj
 0002:00011d20       ??_C@_06OHJFMFMB@printf?$AA@ 100f2d20     sqlite3:sqlite3.obj
 0002:00011d28       ??_C@_07GAJMMAJO@unicode?$AA@ 100f2d28     sqlite3:sqlite3.obj
 0002:00011d30       ??_C@_04ENMBGAPA@char?$AA@ 100f2d30     sqlite3:sqlite3.obj
 0002:00011d38       ??_C@_03BCGAIFPO@abs?$AA@  100f2d38     sqlite3:sqlite3.obj
 0002:00011d3c       ??_C@_05MIMAKCN@round?$AA@ 100f2d3c     sqlite3:sqlite3.obj
 0002:00011d44       ??_C@_05NECKJAMC@upper?$AA@ 100f2d44     sqlite3:sqlite3.obj
 0002:00011d4c       ??_C@_05IPJEPLHL@lower?$AA@ 100f2d4c     sqlite3:sqlite3.obj
 0002:00011d54       ??_C@_03IJNDAFDK@hex?$AA@  100f2d54     sqlite3:sqlite3.obj
 0002:00011d58       ??_C@_06FAHGEKJN@ifnull?$AA@ 100f2d58     sqlite3:sqlite3.obj
 0002:00011d60       ??_C@_06NLFCANPD@random?$AA@ 100f2d60     sqlite3:sqlite3.obj
 0002:00011d68       ??_C@_0L@IDMFPHDO@randomblob?$AA@ 100f2d68     sqlite3:sqlite3.obj
 0002:00011d74       ??_C@_06LLGGGFDC@nullif?$AA@ 100f2d74     sqlite3:sqlite3.obj
 0002:00011d7c       ??_C@_0P@IPDPEBN@sqlite_version?$AA@ 100f2d7c     sqlite3:sqlite3.obj
 0002:00011d8c       ??_C@_0BB@HPCCOLJC@sqlite_source_id?$AA@ 100f2d8c     sqlite3:sqlite3.obj
 0002:00011da0       ??_C@_0L@HNFKFGGK@sqlite_log?$AA@ 100f2da0     sqlite3:sqlite3.obj
 0002:00011dac       ??_C@_05JHEGFHLM@quote?$AA@ 100f2dac     sqlite3:sqlite3.obj
 0002:00011db4       ??_C@_0BC@EKKKCJJE@last_insert_rowid?$AA@ 100f2db4     sqlite3:sqlite3.obj
 0002:00011dc8       ??_C@_0O@MLEKHAGK@total_changes?$AA@ 100f2dc8     sqlite3:sqlite3.obj
 0002:00011dd8       ??_C@_07CLEHDIEJ@replace?$AA@ 100f2dd8     sqlite3:sqlite3.obj
 0002:00011de0       ??_C@_08OAGHJJOG@zeroblob?$AA@ 100f2de0     sqlite3:sqlite3.obj
 0002:00011dec       ??_C@_06DAHFIGOC@substr?$AA@ 100f2dec     sqlite3:sqlite3.obj
 0002:00011df4       ??_C@_03CFFIJAMA@sum?$AA@  100f2df4     sqlite3:sqlite3.obj
 0002:00011df8       ??_C@_05KBOMEDGA@total?$AA@ 100f2df8     sqlite3:sqlite3.obj
 0002:00011e00       ??_C@_03CHOBFJAH@avg?$AA@  100f2e00     sqlite3:sqlite3.obj
 0002:00011e04       ??_C@_05IOMEMJEC@count?$AA@ 100f2e04     sqlite3:sqlite3.obj
 0002:00011e0c       ??_C@_0N@KKLIBDFO@group_concat?$AA@ 100f2e0c     sqlite3:sqlite3.obj
 0002:00011e1c       ??_C@_04HHHPGODM@glob?$AA@ 100f2e1c     sqlite3:sqlite3.obj
 0002:00011e24       ??_C@_08FNGHHBID@coalesce?$AA@ 100f2e24     sqlite3:sqlite3.obj
 0002:00011e30       ??_C@_0CN@NOKHDNFH@foreign?5key?5mismatch?5?9?5?$CC?$CFw?$CC?5refe@ 100f2e30     sqlite3:sqlite3.obj
 0002:00011e60       ??_C@_0CA@HKGLKLIP@table?5?$CFS?5has?5no?5column?5named?5?$CFs?$AA@ 100f2e60     sqlite3:sqlite3.obj
 0002:00011e80       ??_C@_0DE@HLHNLKJ@table?5?$CFS?5has?5?$CFd?5columns?5but?5?$CFd?5v@ 100f2e80     sqlite3:sqlite3.obj
 0002:00011eb4       ??_C@_0BJ@IABIHKKK@?$CFd?5values?5for?5?$CFd?5columns?$AA@ 100f2eb4     sqlite3:sqlite3.obj
 0002:00011ed0       ??_C@_0CO@JHGLNKML@UPSERT?5not?5implemented?5for?5virtu@ 100f2ed0     sqlite3:sqlite3.obj
 0002:00011f00       ??_C@_0O@OMFDFDMH@rows?5inserted?$AA@ 100f2f00     sqlite3:sqlite3.obj
 0002:00011f10       ??_C@_03OCHKFGFI@dll?$AA@  100f2f10     sqlite3:sqlite3.obj
 0002:00011f14       ??_C@_0BH@NNAEMFED@sqlite3_extension_init?$AA@ 100f2f14     sqlite3:sqlite3.obj
 0002:00011f2c       ??_C@_0CD@FENJJFPL@unable?5to?5open?5shared?5library?5?$FL?$CF@ 100f2f2c     sqlite3:sqlite3.obj
 0002:00011f50       ??_C@_08MIGLKGCA@sqlite3_?$AA@ 100f2f50     sqlite3:sqlite3.obj
 0002:00011f5c       ??_C@_03LPIGJBNC@lib?$AA@  100f2f5c     sqlite3:sqlite3.obj
 0002:00011f60       ??_C@_05PAGLDNCP@_init?$AA@ 100f2f60     sqlite3:sqlite3.obj
 0002:00011f68       ??_C@_0CL@IHPFGADB@no?5entry?5point?5?$FL?$CFs?$FN?5in?5shared?5li@ 100f2f68     sqlite3:sqlite3.obj
 0002:00011f94       ??_C@_0CA@BPLHPOIJ@error?5during?5initialization?3?5?$CFs?$AA@ 100f2f94     sqlite3:sqlite3.obj
 0002:00011fb4       ??_C@_0CH@EKKEGGML@automatic?5extension?5loading?5fail@ 100f2fb4     sqlite3:sqlite3.obj
 0002:00011fdc       ??_C@_02EGCJHIOB@id?$AA@   100f2fdc     sqlite3:sqlite3.obj
 0002:00011fe0       ??_C@_03NPAJGOON@seq?$AA@  100f2fe0     sqlite3:sqlite3.obj
 0002:00011fe4       ??_C@_04HNEBHLOP@from?$AA@ 100f2fe4     sqlite3:sqlite3.obj
 0002:00011fec       ??_C@_02LBCDJBAJ@to?$AA@   100f2fec     sqlite3:sqlite3.obj
 0002:00011ff0       ??_C@_09DFBGJPOA@on_update?$AA@ 100f2ff0     sqlite3:sqlite3.obj
 0002:00011ffc       ??_C@_09BILGEHCE@on_delete?$AA@ 100f2ffc     sqlite3:sqlite3.obj
 0002:00012008       ??_C@_05FNONLPDI@match?$AA@ 100f3008     sqlite3:sqlite3.obj
 0002:00012010       ??_C@_03LBLPCGAC@cid?$AA@  100f3010     sqlite3:sqlite3.obj
 0002:00012014       ??_C@_07EAJHGOKJ@notnull?$AA@ 100f3014     sqlite3:sqlite3.obj
 0002:0001201c       ??_C@_0L@KNDFGGNJ@dflt_value?$AA@ 100f301c     sqlite3:sqlite3.obj
 0002:00012028       ??_C@_02NCEGPMNB@pk?$AA@   100f3028     sqlite3:sqlite3.obj
 0002:0001202c       ??_C@_06JIKFICKK@hidden?$AA@ 100f302c     sqlite3:sqlite3.obj
 0002:00012034       ??_C@_05OBPGIPLF@seqno?$AA@ 100f3034     sqlite3:sqlite3.obj
 0002:0001203c       ??_C@_04EBPADADD@desc?$AA@ 100f303c     sqlite3:sqlite3.obj
 0002:00012044       ??_C@_04MIPPEMF@coll?$AA@  100f3044     sqlite3:sqlite3.obj
 0002:0001204c       ??_C@_03ICHNJLJF@key?$AA@  100f304c     sqlite3:sqlite3.obj
 0002:00012050       ??_C@_04DILHHFEK@wdth?$AA@ 100f3050     sqlite3:sqlite3.obj
 0002:00012058       ??_C@_04DLPJNNLO@hght?$AA@ 100f3058     sqlite3:sqlite3.obj
 0002:00012060       ??_C@_04BHNFDFCE@flgs?$AA@ 100f3060     sqlite3:sqlite3.obj
 0002:00012068       ??_C@_06ODCMFGLL@unique?$AA@ 100f3068     sqlite3:sqlite3.obj
 0002:00012070       ??_C@_06NHCMNMEH@origin?$AA@ 100f3070     sqlite3:sqlite3.obj
 0002:00012078       ??_C@_07JHIHCBKH@partial?$AA@ 100f3078     sqlite3:sqlite3.obj
 0002:00012080       ??_C@_05KDMKNECD@rowid?$AA@ 100f3080     sqlite3:sqlite3.obj
 0002:00012088       ??_C@_06MLKDMCBD@parent?$AA@ 100f3088     sqlite3:sqlite3.obj
 0002:00012090       ??_C@_04IFBPKEAB@fkid?$AA@ 100f3090     sqlite3:sqlite3.obj
 0002:00012098       ??_C@_04DAMGJPCA@file?$AA@ 100f3098     sqlite3:sqlite3.obj
 0002:000120a0       ??_C@_04COIEGINH@busy?$AA@ 100f30a0     sqlite3:sqlite3.obj
 0002:000120a8       ??_C@_03MGHMBJCF@log?$AA@  100f30a8     sqlite3:sqlite3.obj
 0002:000120ac       ??_C@_0N@NLAOCFOK@checkpointed?$AA@ 100f30ac     sqlite3:sqlite3.obj
 0002:000120bc       ??_C@_07JNFPDNEP@builtin?$AA@ 100f30bc     sqlite3:sqlite3.obj
 0002:000120c4       ??_C@_06DJIHEMFI@status?$AA@ 100f30c4     sqlite3:sqlite3.obj
 0002:000120cc       ??_C@_0L@JIGNFOJJ@cache_size?$AA@ 100f30cc     sqlite3:sqlite3.obj
 0002:000120d8       ??_C@_07DDHNKDGP@timeout?$AA@ 100f30d8     sqlite3:sqlite3.obj
 0002:000120e0       ??_C@_0P@MIBGKNHF@application_id?$AA@ 100f30e0     sqlite3:sqlite3.obj
 0002:000120f0       ??_C@_0M@ENMLGDH@auto_vacuum?$AA@ 100f30f0     sqlite3:sqlite3.obj
 0002:000120fc       ??_C@_0BA@NMINPKHE@automatic_index?$AA@ 100f30fc     sqlite3:sqlite3.obj
 0002:0001210c       ??_C@_0N@ELBKLHHC@busy_timeout?$AA@ 100f310c     sqlite3:sqlite3.obj
 0002:0001211c       ??_C@_0M@GAIOFEBI@cache_spill?$AA@ 100f311c     sqlite3:sqlite3.obj
 0002:00012128       ??_C@_0BE@LKBHCIHN@case_sensitive_like?$AA@ 100f3128     sqlite3:sqlite3.obj
 0002:0001213c       ??_C@_0BA@ILJBCKLF@cell_size_check?$AA@ 100f313c     sqlite3:sqlite3.obj
 0002:0001214c       ??_C@_0BF@IOJNJBPA@checkpoint_fullfsync?$AA@ 100f314c     sqlite3:sqlite3.obj
 0002:00012164       ??_C@_0P@KOJNIGCH@collation_list?$AA@ 100f3164     sqlite3:sqlite3.obj
 0002:00012174       ??_C@_0BA@CFJEIIDP@compile_options?$AA@ 100f3174     sqlite3:sqlite3.obj
 0002:00012184       ??_C@_0O@PEBBJPHD@count_changes?$AA@ 100f3184     sqlite3:sqlite3.obj
 0002:00012194       ??_C@_0BF@OGPCDMDP@data_store_directory?$AA@ 100f3194     sqlite3:sqlite3.obj
 0002:000121ac       ??_C@_0N@OFPBFGHH@data_version?$AA@ 100f31ac     sqlite3:sqlite3.obj
 0002:000121bc       ??_C@_0O@EBMNDACF@database_list?$AA@ 100f31bc     sqlite3:sqlite3.obj
 0002:000121cc       ??_C@_0BD@DIGJFFIE@defer_foreign_keys?$AA@ 100f31cc     sqlite3:sqlite3.obj
 0002:000121e0       ??_C@_0BH@CMLDBHJP@empty_result_callbacks?$AA@ 100f31e0     sqlite3:sqlite3.obj
 0002:000121f8       ??_C@_08MLPGAEIK@encoding?$AA@ 100f31f8     sqlite3:sqlite3.obj
 0002:00012204       ??_C@_0BC@CIFGNOOA@foreign_key_check?$AA@ 100f3204     sqlite3:sqlite3.obj
 0002:00012218       ??_C@_0BB@KJMCGNAI@foreign_key_list?$AA@ 100f3218     sqlite3:sqlite3.obj
 0002:0001222c       ??_C@_0N@CEEMEAMB@foreign_keys?$AA@ 100f322c     sqlite3:sqlite3.obj
 0002:0001223c       ??_C@_0P@GDKICNML@freelist_count?$AA@ 100f323c     sqlite3:sqlite3.obj
 0002:0001224c       ??_C@_0BC@CBBNFKC@full_column_names?$AA@ 100f324c     sqlite3:sqlite3.obj
 0002:00012260       ??_C@_09MLJLLBEB@fullfsync?$AA@ 100f3260     sqlite3:sqlite3.obj
 0002:0001226c       ??_C@_0O@NCCFKHLB@function_list?$AA@ 100f326c     sqlite3:sqlite3.obj
 0002:0001227c       ??_C@_0BJ@KLIMENGM@ignore_check_constraints?$AA@ 100f327c     sqlite3:sqlite3.obj
 0002:00012298       ??_C@_0BD@IEMDKFHA@incremental_vacuum?$AA@ 100f3298     sqlite3:sqlite3.obj
 0002:000122ac       ??_C@_0L@CKPANNIC@index_info?$AA@ 100f32ac     sqlite3:sqlite3.obj
 0002:000122b8       ??_C@_0L@MMBMMAEK@index_list?$AA@ 100f32b8     sqlite3:sqlite3.obj
 0002:000122c4       ??_C@_0M@FBDGHLPH@index_xinfo?$AA@ 100f32c4     sqlite3:sqlite3.obj
 0002:000122d0       ??_C@_0BA@EDNFHOBJ@integrity_check?$AA@ 100f32d0     sqlite3:sqlite3.obj
 0002:000122e0       ??_C@_0N@IPLFJDHP@journal_mode?$AA@ 100f32e0     sqlite3:sqlite3.obj
 0002:000122f0       ??_C@_0BD@MCBLCGGI@journal_size_limit?$AA@ 100f32f0     sqlite3:sqlite3.obj
 0002:00012304       ??_C@_0BD@JHFDOKNC@legacy_alter_table?$AA@ 100f3304     sqlite3:sqlite3.obj
 0002:00012318       ??_C@_0BD@LEFOEGBK@legacy_file_format?$AA@ 100f3318     sqlite3:sqlite3.obj
 0002:0001232c       ??_C@_0N@NOOMDJH@locking_mode?$AA@ 100f332c     sqlite3:sqlite3.obj
 0002:0001233c       ??_C@_0P@FMLMLOHD@max_page_count?$AA@ 100f333c     sqlite3:sqlite3.obj
 0002:0001234c       ??_C@_09CBABOEGE@mmap_size?$AA@ 100f334c     sqlite3:sqlite3.obj
 0002:00012358       ??_C@_0M@DHNJDALC@module_list?$AA@ 100f3358     sqlite3:sqlite3.obj
 0002:00012364       ??_C@_08GHMAOHAP@optimize?$AA@ 100f3364     sqlite3:sqlite3.obj
 0002:00012370       ??_C@_0L@OBBCDPFM@page_count?$AA@ 100f3370     sqlite3:sqlite3.obj
 0002:0001237c       ??_C@_09OGOMKHMG@page_size?$AA@ 100f337c     sqlite3:sqlite3.obj
 0002:00012388       ??_C@_0M@JMPGNAFC@pragma_list?$AA@ 100f3388     sqlite3:sqlite3.obj
 0002:00012394       ??_C@_0L@LILGGAHH@query_only?$AA@ 100f3394     sqlite3:sqlite3.obj
 0002:000123a0       ??_C@_0M@EDPCDMIO@quick_check?$AA@ 100f33a0     sqlite3:sqlite3.obj
 0002:000123ac       ??_C@_0BB@KLHJNGLH@read_uncommitted?$AA@ 100f33ac     sqlite3:sqlite3.obj
 0002:000123c0       ??_C@_0BD@IAMNLMFM@recursive_triggers?$AA@ 100f33c0     sqlite3:sqlite3.obj
 0002:000123d4       ??_C@_0BK@ECMFJINF@reverse_unordered_selects?$AA@ 100f33d4     sqlite3:sqlite3.obj
 0002:000123f0       ??_C@_0P@JGMMHBPP@schema_version?$AA@ 100f33f0     sqlite3:sqlite3.obj
 0002:00012400       ??_C@_0O@CPOJHNIK@secure_delete?$AA@ 100f3400     sqlite3:sqlite3.obj
 0002:00012410       ??_C@_0BD@BFIEDLEP@short_column_names?$AA@ 100f3410     sqlite3:sqlite3.obj
 0002:00012424       ??_C@_0O@ILHLPNHH@shrink_memory?$AA@ 100f3424     sqlite3:sqlite3.obj
 0002:00012434       ??_C@_0BA@HCOALODB@soft_heap_limit?$AA@ 100f3434     sqlite3:sqlite3.obj
 0002:00012444       ??_C@_0M@GKGFOGDE@synchronous?$AA@ 100f3444     sqlite3:sqlite3.obj
 0002:00012450       ??_C@_0L@NEMFJAGM@table_info?$AA@ 100f3450     sqlite3:sqlite3.obj
 0002:0001245c       ??_C@_0M@BGHKIBMF@table_xinfo?$AA@ 100f345c     sqlite3:sqlite3.obj
 0002:00012468       ??_C@_0L@JEPCDDIC@temp_store?$AA@ 100f3468     sqlite3:sqlite3.obj
 0002:00012474       ??_C@_0BF@OPALIJKE@temp_store_directory?$AA@ 100f3474     sqlite3:sqlite3.obj
 0002:0001248c       ??_C@_07NFPADACG@threads?$AA@ 100f348c     sqlite3:sqlite3.obj
 0002:00012494       ??_C@_0N@MPKCHLKL@user_version?$AA@ 100f3494     sqlite3:sqlite3.obj
 0002:000124a4       ??_C@_0BD@JPABJEAI@wal_autocheckpoint?$AA@ 100f34a4     sqlite3:sqlite3.obj
 0002:000124b8       ??_C@_0P@OLFGCBDE@wal_checkpoint?$AA@ 100f34b8     sqlite3:sqlite3.obj
 0002:000124c8       ??_C@_0BA@OHBCLCAL@writable_schema?$AA@ 100f34c8     sqlite3:sqlite3.obj
 0002:000124d8       ??_C@_09JJPHINFN@exclusive?$AA@ 100f34d8     sqlite3:sqlite3.obj
 0002:000124e4       ??_C@_06IKLLLDHL@normal?$AA@ 100f34e4     sqlite3:sqlite3.obj
 0002:000124ec       ??_C@_04CGFJFPFD@none?$AA@ 100f34ec     sqlite3:sqlite3.obj
 0002:000124f4       ??_C@_04PLMLMMEO@full?$AA@ 100f34f4     sqlite3:sqlite3.obj
 0002:000124fc       ??_C@_0M@LPKHOAFP@incremental?$AA@ 100f34fc     sqlite3:sqlite3.obj
 0002:00012508       ??_C@_0DO@MAKCDDCJ@temporary?5storage?5cannot?5be?5chan@ 100f3508     sqlite3:sqlite3.obj
 0002:00012548       ??_C@_08NNDOPPOM@SET?5NULL?$AA@ 100f3548     sqlite3:sqlite3.obj
 0002:00012554       ??_C@_0M@GCMLNHF@SET?5DEFAULT?$AA@ 100f3554     sqlite3:sqlite3.obj
 0002:00012560       ??_C@_07JDMPGCJB@CASCADE?$AA@ 100f3560     sqlite3:sqlite3.obj
 0002:00012568       ??_C@_08KJMJNHDG@RESTRICT?$AA@ 100f3568     sqlite3:sqlite3.obj
 0002:00012574       ??_C@_09DBFINONP@NO?5ACTION?$AA@ 100f3574     sqlite3:sqlite3.obj
 0002:00012580       ??_C@_06FOBLBEIN@delete?$AA@ 100f3580     sqlite3:sqlite3.obj
 0002:00012588       ??_C@_07EMFBDGOD@persist?$AA@ 100f3588     sqlite3:sqlite3.obj
 0002:00012590       ??_C@_03MCADLMAF@off?$AA@  100f3590     sqlite3:sqlite3.obj
 0002:00012594       ??_C@_08MABILMFG@truncate?$AA@ 100f3594     sqlite3:sqlite3.obj
 0002:000125a0       ??_C@_03KIAODNHK@wal?$AA@  100f35a0     sqlite3:sqlite3.obj
 0002:000125a4       ??_C@_03GMLCELFL@?9?$CFT?$AA@ 100f35a4     sqlite3:sqlite3.obj
 0002:000125a8       ??_C@_04LBNBHAJC@fast?$AA@ 100f35a8     sqlite3:sqlite3.obj
 0002:000125b0       ??_C@_0BJ@INLPNACB@not?5a?5writable?5directory?$AA@ 100f35b0     sqlite3:sqlite3.obj
 0002:000125cc       ??_C@_0DF@GMDBDCKL@Safety?5level?5may?5not?5be?5changed?5@ 100f35cc     sqlite3:sqlite3.obj
 0002:00012604       ??_C@_07BLNOBENA@issisii?$AA@ 100f3604     sqlite3:sqlite3.obj
 0002:0001260c       ??_C@_06OLNPHCKJ@issisi?$AA@ 100f360c     sqlite3:sqlite3.obj
 0002:00012614       ??_C@_04MPAEKEAC@iisX?$AA@ 100f3614     sqlite3:sqlite3.obj
 0002:0001261c       ??_C@_04OBBBDFFP@isiX?$AA@ 100f361c     sqlite3:sqlite3.obj
 0002:00012624       ??_C@_01PAPGNFGE@c?$AA@    100f3624     sqlite3:sqlite3.obj
 0002:00012628       ??_C@_01OMGOGALD@u?$AA@    100f3628     sqlite3:sqlite3.obj
 0002:0001262c       ??_C@_05HLBCCELP@isisi?$AA@ 100f362c     sqlite3:sqlite3.obj
 0002:00012634       ??_C@_03MKDAGEFG@iss?$AA@  100f3634     sqlite3:sqlite3.obj
 0002:00012638       ??_C@_02EDKKPMHH@is?$AA@   100f3638     sqlite3:sqlite3.obj
 0002:0001263c       ??_C@_02OCDGCAAK@si?$AA@   100f363c     sqlite3:sqlite3.obj
 0002:00012640       ??_C@_01LKDEMHDF@s?$AA@    100f3640     sqlite3:sqlite3.obj
 0002:00012644       ??_C@_04OKGDLNCL@NONE?$AA@ 100f3644     sqlite3:sqlite3.obj
 0002:0001264c       ??_C@_08ODPJLLLG@iissssss?$AA@ 100f364c     sqlite3:sqlite3.obj
 0002:00012658       ??_C@_03JCFFAIGC@siX?$AA@  100f3658     sqlite3:sqlite3.obj
 0002:0001265c       ??_C@_0BI@FOLPKNAK@?$CK?$CK?$CK?5in?5database?5?$CFs?5?$CK?$CK?$CK?6?$AA@ 100f365c     sqlite3:sqlite3.obj
 0002:00012674       ??_C@_0BE@NPIDKCIA@NULL?5value?5in?5?$CFs?4?$CFs?$AA@ 100f3674     sqlite3:sqlite3.obj
 0002:00012688       ??_C@_0BO@NENBDEJP@CHECK?5constraint?5failed?5in?5?$CFs?$AA@ 100f3688     sqlite3:sqlite3.obj
 0002:000126a8       ??_C@_04BNLAAGGP@row?5?$AA@ 100f36a8     sqlite3:sqlite3.obj
 0002:000126b0       ??_C@_0BF@JGBLFHJL@?5missing?5from?5index?5?$AA@ 100f36b0     sqlite3:sqlite3.obj
 0002:000126c8       ??_C@_0BL@POCBBOHD@non?9unique?5entry?5in?5index?5?$AA@ 100f36c8     sqlite3:sqlite3.obj
 0002:000126e4       ??_C@_0BN@JKHLHJNK@wrong?5?$CD?5of?5entries?5in?5index?5?$AA@ 100f36e4     sqlite3:sqlite3.obj
 0002:00012704       ??_C@_02MFDMBIJM@ok?$AA@   100f3704     sqlite3:sqlite3.obj
 0002:00012708       ??_C@_04OOMJJNCF@UTF8?$AA@ 100f3708     sqlite3:sqlite3.obj
 0002:00012710       ??_C@_05EGJIMALK@UTF?98?$AA@ 100f3710     sqlite3:sqlite3.obj
 0002:00012718       ??_C@_08HMPANPBC@UTF?916le?$AA@ 100f3718     sqlite3:sqlite3.obj
 0002:00012724       ??_C@_08HGGOPCBI@UTF?916be?$AA@ 100f3724     sqlite3:sqlite3.obj
 0002:00012730       ??_C@_07JJMGGCAM@UTF16le?$AA@ 100f3730     sqlite3:sqlite3.obj
 0002:00012738       ??_C@_07JDFIEPAG@UTF16be?$AA@ 100f3738     sqlite3:sqlite3.obj
 0002:00012740       ??_C@_06KNDPGIKI@UTF?916?$AA@ 100f3740     sqlite3:sqlite3.obj
 0002:00012748       ??_C@_05MNCHLHCA@UTF16?$AA@ 100f3748     sqlite3:sqlite3.obj
 0002:00012750       ??_C@_0BJ@GJBMJNNI@unsupported?5encoding?3?5?$CFs?$AA@ 100f3750     sqlite3:sqlite3.obj
 0002:0001276c       ??_C@_07LDHOHMPD@restart?$AA@ 100f376c     sqlite3:sqlite3.obj
 0002:00012774       ??_C@_0BC@NAKLCPPI@ANALYZE?5?$CC?$CFw?$CC?4?$CC?$CFw?$CC?$AA@ 100f3774     sqlite3:sqlite3.obj
 0002:00012788       ??_C@_0P@JDEMFLCF@CREATE?5TABLE?5x?$AA@ 100f3788     sqlite3:sqlite3.obj
 0002:00012798       ??_C@_06KMJOPIAP@?$CFc?$CC?$CFs?$CC?$AA@ 100f3798     sqlite3:sqlite3.obj
 0002:000127a0       ??_C@_05HICKGKEG@?$CI?$CC?$CFs?$CC?$AA@ 100f37a0     sqlite3:sqlite3.obj
 0002:000127a8       ??_C@_0M@MFJOEBHG@?0arg?5HIDDEN?$AA@ 100f37a8     sqlite3:sqlite3.obj
 0002:000127b4       ??_C@_0P@KHJMGPGI@?0schema?5HIDDEN?$AA@ 100f37b4     sqlite3:sqlite3.obj
 0002:000127c4       ??_C@_07NIMEDFOL@PRAGMA?5?$AA@ 100f37c4     sqlite3:sqlite3.obj
 0002:000127cc       ??_C@_03CPCODCEE@?$CFQ?4?$AA@ 100f37cc     sqlite3:sqlite3.obj
 0002:000127d0       ??_C@_03EBNMOIIB@?$DN?$CFQ?$AA@ 100f37d0     sqlite3:sqlite3.obj
 0002:000127d4       ??_C@_01OGPIMHDM@?$DP?$AA@ 100f37d4     sqlite3:sqlite3.obj
 0002:000127d8       ??_C@_0BP@EHGGIFII@malformed?5database?5schema?5?$CI?$CFs?$CJ?$AA@ 100f37d8     sqlite3:sqlite3.obj
 0002:000127f8       ??_C@_07MHAICMEC@?$CFz?5?9?5?$CFs?$AA@ 100f37f8     sqlite3:sqlite3.obj
 0002:00012800       ??_C@_07HMOAJMHK@create?5?$AA@ 100f3800     sqlite3:sqlite3.obj
 0002:00012808       ??_C@_0N@HIOIKMCH@orphan?5index?$AA@ 100f3808     sqlite3:sqlite3.obj
 0002:00012818       ??_C@_0EI@PHDEEPEH@CREATE?5TABLE?5x?$CItype?5text?0name?5te@ 100f3818     sqlite3:sqlite3.obj
 0002:00012860       ??_C@_0BI@FFDCNLCF@unsupported?5file?5format?$AA@ 100f3860     sqlite3:sqlite3.obj
 0002:00012878       ??_C@_0DH@KOGIOIF@SELECT?5name?0?5rootpage?0?5sql?5FROM?5@ 100f3878     sqlite3:sqlite3.obj
 0002:000128b0       ??_C@_0BO@EBFEALBC@database?5schema?5is?5locked?3?5?$CFs?$AA@ 100f38b0     sqlite3:sqlite3.obj
 0002:000128d0       ??_C@_0BD@NDJILONF@statement?5too?5long?$AA@ 100f38d0     sqlite3:sqlite3.obj
 0002:000128e4       ??_C@_04HLBMEOMD@addr?$AA@ 100f38e4     sqlite3:sqlite3.obj
 0002:000128ec       ??_C@_06POMMAHJK@opcode?$AA@ 100f38ec     sqlite3:sqlite3.obj
 0002:000128f4       ??_C@_02JCBCEJAP@p1?$AA@   100f38f4     sqlite3:sqlite3.obj
 0002:000128f8       ??_C@_02LJDPBKMM@p2?$AA@   100f38f8     sqlite3:sqlite3.obj
 0002:000128fc       ??_C@_02KACECLIN@p3?$AA@   100f38fc     sqlite3:sqlite3.obj
 0002:00012900       ??_C@_02OPGFLNEK@p4?$AA@   100f3900     sqlite3:sqlite3.obj
 0002:00012904       ??_C@_02PGHOIMAL@p5?$AA@   100f3904     sqlite3:sqlite3.obj
 0002:00012908       ??_C@_07GJGNEJFD@comment?$AA@ 100f3908     sqlite3:sqlite3.obj
 0002:00012910       ??_C@_07LFMECGGB@notused?$AA@ 100f3910     sqlite3:sqlite3.obj
 0002:00012918       ??_C@_06EENFNEPD@detail?$AA@ 100f3918     sqlite3:sqlite3.obj
 0002:00012920       ??_C@_0CM@LOMFMKCH@unknown?5or?5unsupported?5join?5type@ 100f3920     sqlite3:sqlite3.obj
 0002:0001294c       ??_C@_0DH@LJEHIDDA@RIGHT?5and?5FULL?5OUTER?5JOINs?5are?5n@ 100f394c     sqlite3:sqlite3.obj
 0002:00012984       ??_C@_0DC@NBGJANJH@a?5NATURAL?5join?5may?5not?5have?5an?5O@ 100f3984     sqlite3:sqlite3.obj
 0002:000129b8       ??_C@_0DH@DHMOHNCE@cannot?5have?5both?5ON?5and?5USING?5cl@ 100f39b8     sqlite3:sqlite3.obj
 0002:000129f0       ??_C@_0EA@LFCKDDII@cannot?5join?5using?5column?5?$CFs?5?9?5co@ 100f39f0     sqlite3:sqlite3.obj
 0002:00012a30       ??_C@_09CDPONBKL@UNION?5ALL?$AA@ 100f3a30     sqlite3:sqlite3.obj
 0002:00012a3c       ??_C@_09JBOBNLLF@INTERSECT?$AA@ 100f3a3c     sqlite3:sqlite3.obj
 0002:00012a48       ??_C@_06JFIPMMLD@EXCEPT?$AA@ 100f3a48     sqlite3:sqlite3.obj
 0002:00012a50       ??_C@_05GJNJOPB@UNION?$AA@ 100f3a50     sqlite3:sqlite3.obj
 0002:00012a58       ??_C@_0BH@JCGMDKCI@USE?5TEMP?5B?9TREE?5FOR?5?$CFs?$AA@ 100f3a58     sqlite3:sqlite3.obj
 0002:00012a70       ??_C@_08OHGGEHKA@column?$CFd?$AA@ 100f3a70     sqlite3:sqlite3.obj
 0002:00012a7c       ??_C@_07FCMEMBCG@?$CF?4?$CKz?3?$CFu?$AA@ 100f3a7c     sqlite3:sqlite3.obj
 0002:00012a84       ??_C@_0DB@IDOGBFGM@cannot?5use?5window?5functions?5in?5r@ 100f3a84     sqlite3:sqlite3.obj
 0002:00012ab8       ??_C@_05MAJHNKMG@SETUP?$AA@ 100f3ab8     sqlite3:sqlite3.obj
 0002:00012ac0       ??_C@_0CK@HHBJKMKL@recursive?5aggregate?5queries?5not?5@ 100f3ac0     sqlite3:sqlite3.obj
 0002:00012aec       ??_C@_0P@BKJGJGJE@RECURSIVE?5STEP?$AA@ 100f3aec     sqlite3:sqlite3.obj
 0002:00012afc       ??_C@_01CPLAODJH@S?$AA@    100f3afc     sqlite3:sqlite3.obj
 0002:00012b00       ??_C@_0BH@EFPFBELE@SCAN?5?$CFd?5CONSTANT?5ROW?$CFs?$AA@ 100f3b00     sqlite3:sqlite3.obj
 0002:00012b18       ??_C@_08BKIJJFKP@ORDER?5BY?$AA@ 100f3b18     sqlite3:sqlite3.obj
 0002:00012b24       ??_C@_05KLKGAAIM@LIMIT?$AA@ 100f3b24     sqlite3:sqlite3.obj
 0002:00012b2c       ??_C@_0CK@PJFEEKBP@?$CFs?5clause?5should?5come?5after?5?$CFs?5n@ 100f3b2c     sqlite3:sqlite3.obj
 0002:00012b58       ??_C@_0P@NDEAKHNM@COMPOUND?5QUERY?$AA@ 100f3b58     sqlite3:sqlite3.obj
 0002:00012b68       ??_C@_0BD@PONGOMAP@LEFT?9MOST?5SUBQUERY?$AA@ 100f3b68     sqlite3:sqlite3.obj
 0002:00012b7c       ??_C@_0BF@IPENMMAK@?$CFs?5USING?5TEMP?5B?9TREE?$AA@ 100f3b7c     sqlite3:sqlite3.obj
 0002:00012b94       ??_C@_0CO@DAHFDIDO@all?5VALUES?5must?5have?5the?5same?5nu@ 100f3b94     sqlite3:sqlite3.obj
 0002:00012bc8       ??_C@_0FC@CMDCIIHA@SELECTs?5to?5the?5left?5and?5right?5of@ 100f3bc8     sqlite3:sqlite3.obj
 0002:00012c1c       ??_C@_0L@OLPIFJNI@MERGE?5?$CI?$CFs?$CJ?$AA@ 100f3c1c     sqlite3:sqlite3.obj
 0002:00012c28       ??_C@_04KCNEHMIH@LEFT?$AA@ 100f3c28     sqlite3:sqlite3.obj
 0002:00012c30       ??_C@_05PMAFOJDE@RIGHT?$AA@ 100f3c30     sqlite3:sqlite3.obj
 0002:00012c38       ??_C@_0BC@EHGCNIF@no?5such?5index?3?5?$CFs?$AA@ 100f3c38     sqlite3:sqlite3.obj
 0002:00012c4c       ??_C@_0BH@COPFJELM@?8?$CFs?8?5is?5not?5a?5function?$AA@ 100f3c4c     sqlite3:sqlite3.obj
 0002:00012c64       ??_C@_0CL@CKHNGNG@multiple?5references?5to?5recursive@ 100f3c64     sqlite3:sqlite3.obj
 0002:00012c90       ??_C@_0BH@IJPFMMLM@circular?5reference?3?5?$CFs?$AA@ 100f3c90     sqlite3:sqlite3.obj
 0002:00012ca8       ??_C@_0CG@GEPIMHHM@table?5?$CFs?5has?5?$CFd?5values?5for?5?$CFd?5co@ 100f3ca8     sqlite3:sqlite3.obj
 0002:00012cd0       ??_C@_0CC@BILCKNBO@multiple?5recursive?5references?3?5?$CF@ 100f3cd0     sqlite3:sqlite3.obj
 0002:00012cf4       ??_C@_0CG@CINNECCN@recursive?5reference?5in?5a?5subquer@ 100f3cf4     sqlite3:sqlite3.obj
 0002:00012d1c       ??_C@_0M@BKPHFDHA@subquery_?$CFu?$AA@ 100f3d1c     sqlite3:sqlite3.obj
 0002:00012d28       ??_C@_0CH@HMBFCKPN@too?5many?5references?5to?5?$CC?$CFs?$CC?3?5max@ 100f3d28     sqlite3:sqlite3.obj
 0002:00012d50       ??_C@_01NBENCBCI@?$CK?$AA@ 100f3d50     sqlite3:sqlite3.obj
 0002:00012d54       ??_C@_08PPKHIAKG@?$CFs?4?$CFs?4?$CFs?$AA@ 100f3d54     sqlite3:sqlite3.obj
 0002:00012d60       ??_C@_0BC@OFCALFBN@no?5such?5table?3?5?$CFs?$AA@ 100f3d60     sqlite3:sqlite3.obj
 0002:00012d74       ??_C@_0BE@EGLAAHPP@no?5tables?5specified?$AA@ 100f3d74     sqlite3:sqlite3.obj
 0002:00012d88       ??_C@_0BP@JFMLENOH@too?5many?5columns?5in?5result?5set?$AA@ 100f3d88     sqlite3:sqlite3.obj
 0002:00012da8       ??_C@_0DD@MKKFPBAF@DISTINCT?5aggregates?5must?5have?5ex@ 100f3da8     sqlite3:sqlite3.obj
 0002:00012ddc       ??_C@_0BH@EIOOLNKK@?5USING?5COVERING?5INDEX?5?$AA@ 100f3ddc     sqlite3:sqlite3.obj
 0002:00012df4       ??_C@_0BC@NNECCOGJ@SCAN?5TABLE?5?$CFs?$CFs?$CFs?$AA@ 100f3df4     sqlite3:sqlite3.obj
 0002:00012e08       ??_C@_0CI@GMLFBPGG@expected?5?$CFd?5columns?5for?5?8?$CFs?8?5but@ 100f3e08     sqlite3:sqlite3.obj
 0002:00012e30       ??_C@_0O@BBBLCBFO@CO?9ROUTINE?5?$CFu?$AA@ 100f3e30     sqlite3:sqlite3.obj
 0002:00012e40       ??_C@_0P@HGFDJMAE@MATERIALIZE?5?$CFu?$AA@ 100f3e40     sqlite3:sqlite3.obj
 0002:00012e50       ??_C@_08KLFLGHKI@DISTINCT?$AA@ 100f3e50     sqlite3:sqlite3.obj
 0002:00012e5c       ??_C@_08NKEADCLG@GROUP?5BY?$AA@ 100f3e5c     sqlite3:sqlite3.obj
 0002:00012e68       ??_C@_0BH@IOPKGOOF@RIGHT?5PART?5OF?5ORDER?5BY?$AA@ 100f3e68     sqlite3:sqlite3.obj
 0002:00012e80       ??_C@_0CO@CGGBEMGD@temporary?5trigger?5may?5not?5have?5q@ 100f3e80     sqlite3:sqlite3.obj
 0002:00012eb0       ??_C@_07DIDNFGDE@trigger?$AA@ 100f3eb0     sqlite3:sqlite3.obj
 0002:00012eb8       ??_C@_0CJ@KLDCMPKB@cannot?5create?5triggers?5on?5virtua@ 100f3eb8     sqlite3:sqlite3.obj
 0002:00012ee4       ??_C@_0BK@IACDKJFA@trigger?5?$CFT?5already?5exists?$AA@ 100f3ee4     sqlite3:sqlite3.obj
 0002:00012f00       ??_C@_0CG@JAGCNIHD@cannot?5create?5trigger?5on?5system?5@ 100f3f00     sqlite3:sqlite3.obj
 0002:00012f28       ??_C@_06BIGAHLBC@BEFORE?$AA@ 100f3f28     sqlite3:sqlite3.obj
 0002:00012f30       ??_C@_05OHDJMCHE@AFTER?$AA@ 100f3f30     sqlite3:sqlite3.obj
 0002:00012f38       ??_C@_0CF@CNPIEMED@cannot?5create?5?$CFs?5trigger?5on?5view@ 100f3f38     sqlite3:sqlite3.obj
 0002:00012f60       ??_C@_0CO@GJNALGCE@cannot?5create?5INSTEAD?5OF?5trigger@ 100f3f60     sqlite3:sqlite3.obj
 0002:00012f90       ??_C@_0EA@IJNEMIHP@INSERT?5INTO?5?$CFQ?4?$CFs?5VALUES?$CI?8trigge@ 100f3f90     sqlite3:sqlite3.obj
 0002:00012fd0       ??_C@_0BN@JFPIJHCG@type?$DN?8trigger?8?5AND?5name?$DN?8?$CFq?8?$AA@ 100f3fd0     sqlite3:sqlite3.obj
 0002:00012ff0       ??_C@_0BE@ELCABEID@no?5such?5trigger?3?5?$CFS?$AA@ 100f3ff0     sqlite3:sqlite3.obj
 0002:00013004       ??_C@_0DD@OCMFALEA@DELETE?5FROM?5?$CFQ?4?$CFs?5WHERE?5name?$DN?$CFQ?5@ 100f4004     sqlite3:sqlite3.obj
 0002:00013038       ??_C@_0O@JKBKLFDA@?9?9?5TRIGGER?5?$CFs?$AA@ 100f4038     sqlite3:sqlite3.obj
 0002:00013048       ??_C@_06HHJABCJL@UPDATE?$AA@ 100f4048     sqlite3:sqlite3.obj
 0002:00013050       ??_C@_0BD@IEIMFPKF@no?5such?5column?3?5?$CFs?$AA@ 100f4050     sqlite3:sqlite3.obj
 0002:00013064       ??_C@_0N@KMEMLEEO@rows?5updated?$AA@ 100f4064     sqlite3:sqlite3.obj
 0002:00013078       ??_C@_0EH@DELCAKGM@ON?5CONFLICT?5clause?5does?5not?5matc@ 100f4078     sqlite3:sqlite3.obj
 0002:000130c0       ??_C@_03LFCMJGKO@CRE?$AA@  100f40c0     sqlite3:sqlite3.obj
 0002:000130c4       ??_C@_03NDDFJJAJ@INS?$AA@  100f40c4     sqlite3:sqlite3.obj
 0002:000130c8       ??_C@_0CI@CPMJIPOI@cannot?5VACUUM?5from?5within?5a?5tran@ 100f40c8     sqlite3:sqlite3.obj
 0002:000130f0       ??_C@_0CL@HKLPPLKM@cannot?5VACUUM?5?9?5SQL?5statements?5i@ 100f40f0     sqlite3:sqlite3.obj
 0002:0001311c       ??_C@_0BC@HEHNFMKL@non?9text?5filename?$AA@ 100f411c     sqlite3:sqlite3.obj
 0002:00013130       ??_C@_0BH@GHPDFIBL@ATTACH?5?$CFQ?5AS?5vacuum_db?$AA@ 100f4130     sqlite3:sqlite3.obj
 0002:00013148       ??_C@_0BL@FPDOIFEH@output?5file?5already?5exists?$AA@ 100f4148     sqlite3:sqlite3.obj
 0002:00013168       ??_C@_0GM@GOHMCDJN@SELECT?5sql?5FROM?5?$CC?$CFw?$CC?4sqlite_mast@ 100f4168     sqlite3:sqlite3.obj
 0002:000131d4       ??_C@_0DG@HPCMAOFP@SELECT?5sql?5FROM?5?$CC?$CFw?$CC?4sqlite_mast@ 100f41d4     sqlite3:sqlite3.obj
 0002:00013210       ??_C@_0JH@HEHPCDOG@SELECT?8INSERT?5INTO?5vacuum_db?4?8?$HM?$HM@ 100f4210     sqlite3:sqlite3.obj
 0002:000132a8       ??_C@_0IC@HHOGFJCL@INSERT?5INTO?5vacuum_db?4sqlite_mas@ 100f42a8     sqlite3:sqlite3.obj
 0002:0001332c       ??_C@_0BI@PDMEEOA@CREATE?5VIRTUAL?5TABLE?5?$CFT?$AA@ 100f432c     sqlite3:sqlite3.obj
 0002:00013348       ??_C@_0FI@IFIJAFLJ@UPDATE?5?$CFQ?4?$CFs?5SET?5type?$DN?8table?8?0?5n@ 100f4348     sqlite3:sqlite3.obj
 0002:000133a0       ??_C@_0BL@DGMACLBE@name?$DN?8?$CFq?8?5AND?5type?$DN?8table?8?$AA@ 100f43a0     sqlite3:sqlite3.obj
 0002:000133bc       ??_C@_0CK@JFGPKPML@vtable?5constructor?5called?5recurs@ 100f43bc     sqlite3:sqlite3.obj
 0002:000133e8       ??_C@_0BO@DEKEKMPI@vtable?5constructor?5failed?3?5?$CFs?$AA@ 100f43e8     sqlite3:sqlite3.obj
 0002:00013408       ??_C@_0CO@NAIIFAKI@vtable?5constructor?5did?5not?5decla@ 100f4408     sqlite3:sqlite3.obj
 0002:00013438       ??_C@_0BD@KBJCCNMM@no?5such?5module?3?5?$CFs?$AA@ 100f4438     sqlite3:sqlite3.obj
 0002:0001344c       ??_C@_06OBEENNJP@?$DMexpr?$DO?$AA@ 100f444c     sqlite3:sqlite3.obj
 0002:00013454       ??_C@_05LFNOAECD@?5AND?5?$AA@ 100f4454     sqlite3:sqlite3.obj
 0002:0001345c       ??_C@_01ODHLEDKK@?$CI?$AA@ 100f445c     sqlite3:sqlite3.obj
 0002:00013460       ??_C@_02GFKOMOKH@?5?$CI?$AA@ 100f4460     sqlite3:sqlite3.obj
 0002:00013464       ??_C@_04DNBLPLBL@?$CFs?$DN?$DP?$AA@ 100f4464     sqlite3:sqlite3.obj
 0002:0001346c       ??_C@_07DEPDMHNF@ANY?$CI?$CFs?$CJ?$AA@ 100f446c     sqlite3:sqlite3.obj
 0002:00013474       ??_C@_01PPODPGHN@?$DO?$AA@ 100f4474     sqlite3:sqlite3.obj
 0002:00013478       ??_C@_01MNNFJEPP@?$DM?$AA@ 100f4478     sqlite3:sqlite3.obj
 0002:0001347c       ??_C@_06GBNAAIDA@SEARCH?$AA@ 100f447c     sqlite3:sqlite3.obj
 0002:00013484       ??_C@_04NAGNMPFG@SCAN?$AA@ 100f4484     sqlite3:sqlite3.obj
 0002:0001348c       ??_C@_0N@ENNDIMAG@?5SUBQUERY?5?$CFu?$AA@ 100f448c     sqlite3:sqlite3.obj
 0002:0001349c       ??_C@_09DIBKDOCO@?5TABLE?5?$CFs?$AA@ 100f449c     sqlite3:sqlite3.obj
 0002:000134a8       ??_C@_06IMDPHEMP@?5AS?5?$CFs?$AA@ 100f44a8     sqlite3:sqlite3.obj
 0002:000134b0       ??_C@_0M@DPPBPFJP@PRIMARY?5KEY?$AA@ 100f44b0     sqlite3:sqlite3.obj
 0002:000134bc       ??_C@_0CB@HEDLDBJB@AUTOMATIC?5PARTIAL?5COVERING?5INDEX@ 100f44bc     sqlite3:sqlite3.obj
 0002:000134e0       ??_C@_0BJ@OBMPNMAB@AUTOMATIC?5COVERING?5INDEX?$AA@ 100f44e0     sqlite3:sqlite3.obj
 0002:000134fc       ??_C@_0BC@JHKMHKPK@COVERING?5INDEX?5?$CFs?$AA@ 100f44fc     sqlite3:sqlite3.obj
 0002:00013510       ??_C@_08CKMEMBGN@INDEX?5?$CFs?$AA@ 100f4510     sqlite3:sqlite3.obj
 0002:0001351c       ??_C@_07FGCFFEFI@?5USING?5?$AA@ 100f451c     sqlite3:sqlite3.obj
 0002:00013524       ??_C@_01NEMOKFLO@?$DN?$AA@ 100f4524     sqlite3:sqlite3.obj
 0002:00013528       ??_C@_0O@CICIFHFH@?$DO?$DP?5AND?5rowid?$DM?$AA@ 100f4528     sqlite3:sqlite3.obj
 0002:00013538       ??_C@_0CG@OJDGGIHC@?5USING?5INTEGER?5PRIMARY?5KEY?5?$CIrowi@ 100f4538     sqlite3:sqlite3.obj
 0002:00013560       ??_C@_0BL@NFGDLEEC@?5VIRTUAL?5TABLE?5INDEX?5?$CFd?3?$CFs?$AA@ 100f4560     sqlite3:sqlite3.obj
 0002:0001357c       ??_C@_0P@EIHAMHJJ@MULTI?9INDEX?5OR?$AA@ 100f457c     sqlite3:sqlite3.obj
 0002:0001358c       ??_C@_08CPEHEFPL@INDEX?5?$CFd?$AA@ 100f458c     sqlite3:sqlite3.obj
 0002:00013598       ??_C@_06BDGKJDBI@regexp?$AA@ 100f4598     sqlite3:sqlite3.obj
 0002:000135a0       ??_C@_0CJ@DOAPMDLM@ON?5clause?5references?5tables?5to?5i@ 100f45a0     sqlite3:sqlite3.obj
 0002:000135cc       ??_C@_06FHKGKAHE@NOCASE?$AA@ 100f45cc     sqlite3:sqlite3.obj
 0002:000135d4       ??_C@_0CE@MBDKDMPE@too?5many?5arguments?5on?5?$CFs?$CI?$CJ?5?9?5max@ 100f45d4     sqlite3:sqlite3.obj
 0002:000135f8       ??_C@_0BK@FFCJJLEP@automatic?5index?5on?5?$CFs?$CI?$CFs?$CJ?$AA@ 100f45f8     sqlite3:sqlite3.obj
 0002:00013614       ??_C@_0L@LOLDMHK@auto?9index?$AA@ 100f4614     sqlite3:sqlite3.obj
 0002:00013620       ??_C@_0BK@BDHGLICJ@?$CFs?4xBestIndex?5malfunction?$AA@ 100f4620     sqlite3:sqlite3.obj
 0002:0001363c       ??_C@_0CD@DPEHHDLH@abbreviated?5query?5algorithm?5sear@ 100f463c     sqlite3:sqlite3.obj
 0002:00013660       ??_C@_0BC@CBDLPDHH@no?5query?5solution?$AA@ 100f4660     sqlite3:sqlite3.obj
 0002:00013674       ??_C@_0BM@BLDEAGOK@at?5most?5?$CFd?5tables?5in?5a?5join?$AA@ 100f4674     sqlite3:sqlite3.obj
 0002:00013690       ??_C@_0BC@HBJMCGKK@SCAN?5CONSTANT?5ROW?$AA@ 100f4690     sqlite3:sqlite3.obj
 0002:000136a4       ??_C@_0DI@OBGNFFPK@second?5argument?5to?5nth_value?5mus@ 100f46a4     sqlite3:sqlite3.obj
 0002:000136dc       ??_C@_0CN@ODPKPKIM@argument?5of?5ntile?5must?5be?5a?5posi@ 100f46dc     sqlite3:sqlite3.obj
 0002:0001370c       ??_C@_0BD@LKBMMDOC@no?5such?5window?3?5?$CFs?$AA@ 100f470c     sqlite3:sqlite3.obj
 0002:00013720       ??_C@_0EH@IFDBAIHH@RANGE?5with?5offset?5PRECEDING?1FOLL@ 100f4720     sqlite3:sqlite3.obj
 0002:00013768       ??_C@_0DP@EMFIMFKB@FILTER?5clause?5may?5only?5be?5used?5w@ 100f4768     sqlite3:sqlite3.obj
 0002:000137a8       ??_C@_0CA@HKLCFJEG@unsupported?5frame?5specification?$AA@ 100f47a8     sqlite3:sqlite3.obj
 0002:000137c8       ??_C@_0BB@LPLIGBNA@PARTITION?5clause?$AA@ 100f47c8     sqlite3:sqlite3.obj
 0002:000137dc       ??_C@_0BA@PFIKPNNI@ORDER?5BY?5clause?$AA@ 100f47dc     sqlite3:sqlite3.obj
 0002:000137ec       ??_C@_0BE@OGAFJJNF@frame?5specification?$AA@ 100f47ec     sqlite3:sqlite3.obj
 0002:00013800       ??_C@_0CB@HGDHFNOJ@cannot?5override?5?$CFs?5of?5window?3?5?$CFs@ 100f4800     sqlite3:sqlite3.obj
 0002:00013824       ??_C@_0CP@DCIPIMGJ@DISTINCT?5is?5not?5supported?5for?5wi@ 100f4824     sqlite3:sqlite3.obj
 0002:00013854       ??_C@_0DF@JHFAGMHJ@frame?5starting?5offset?5must?5be?5a?5@ 100f4854     sqlite3:sqlite3.obj
 0002:0001388c       ??_C@_0DD@FICIJBAB@frame?5ending?5offset?5must?5be?5a?5no@ 100f488c     sqlite3:sqlite3.obj
 0002:000138c0       ??_C@_0DE@GGCILAHP@frame?5starting?5offset?5must?5be?5a?5@ 100f48c0     sqlite3:sqlite3.obj
 0002:000138f4       ??_C@_0DC@KEEAFBEJ@frame?5ending?5offset?5must?5be?5a?5no@ 100f48f4     sqlite3:sqlite3.obj
 0002:00013928       ??_C@_0CC@DHLFNDIF@too?5many?5terms?5in?5compound?5SELEC@ 100f4928     sqlite3:sqlite3.obj
 0002:0001394c       ??_C@_0CG@KKIPIFCN@syntax?5error?5after?5column?5name?5?$CC@ 100f494c     sqlite3:sqlite3.obj
 0002:00013974       ??_C@_0BG@FMAEELCM@parser?5stack?5overflow?$AA@ 100f4974     sqlite3:sqlite3.obj
 0002:0001398c       ??_C@_0BL@DBADNDMB@unknown?5table?5option?3?5?$CF?4?$CKs?$AA@ 100f498c     sqlite3:sqlite3.obj
 0002:000139a8       ??_C@_08FAFAADKO@set?5list?$AA@ 100f49a8     sqlite3:sqlite3.obj
 0002:000139b4       ??_C@_0BI@CBJKLAIG@near?5?$CC?$CFT?$CC?3?5syntax?5error?$AA@ 100f49b4     sqlite3:sqlite3.obj
 0002:000139d0       ??_C@_0FP@BDHEAEAL@qualified?5table?5names?5are?5not?5al@ 100f49d0     sqlite3:sqlite3.obj
 0002:00013a30       ??_C@_0FE@ONDNFGPP@the?5INDEXED?5BY?5clause?5is?5not?5all@ 100f4a30     sqlite3:sqlite3.obj
 0002:00013a88       ??_C@_0FF@IPEGLKPG@the?5NOT?5INDEXED?5clause?5is?5not?5al@ 100f4a88     sqlite3:sqlite3.obj
 0002:00013ae0       ??_C@_0BB@DFEJGGBG@incomplete?5input?$AA@ 100f4ae0     sqlite3:sqlite3.obj
 0002:00013af4       ??_C@_0BL@EHMGGKMK@unrecognized?5token?3?5?$CC?$CF?4?$CKs?$CC?$AA@ 100f4af4     sqlite3:sqlite3.obj
 0002:00013b10       ??_C@_0L@DCFFOLOB@?$CFs?5in?5?$CC?$CFs?$CC?$AA@ 100f4b10     sqlite3:sqlite3.obj
 0002:00013b1c       ??_C@_06HBNONAG@create?$AA@ 100f4b1c     sqlite3:sqlite3.obj
 0002:00013b24       ??_C@_04FGEHGIFJ@temp?$AA@ 100f4b24     sqlite3:sqlite3.obj
 0002:00013b2c       ??_C@_09CAHPDAG@temporary?$AA@ 100f4b2c     sqlite3:sqlite3.obj
 0002:00013b38       ??_C@_03JBJLGPFL@end?$AA@  100f4b38     sqlite3:sqlite3.obj
 0002:00013b3c       ??_C@_07LFFDKBGI@explain?$AA@ 100f4b3c     sqlite3:sqlite3.obj
 0002:00013b48       ??_C@_0EE@DHFGJPIC@unable?5to?5close?5due?5to?5unfinaliz@ 100f4b48     sqlite3:sqlite3.obj
 0002:00013b8c       ??_C@_0N@FKKFHCIB@not?5an?5error?$AA@ 100f4b8c     sqlite3:sqlite3.obj
 0002:00013b9c       ??_C@_0BA@OFEMPNLC@SQL?5logic?5error?$AA@ 100f4b9c     sqlite3:sqlite3.obj
 0002:00013bac       ??_C@_0BJ@OFHFLJKH@access?5permission?5denied?$AA@ 100f4bac     sqlite3:sqlite3.obj
 0002:00013bc8       ??_C@_0O@LBOFKECN@query?5aborted?$AA@ 100f4bc8     sqlite3:sqlite3.obj
 0002:00013bd8       ??_C@_0BD@DAAAMHOI@database?5is?5locked?$AA@ 100f4bd8     sqlite3:sqlite3.obj
 0002:00013bec       ??_C@_0BJ@DNPONIEG@database?5table?5is?5locked?$AA@ 100f4bec     sqlite3:sqlite3.obj
 0002:00013c08       ??_C@_0CF@JBLJEMGC@attempt?5to?5write?5a?5readonly?5data@ 100f4c08     sqlite3:sqlite3.obj
 0002:00013c30       ??_C@_0M@EGEKIIMP@interrupted?$AA@ 100f4c30     sqlite3:sqlite3.obj
 0002:00013c3c       ??_C@_0P@FOPPKBJH@disk?5I?1O?5error?$AA@ 100f4c3c     sqlite3:sqlite3.obj
 0002:00013c4c       ??_C@_0CB@ONDDCPGK@database?5disk?5image?5is?5malformed@ 100f4c4c     sqlite3:sqlite3.obj
 0002:00013c70       ??_C@_0BC@BDMDPLFD@unknown?5operation?$AA@ 100f4c70     sqlite3:sqlite3.obj
 0002:00013c84       ??_C@_0BJ@GDNBBAEL@database?5or?5disk?5is?5full?$AA@ 100f4c84     sqlite3:sqlite3.obj
 0002:00013ca0       ??_C@_0BN@JLONMGIA@unable?5to?5open?5database?5file?$AA@ 100f4ca0     sqlite3:sqlite3.obj
 0002:00013cc0       ??_C@_0BB@MCPOJJBB@locking?5protocol?$AA@ 100f4cc0     sqlite3:sqlite3.obj
 0002:00013cd4       ??_C@_0BC@IFKPGMGK@constraint?5failed?$AA@ 100f4cd4     sqlite3:sqlite3.obj
 0002:00013ce8       ??_C@_0BC@FILINGOB@datatype?5mismatch?$AA@ 100f4ce8     sqlite3:sqlite3.obj
 0002:00013cfc       ??_C@_0CC@NEIAIHCA@bad?5parameter?5or?5other?5API?5misus@ 100f4cfc     sqlite3:sqlite3.obj
 0002:00013d20       ??_C@_0BF@LMCDAPDN@authorization?5denied?$AA@ 100f4d20     sqlite3:sqlite3.obj
 0002:00013d38       ??_C@_0BK@EKHAENGG@column?5index?5out?5of?5range?$AA@ 100f4d38     sqlite3:sqlite3.obj
 0002:00013d54       ??_C@_0BH@ODJKAGAJ@file?5is?5not?5a?5database?$AA@ 100f4d54     sqlite3:sqlite3.obj
 0002:00013d6c       ??_C@_0BF@JHPLPFEO@notification?5message?$AA@ 100f4d6c     sqlite3:sqlite3.obj
 0002:00013d84       ??_C@_0BA@EELFFHLP@warning?5message?$AA@ 100f4d84     sqlite3:sqlite3.obj
 0002:00013d94       ??_C@_0O@BFJCFAAK@unknown?5error?$AA@ 100f4d94     sqlite3:sqlite3.obj
 0002:00013da4       ??_C@_0BG@MJDEINHO@abort?5due?5to?5ROLLBACK?$AA@ 100f4da4     sqlite3:sqlite3.obj
 0002:00013dbc       ??_C@_0BG@IPBFEGEP@another?5row?5available?$AA@ 100f4dbc     sqlite3:sqlite3.obj
 0002:00013dd4       ??_C@_0BH@EJKNDPLI@no?5more?5rows?5available?$AA@ 100f4dd4     sqlite3:sqlite3.obj
 0002:00013dec       ??_C@_0DP@BDIELDAF@unable?5to?5delete?1modify?5user?9fun@ 100f4dec     sqlite3:sqlite3.obj
 0002:00013e2c       ??_C@_0DD@BOPMNMAO@unable?5to?5use?5function?5?$CFs?5in?5the@ 100f4e2c     sqlite3:sqlite3.obj
 0002:00013e60       ??_C@_0BF@HAJMIPDB@unknown?5database?3?5?$CFs?$AA@ 100f4e60     sqlite3:sqlite3.obj
 0002:00013e78       ??_C@_0EE@IKACNBHK@unable?5to?5delete?1modify?5collatio@ 100f4e78     sqlite3:sqlite3.obj
 0002:00013ebc       ??_C@_0BM@COJKMEBB@invalid?5uri?5authority?3?5?$CF?4?$CKs?$AA@ 100f4ebc     sqlite3:sqlite3.obj
 0002:00013ed8       ??_C@_05BDNCCAMC@cache?$AA@ 100f4ed8     sqlite3:sqlite3.obj
 0002:00013ee0       ??_C@_06HBFNPGIC@shared?$AA@ 100f4ee0     sqlite3:sqlite3.obj
 0002:00013ee8       ??_C@_07NMPLPEPB@private?$AA@ 100f4ee8     sqlite3:sqlite3.obj
 0002:00013ef0       ??_C@_04GMGOKAFF@mode?$AA@ 100f4ef0     sqlite3:sqlite3.obj
 0002:00013ef8       ??_C@_02LFKOONLL@ro?$AA@   100f4ef8     sqlite3:sqlite3.obj
 0002:00013efc       ??_C@_02DHLFHFOC@rw?$AA@   100f4efc     sqlite3:sqlite3.obj
 0002:00013f00       ??_C@_03ODAOEF@rwc?$AA@    100f4f00     sqlite3:sqlite3.obj
 0002:00013f04       ??_C@_06EBPNOMLE@access?$AA@ 100f4f04     sqlite3:sqlite3.obj
 0002:00013f0c       ??_C@_0BE@CEDEHNFE@no?5such?5?$CFs?5mode?3?5?$CFs?$AA@ 100f4f0c     sqlite3:sqlite3.obj
 0002:00013f20       ??_C@_0BI@PGEAHBFI@?$CFs?5mode?5not?5allowed?3?5?$CFs?$AA@ 100f4f20     sqlite3:sqlite3.obj
 0002:00013f38       ??_C@_0BA@JNKNNOBA@no?5such?5vfs?3?5?$CFs?$AA@ 100f4f38     sqlite3:sqlite3.obj
 0002:00013f48       ??_C@_05JJHANOIF@RTRIM?$AA@ 100f4f48     sqlite3:sqlite3.obj
 0002:00013f50       ??_C@_02LOCGON@?$AA?$AA?$AA@ 100f4f50     sqlite3:sqlite3.obj
 0002:00013f54       ??_C@_0BJ@ICCNDDFO@?$CFs?5at?5line?5?$CFd?5of?5?$FL?$CF?410s?$FN?$AA@ 100f4f54     sqlite3:sqlite3.obj
 0002:00013f70       ??_C@_0BE@FNOILMBA@database?5corruption?$AA@ 100f4f70     sqlite3:sqlite3.obj
 0002:00013f84       ??_C@_06LKHNAGM@misuse?$AA@ 100f4f84     sqlite3:sqlite3.obj
 0002:00013f8c       ??_C@_0BB@HMGEDEGN@cannot?5open?5file?$AA@ 100f4f8c     sqlite3:sqlite3.obj
 0002:00013fa0       ??_C@_0BM@OILBPENI@no?5such?5table?5column?3?5?$CFs?4?$CFs?$AA@ 100f4fa0     sqlite3:sqlite3.obj
 0002:00013fbc       ??_C@_07OGLCFANK@SQLITE_?$AA@ 100f4fbc     sqlite3:sqlite3.obj
 0002:00013fc4       ??_C@_02BAABKJLB@?9?9?$AA@ 100f4fc4     sqlite3:sqlite3.obj
 0002:00013fc8       ??_C@_0LK@JFICHNHO@DROP?5TABLE?5IF?5EXISTS?5?$CFQ?4?8?$CFq_segm@ 100f4fc8     sqlite3:sqlite3.obj
 0002:00014084       ??_C@_08HBMBCGGI@__langid?$AA@ 100f5084     sqlite3:sqlite3.obj
 0002:00014090       ??_C@_04OHJOFLHH@?$CFQ?0?5?$AA@ 100f5090     sqlite3:sqlite3.obj
 0002:00014098       ??_C@_06ILOMELII@?$CFz?$CFQ?0?5?$AA@ 100f5098     sqlite3:sqlite3.obj
 0002:000140a0       ??_C@_0DG@KNNCMIAK@CREATE?5TABLE?5x?$CI?$CFs?5?$CFQ?5HIDDEN?0?5doc@ 100f50a0     sqlite3:sqlite3.obj
 0002:000140d8       ??_C@_0EN@BNJDGKOP@CREATE?5TABLE?5IF?5NOT?5EXISTS?5?$CFQ?4?8?$CF@ 100f50d8     sqlite3:sqlite3.obj
 0002:00014128       ??_C@_0BK@ILPNCKDD@docid?5INTEGER?5PRIMARY?5KEY?$AA@ 100f5128     sqlite3:sqlite3.obj
 0002:00014144       ??_C@_0M@KFIBGJMD@?$CFz?0?5?8c?$CFd?$CFq?8?$AA@ 100f5144     sqlite3:sqlite3.obj
 0002:00014150       ??_C@_0L@FGLBMJMC@?$CFz?0?5langid?$AA@ 100f5150     sqlite3:sqlite3.obj
 0002:0001415c       ??_C@_0CB@GGGOGPJJ@CREATE?5TABLE?5?$CFQ?4?8?$CFq_content?8?$CI?$CFs?$CJ@ 100f515c     sqlite3:sqlite3.obj
 0002:00014180       ??_C@_0EI@JJJNEMPK@CREATE?5TABLE?5?$CFQ?4?8?$CFq_segments?8?$CIbl@ 100f5180     sqlite3:sqlite3.obj
 0002:000141c8       ??_C@_0JJ@EINNGPFL@CREATE?5TABLE?5?$CFQ?4?8?$CFq_segdir?8?$CIleve@ 100f51c8     sqlite3:sqlite3.obj
 0002:00014268       ??_C@_0EE@MDIIHKIJ@CREATE?5TABLE?5?$CFQ?4?8?$CFq_docsize?8?$CIdoc@ 100f5268     sqlite3:sqlite3.obj
 0002:000142ac       ??_C@_0BE@JJENHHFJ@PRAGMA?5?$CFQ?4page_size?$AA@ 100f52ac     sqlite3:sqlite3.obj
 0002:000142c0       ??_C@_05KJDOPFGN@docid?$AA@ 100f52c0     sqlite3:sqlite3.obj
 0002:000142c8       ??_C@_0P@LFFPPLAI@?0?$CFs?$CIx?4?8c?$CFd?$CFq?8?$CJ?$AA@ 100f52c8     sqlite3:sqlite3.obj
 0002:000142d8       ??_C@_06CLEJICHF@langid?$AA@ 100f52d8     sqlite3:sqlite3.obj
 0002:000142e0       ??_C@_06HJELONEC@?0?5x?4?$CFQ?$AA@ 100f52e0     sqlite3:sqlite3.obj
 0002:000142e8       ??_C@_08NJPBOKA@?0?5x?4?8?$CFq?8?$AA@ 100f52e8     sqlite3:sqlite3.obj
 0002:000142f4       ??_C@_08KMMJILGO@_content?$AA@ 100f52f4     sqlite3:sqlite3.obj
 0002:00014300       ??_C@_0BH@DJGBFAID@?5FROM?5?8?$CFq?8?4?8?$CFq?$CFs?8?5AS?5x?$AA@ 100f5300     sqlite3:sqlite3.obj
 0002:00014318       ??_C@_06INGKMHGE@?0?$CFs?$CI?$DP?$CJ?$AA@ 100f5318     sqlite3:sqlite3.obj
 0002:00014320       ??_C@_03FEMMFMLJ@?0?5?$DP?$AA@ 100f5320     sqlite3:sqlite3.obj
 0002:00014324       ??_C@_0BE@NJEPGLOD@SELECT?5?$CK?5FROM?5?$CFQ?4?$CFQ?$AA@ 100f5324     sqlite3:sqlite3.obj
 0002:00014338       ??_C@_08ENDKEOKI@tokenize?$AA@ 100f5338     sqlite3:sqlite3.obj
 0002:00014344       ??_C@_09OEHDJMHN@matchinfo?$AA@ 100f5344     sqlite3:sqlite3.obj
 0002:00014350       ??_C@_06CHGOAPND@prefix?$AA@ 100f5350     sqlite3:sqlite3.obj
 0002:00014358       ??_C@_08EJNPIMGB@compress?$AA@ 100f5358     sqlite3:sqlite3.obj
 0002:00014364       ??_C@_0L@IEAKODFB@uncompress?$AA@ 100f5364     sqlite3:sqlite3.obj
 0002:00014370       ??_C@_05NDNMCCJH@order?$AA@ 100f5370     sqlite3:sqlite3.obj
 0002:00014378       ??_C@_07ICAJMOAO@content?$AA@ 100f5378     sqlite3:sqlite3.obj
 0002:00014380       ??_C@_0L@KCJJAHCF@languageid?$AA@ 100f5380     sqlite3:sqlite3.obj
 0002:0001438c       ??_C@_0L@CMOFCIEL@notindexed?$AA@ 100f538c     sqlite3:sqlite3.obj
 0002:00014398       ??_C@_04GJCOAOPN@fts3?$AA@ 100f5398     sqlite3:sqlite3.obj
 0002:000143a0       ??_C@_0BL@LGOAFHOC@unrecognized?5matchinfo?3?5?$CFs?$AA@ 100f53a0     sqlite3:sqlite3.obj
 0002:000143bc       ??_C@_03EFEGFOOI@asc?$AA@  100f53bc     sqlite3:sqlite3.obj
 0002:000143c0       ??_C@_0BH@DEFIELBN@unrecognized?5order?3?5?$CFs?$AA@ 100f53c0     sqlite3:sqlite3.obj
 0002:000143d8       ??_C@_0BL@LDDPBJJP@unrecognized?5parameter?3?5?$CFs?$AA@ 100f53d8     sqlite3:sqlite3.obj
 0002:000143f4       ??_C@_06MDDCAKGD@simple?$AA@ 100f53f4     sqlite3:sqlite3.obj
 0002:000143fc       ??_C@_0CD@HIKDEBHJ@error?5parsing?5prefix?5parameter?3?5@ 100f53fc     sqlite3:sqlite3.obj
 0002:00014420       ??_C@_0CJ@LIAMDBLK@missing?5?$CFs?5parameter?5in?5fts4?5con@ 100f5420     sqlite3:sqlite3.obj
 0002:0001444c       ??_C@_04INMKNCEL@DESC?$AA@ 100f544c     sqlite3:sqlite3.obj
 0002:00014454       ??_C@_03EILNJDJE@ASC?$AA@  100f5454     sqlite3:sqlite3.obj
 0002:00014458       ??_C@_0BK@DAHJKJOI@SELECT?5?$CFs?5WHERE?5rowid?5?$DN?5?$DP?$AA@ 100f5458     sqlite3:sqlite3.obj
 0002:00014474       ??_C@_0DO@PMGJMNHJ@SELECT?5?$CFs?5WHERE?5rowid?5BETWEEN?5?$CFl@ 100f5474     sqlite3:sqlite3.obj
 0002:000144b4       ??_C@_0BM@EFGHBBLP@SELECT?5?$CFs?5ORDER?5BY?5rowid?5?$CFs?$AA@ 100f54b4     sqlite3:sqlite3.obj
 0002:000144d0       ??_C@_0L@FEHMHNLK@fts3cursor?$AA@ 100f54d0     sqlite3:sqlite3.obj
 0002:000144dc       ??_C@_07FDHKIMAB@?$CFs_stat?$AA@ 100f54dc     sqlite3:sqlite3.obj
 0002:000144e4       ??_C@_0BN@HNFGPPAE@illegal?5first?5argument?5to?5?$CFs?$AA@ 100f54e4     sqlite3:sqlite3.obj
 0002:00014504       ??_C@_03GONAGDMJ@?$DMb?$DO?$AA@ 100f5504     sqlite3:sqlite3.obj
 0002:00014508       ??_C@_04KPMLOGDO@?$DM?1b?$DO?$AA@ 100f5508     sqlite3:sqlite3.obj
 0002:00014510       ??_C@_0L@FNCHOAPK@?$DMb?$DO?4?4?4?$DM?1b?$DO?$AA@ 100f5510     sqlite3:sqlite3.obj
 0002:0001451c       ??_C@_0DA@BPKHEBAA@wrong?5number?5of?5arguments?5to?5fun@ 100f551c     sqlite3:sqlite3.obj
 0002:0001454c       ??_C@_07NLNCCKKF@snippet?$AA@ 100f554c     sqlite3:sqlite3.obj
 0002:00014554       ??_C@_07EALNHAIO@offsets?$AA@ 100f5554     sqlite3:sqlite3.obj
 0002:0001455c       ??_C@_0BA@OAEHOEOG@Index?5optimized?$AA@ 100f555c     sqlite3:sqlite3.obj
 0002:0001456c       ??_C@_0BG@LMCLNKNA@Index?5already?5optimal?$AA@ 100f556c     sqlite3:sqlite3.obj
 0002:00014584       ??_C@_0DF@DCFHAMLC@ALTER?5TABLE?5?$CFQ?4?8?$CFq_content?8?5?5REN@ 100f5584     sqlite3:sqlite3.obj
 0002:000145bc       ??_C@_0DF@DCOLKKAO@ALTER?5TABLE?5?$CFQ?4?8?$CFq_docsize?8?5?5REN@ 100f55bc     sqlite3:sqlite3.obj
 0002:000145f4       ??_C@_0CP@CGFDJKNC@ALTER?5TABLE?5?$CFQ?4?8?$CFq_stat?8?5?5RENAME@ 100f55f4     sqlite3:sqlite3.obj
 0002:00014624       ??_C@_0DG@DAAAGDKF@ALTER?5TABLE?5?$CFQ?4?8?$CFq_segments?8?5REN@ 100f5624     sqlite3:sqlite3.obj
 0002:0001465c       ??_C@_0DE@LHKMPNFJ@ALTER?5TABLE?5?$CFQ?4?8?$CFq_segdir?8?5?5?5REN@ 100f565c     sqlite3:sqlite3.obj
 0002:00014690       ??_C@_07IEFCJPNN@docsize?$AA@ 100f5690     sqlite3:sqlite3.obj
 0002:00014698       ??_C@_06CCHDFEAM@segdir?$AA@ 100f5698     sqlite3:sqlite3.obj
 0002:000146a0       ??_C@_08GPGJEGMF@segments?$AA@ 100f56a0     sqlite3:sqlite3.obj
 0002:000146ac       ??_C@_04GBLELIND@stat?$AA@ 100f56ac     sqlite3:sqlite3.obj
 0002:000146b4       ??_C@_06EDADNLPO@porter?$AA@ 100f56b4     sqlite3:sqlite3.obj
 0002:000146bc       ??_C@_09JCBNJLCI@unicode61?$AA@ 100f56bc     sqlite3:sqlite3.obj
 0002:000146c8       ??_C@_0P@ONNIBBGC@fts3_tokenizer?$AA@ 100f56c8     sqlite3:sqlite3.obj
 0002:000146d8       ??_C@_04CGGPJIDK@fts4?$AA@ 100f56d8     sqlite3:sqlite3.obj
 0002:000146e0       ??_C@_0EF@OOGFNENA@CREATE?5TABLE?5x?$CIterm?0?5col?0?5docume@ 100f56e0     sqlite3:sqlite3.obj
 0002:00014728       ??_C@_0CJ@KNMGIKGK@invalid?5arguments?5to?5fts4aux?5con@ 100f5728     sqlite3:sqlite3.obj
 0002:00014754       ??_C@_07HLCPNFJI@fts4aux?$AA@ 100f5754     sqlite3:sqlite3.obj
 0002:0001475c       ??_C@_02PDPFNDMG@OR?$AA@   100f575c     sqlite3:sqlite3.obj
 0002:00014760       ??_C@_03BDACDFHA@AND?$AA@  100f5760     sqlite3:sqlite3.obj
 0002:00014764       ??_C@_03GBFNEA@NOT?$AA@    100f5764     sqlite3:sqlite3.obj
 0002:00014768       ??_C@_04ILABJOOE@NEAR?$AA@ 100f5768     sqlite3:sqlite3.obj
 0002:00014770       ??_C@_0DE@GLAEHGBM@FTS?5expression?5tree?5is?5too?5large@ 100f5770     sqlite3:sqlite3.obj
 0002:000147a4       ??_C@_0CB@FOEJOLMC@malformed?5MATCH?5expression?3?5?$FL?$CFs?$FN@ 100f57a4     sqlite3:sqlite3.obj
 0002:000147c8       ??_C@_02FCBLNKNB@ss?$AA@   100f57c8     sqlite3:sqlite3.obj
 0002:000147cc       ??_C@_04NJPCGJPA@sess?$AA@ 100f57cc     sqlite3:sqlite3.obj
 0002:000147d4       ??_C@_01KBJDNOO@i?$AA@     100f57d4     sqlite3:sqlite3.obj
 0002:000147d8       ??_C@_03FNBCPGLE@sei?$AA@  100f57d8     sqlite3:sqlite3.obj
 0002:000147dc       ??_C@_02FGCILAME@ee?$AA@   100f57dc     sqlite3:sqlite3.obj
 0002:000147e0       ??_C@_03DMGJNGJO@dee?$AA@  100f57e0     sqlite3:sqlite3.obj
 0002:000147e4       ??_C@_03IODMNJJN@gni?$AA@  100f57e4     sqlite3:sqlite3.obj
 0002:000147e8       ??_C@_02FHOKNKPD@de?$AA@   100f57e8     sqlite3:sqlite3.obj
 0002:000147ec       ??_C@_03BGFDOPOL@ate?$AA@  100f57ec     sqlite3:sqlite3.obj
 0002:000147f0       ??_C@_02CPKALMIH@ta?$AA@   100f57f0     sqlite3:sqlite3.obj
 0002:000147f4       ??_C@_03BGNDLCMN@ble?$AA@  100f57f4     sqlite3:sqlite3.obj
 0002:000147f8       ??_C@_02BGLIBNIM@lb?$AA@   100f57f8     sqlite3:sqlite3.obj
 0002:000147fc       ??_C@_03NJHJOKAO@ize?$AA@  100f57fc     sqlite3:sqlite3.obj
 0002:00014800       ??_C@_02ONOHBLIF@zi?$AA@   100f5800     sqlite3:sqlite3.obj
 0002:00014804       ??_C@_07HAPEHOGG@lanoita?$AA@ 100f5804     sqlite3:sqlite3.obj
 0002:0001480c       ??_C@_04MLFEDMFA@tion?$AA@ 100f580c     sqlite3:sqlite3.obj
 0002:00014814       ??_C@_06KEDPLIML@lanoit?$AA@ 100f5814     sqlite3:sqlite3.obj
 0002:0001481c       ??_C@_04OBONJKHE@ence?$AA@ 100f581c     sqlite3:sqlite3.obj
 0002:00014824       ??_C@_04NOKPDMPL@icne?$AA@ 100f5824     sqlite3:sqlite3.obj
 0002:0001482c       ??_C@_04BEGNDMLE@ance?$AA@ 100f582c     sqlite3:sqlite3.obj
 0002:00014834       ??_C@_04LKMDPJPP@icna?$AA@ 100f5834     sqlite3:sqlite3.obj
 0002:0001483c       ??_C@_04FLGOIBBE@rezi?$AA@ 100f583c     sqlite3:sqlite3.obj
 0002:00014844       ??_C@_04IBMNHKNC@igol?$AA@ 100f5844     sqlite3:sqlite3.obj
 0002:0001484c       ??_C@_03IOJDKDAL@ilb?$AA@  100f584c     sqlite3:sqlite3.obj
 0002:00014850       ??_C@_02IAODKDFB@al?$AA@   100f5850     sqlite3:sqlite3.obj
 0002:00014854       ??_C@_04OBCEDNMH@illa?$AA@ 100f5854     sqlite3:sqlite3.obj
 0002:0001485c       ??_C@_03NLFJHNAK@ent?$AA@  100f585c     sqlite3:sqlite3.obj
 0002:00014860       ??_C@_05IDJKNEIB@iltne?$AA@ 100f5860     sqlite3:sqlite3.obj
 0002:00014868       ??_C@_01KGKMHCOC@e?$AA@    100f5868     sqlite3:sqlite3.obj
 0002:0001486c       ??_C@_03MBNCDFMM@ile?$AA@  100f586c     sqlite3:sqlite3.obj
 0002:00014870       ??_C@_03OLNGEHDI@ous?$AA@  100f5870     sqlite3:sqlite3.obj
 0002:00014874       ??_C@_05PENBEICD@ilsuo?$AA@ 100f5874     sqlite3:sqlite3.obj
 0002:0001487c       ??_C@_07GPCIBLIA@noitazi?$AA@ 100f587c     sqlite3:sqlite3.obj
 0002:00014884       ??_C@_05OJBPCAJ@noita?$AA@ 100f5884     sqlite3:sqlite3.obj
 0002:0001488c       ??_C@_04PGJEMGHC@rota?$AA@ 100f588c     sqlite3:sqlite3.obj
 0002:00014894       ??_C@_05DPCAAIOM@msila?$AA@ 100f5894     sqlite3:sqlite3.obj
 0002:0001489c       ??_C@_03NAGDBDGK@ive?$AA@  100f589c     sqlite3:sqlite3.obj
 0002:000148a0       ??_C@_07PDACOIKL@ssenevi?$AA@ 100f58a0     sqlite3:sqlite3.obj
 0002:000148a8       ??_C@_03FLIEAGCM@ful?$AA@  100f58a8     sqlite3:sqlite3.obj
 0002:000148ac       ??_C@_07LNEAFLH@ssenluf?$AA@ 100f58ac     sqlite3:sqlite3.obj
 0002:000148b4       ??_C@_07NCGMPJDH@ssensuo?$AA@ 100f58b4     sqlite3:sqlite3.obj
 0002:000148bc       ??_C@_05BGJBJGOK@itila?$AA@ 100f58bc     sqlite3:sqlite3.obj
 0002:000148c4       ??_C@_05MPPJDKEE@itivi?$AA@ 100f58c4     sqlite3:sqlite3.obj
 0002:000148cc       ??_C@_06BJBBMCGN@itilib?$AA@ 100f58cc     sqlite3:sqlite3.obj
 0002:000148d4       ??_C@_02JGIOOCG@ic?$AA@    100f58d4     sqlite3:sqlite3.obj
 0002:000148d8       ??_C@_05GHGCLDEL@etaci?$AA@ 100f58d8     sqlite3:sqlite3.obj
 0002:000148e0       ??_C@_05JKGPHDJ@evita?$AA@ 100f58e0     sqlite3:sqlite3.obj
 0002:000148e8       ??_C@_05NOGDOIPA@ezila?$AA@ 100f58e8     sqlite3:sqlite3.obj
 0002:000148f0       ??_C@_05NFBEFLNP@itici?$AA@ 100f58f0     sqlite3:sqlite3.obj
 0002:000148f8       ??_C@_04BICLKHFP@laci?$AA@ 100f58f8     sqlite3:sqlite3.obj
 0002:00014900       ??_C@_03MONGAOMC@luf?$AA@  100f5900     sqlite3:sqlite3.obj
 0002:00014904       ??_C@_04ELEHNCGN@ssen?$AA@ 100f5904     sqlite3:sqlite3.obj
 0002:0001490c       ??_C@_05KMPBBIAH@tneme?$AA@ 100f590c     sqlite3:sqlite3.obj
 0002:00014914       ??_C@_04HADJNCPM@tnem?$AA@ 100f5914     sqlite3:sqlite3.obj
 0002:0001491c       ??_C@_03GACFGOOA@tne?$AA@  100f591c     sqlite3:sqlite3.obj
 0002:00014920       ??_C@_03PCPGPMCA@noi?$AA@  100f5920     sqlite3:sqlite3.obj
 0002:00014924       ??_C@_03PNFNLNLI@eta?$AA@  100f5924     sqlite3:sqlite3.obj
 0002:00014928       ??_C@_03HPFCIIAI@iti?$AA@  100f5928     sqlite3:sqlite3.obj
 0002:0001492c       ??_C@_0BH@PMNILKKF@argument?5type?5mismatch?$AA@ 100f592c     sqlite3:sqlite3.obj
 0002:00014944       ??_C@_0BG@KNLCJAMI@fts3tokenize?5disabled?$AA@ 100f5944     sqlite3:sqlite3.obj
 0002:0001495c       ??_C@_0BG@CPKCHLPM@unknown?5tokenizer?3?5?$CFs?$AA@ 100f595c     sqlite3:sqlite3.obj
 0002:00014974       ??_C@_0BC@MIGNHNIC@unknown?5tokenizer?$AA@ 100f5974     sqlite3:sqlite3.obj
 0002:00014988       ??_C@_0DD@EDFEHGLO@CREATE?5TABLE?5x?$CIinput?0?5token?0?5sta@ 100f5988     sqlite3:sqlite3.obj
 0002:000149bc       ??_C@_0N@MJBJKOEF@fts3tokenize?$AA@ 100f59bc     sqlite3:sqlite3.obj
 0002:000149cc       ??_C@_0CM@CCEIGCNK@DELETE?5FROM?5?$CFQ?4?8?$CFq_content?8?5WHER@ 100f59cc     sqlite3:sqlite3.obj
 0002:000149f8       ??_C@_0EE@NIHFGMMI@SELECT?5NOT?5EXISTS?$CISELECT?5docid?5F@ 100f59f8     sqlite3:sqlite3.obj
 0002:00014a3c       ??_C@_0BM@PEBOBMKF@DELETE?5FROM?5?$CFQ?4?8?$CFq_content?8?$AA@ 100f5a3c     sqlite3:sqlite3.obj
 0002:00014a58       ??_C@_0BN@EILBLEDC@DELETE?5FROM?5?$CFQ?4?8?$CFq_segments?8?$AA@ 100f5a58     sqlite3:sqlite3.obj
 0002:00014a78       ??_C@_0BL@DOPLACGJ@DELETE?5FROM?5?$CFQ?4?8?$CFq_segdir?8?$AA@ 100f5a78     sqlite3:sqlite3.obj
 0002:00014a94       ??_C@_0BM@OLMCMEJK@DELETE?5FROM?5?$CFQ?4?8?$CFq_docsize?8?$AA@ 100f5a94     sqlite3:sqlite3.obj
 0002:00014ab0       ??_C@_0BJ@HOMEFFOK@DELETE?5FROM?5?$CFQ?4?8?$CFq_stat?8?$AA@ 100f5ab0     sqlite3:sqlite3.obj
 0002:00014acc       ??_C@_0BI@EHNAAIOC@SELECT?5?$CFs?5WHERE?5rowid?$DN?$DP?$AA@ 100f5acc     sqlite3:sqlite3.obj
 0002:00014ae8       ??_C@_0EB@JLFIAJAO@SELECT?5?$CISELECT?5max?$CIidx?$CJ?5FROM?5?$CFQ?4@ 100f5ae8     sqlite3:sqlite3.obj
 0002:00014b2c       ??_C@_0DL@MFGEIOD@REPLACE?5INTO?5?$CFQ?4?8?$CFq_segments?8?$CIbl@ 100f5b2c     sqlite3:sqlite3.obj
 0002:00014b68       ??_C@_0EE@PDNODLPC@SELECT?5coalesce?$CI?$CISELECT?5max?$CIbloc@ 100f5b68     sqlite3:sqlite3.obj
 0002:00014bac       ??_C@_0DA@CMKKFBOL@REPLACE?5INTO?5?$CFQ?4?8?$CFq_segdir?8?5VALU@ 100f5bac     sqlite3:sqlite3.obj
 0002:00014be0       ??_C@_0HA@JJLMMHPL@SELECT?5idx?0?5start_block?0?5leaves_@ 100f5be0     sqlite3:sqlite3.obj
 0002:00014c50       ??_C@_0IH@CHFFJLEM@SELECT?5idx?0?5start_block?0?5leaves_@ 100f5c50     sqlite3:sqlite3.obj
 0002:00014cd8       ??_C@_0DE@JFBNLGCM@SELECT?5count?$CI?$CK?$CJ?5FROM?5?$CFQ?4?8?$CFq_segd@ 100f5cd8     sqlite3:sqlite3.obj
 0002:00014d10       ??_C@_0EC@NJOFEFNB@SELECT?5max?$CIlevel?$CJ?5FROM?5?$CFQ?4?8?$CFq_se@ 100f5d10     sqlite3:sqlite3.obj
 0002:00014d54       ??_C@_0CL@LJFNCCFI@DELETE?5FROM?5?$CFQ?4?8?$CFq_segdir?8?5WHERE@ 100f5d54     sqlite3:sqlite3.obj
 0002:00014d80       ??_C@_0DL@FMDHOPDD@DELETE?5FROM?5?$CFQ?4?8?$CFq_segments?8?5WHE@ 100f5d80     sqlite3:sqlite3.obj
 0002:00014dbc       ??_C@_0CH@KOJCNEKB@INSERT?5INTO?5?$CFQ?4?8?$CFq_content?8?5VALU@ 100f5dbc     sqlite3:sqlite3.obj
 0002:00014de4       ??_C@_0CM@JNJGJAMO@DELETE?5FROM?5?$CFQ?4?8?$CFq_docsize?8?5WHER@ 100f5de4     sqlite3:sqlite3.obj
 0002:00014e10       ??_C@_0CJ@LFPHJFLB@REPLACE?5INTO?5?$CFQ?4?8?$CFq_docsize?8?5VAL@ 100f5e10     sqlite3:sqlite3.obj
 0002:00014e3c       ??_C@_0CP@OHAINFIB@SELECT?5size?5FROM?5?$CFQ?4?8?$CFq_docsize?8@ 100f5e3c     sqlite3:sqlite3.obj
 0002:00014e6c       ??_C@_0CK@NBNCGFLN@SELECT?5value?5FROM?5?$CFQ?4?8?$CFq_stat?8?5W@ 100f5e6c     sqlite3:sqlite3.obj
 0002:00014e98       ??_C@_0CG@FNKMPDFF@REPLACE?5INTO?5?$CFQ?4?8?$CFq_stat?8?5VALUES@ 100f5e98     sqlite3:sqlite3.obj
 0002:00014ec0       ??_C@_0DH@BCKMOPJL@DELETE?5FROM?5?$CFQ?4?8?$CFq_segdir?8?5WHERE@ 100f5ec0     sqlite3:sqlite3.obj
 0002:00014ef8       ??_C@_0DN@PICGLGBK@SELECT?5?$DP?5UNION?5SELECT?5level?5?1?5?$CI1@ 100f5ef8     sqlite3:sqlite3.obj
 0002:00014f38       ??_C@_0HH@DHCPLDPH@SELECT?5level?0?5count?$CI?$CK?$CJ?5AS?5cnt?5FR@ 100f5f38     sqlite3:sqlite3.obj
 0002:00014fb0       ??_C@_0GH@DPJIHEGC@SELECT?52?5?$CK?5total?$CI1?5?$CL?5leaves_end_@ 100f5fb0     sqlite3:sqlite3.obj
 0002:00015018       ??_C@_0DH@DBLDPJEO@DELETE?5FROM?5?$CFQ?4?8?$CFq_segdir?8?5WHERE@ 100f6018     sqlite3:sqlite3.obj
 0002:00015050       ??_C@_0DK@IIIPEDBM@UPDATE?5?$CFQ?4?8?$CFq_segdir?8?5SET?5idx?5?$DN?5@ 100f6050     sqlite3:sqlite3.obj
 0002:00015090       ??_C@_0GL@HMGCAOBI@SELECT?5idx?0?5start_block?0?5leaves_@ 100f6090     sqlite3:sqlite3.obj
 0002:00015100       ??_C@_0EP@DBFLEABP@UPDATE?5?$CFQ?4?8?$CFq_segdir?8?5SET?5start_@ 100f6100     sqlite3:sqlite3.obj
 0002:00015150       ??_C@_0EB@INOOLLID@SELECT?51?5FROM?5?$CFQ?4?8?$CFq_segments?8?5W@ 100f6150     sqlite3:sqlite3.obj
 0002:00015194       ??_C@_0DM@EICDJEDC@SELECT?5idx?5FROM?5?$CFQ?4?8?$CFq_segdir?8?5W@ 100f6194     sqlite3:sqlite3.obj
 0002:000151d0       ??_C@_0DA@ONAEGFD@SELECT?5max?$CI?5level?5?$CF?$CF?51024?5?$CJ?5FROM@ 100f61d0     sqlite3:sqlite3.obj
 0002:00015200       ??_C@_0GK@GKICLGAF@SELECT?5level?0?5idx?0?5end_block?5FRO@ 100f6200     sqlite3:sqlite3.obj
 0002:00015270       ??_C@_0EJ@EJCODMCO@UPDATE?5OR?5FAIL?5?$CFQ?4?8?$CFq_segdir?8?5SE@ 100f6270     sqlite3:sqlite3.obj
 0002:000152bc       ??_C@_0DJ@JFKMPJPN@UPDATE?5OR?5FAIL?5?$CFQ?4?8?$CFq_segdir?8?5SE@ 100f62bc     sqlite3:sqlite3.obj
 0002:000152f8       ??_C@_0M@FNPINBNL@?$CFs_segments?$AA@ 100f62f8     sqlite3:sqlite3.obj
 0002:00015304       ??_C@_05PIBOEKAB@block?$AA@ 100f6304     sqlite3:sqlite3.obj
 0002:0001530c       ??_C@_09MIMKIBLB@?$CFlld?5?$CFlld?$AA@ 100f630c     sqlite3:sqlite3.obj
 0002:00015318       ??_C@_09GMKLHBDP@SELECT?5?$CFs?$AA@ 100f6318     sqlite3:sqlite3.obj
 0002:00015324       ??_C@_07NPFKDALJ@rebuild?$AA@ 100f6324     sqlite3:sqlite3.obj
 0002:0001532c       ??_C@_0BA@DICCLPBL@integrity?9check?$AA@ 100f632c     sqlite3:sqlite3.obj
 0002:0001533c       ??_C@_06NBNMKOCN@merge?$DN?$AA@ 100f633c     sqlite3:sqlite3.obj
 0002:00015344       ??_C@_0L@CIJOHFF@automerge?$DN?$AA@ 100f6344     sqlite3:sqlite3.obj
 0002:00015350       ??_C@_0P@LDDNGGJP@SAVEPOINT?5fts3?$AA@ 100f6350     sqlite3:sqlite3.obj
 0002:00015360       ??_C@_0N@MGHAAGPN@RELEASE?5fts3?$AA@ 100f6360     sqlite3:sqlite3.obj
 0002:00015370       ??_C@_0BB@FILGCGJ@ROLLBACK?5TO?5fts3?$AA@ 100f6370     sqlite3:sqlite3.obj
 0002:00015384       ??_C@_0CD@HGBIMAPM@unrecognized?5matchinfo?5request?3?5@ 100f6384     sqlite3:sqlite3.obj
 0002:000153a8       ??_C@_0N@CAAIIPHA@?$CFd?5?$CFd?5?$CFd?5?$CFd?5?$AA@ 100f63a8     sqlite3:sqlite3.obj
 0002:000153b8       ??_C@_03BIPDAGPI@pcx?$AA@  100f63b8     sqlite3:sqlite3.obj
 0002:000153bc       ??_C@_0BE@DGBGPKPD@remove_diacritics?$DN1?$AA@ 100f63bc     sqlite3:sqlite3.obj
 0002:000153d0       ??_C@_0BE@CPANMLLC@remove_diacritics?$DN0?$AA@ 100f63d0     sqlite3:sqlite3.obj
 0002:000153e4       ??_C@_0BE@BNDLKJDA@remove_diacritics?$DN2?$AA@ 100f63e4     sqlite3:sqlite3.obj
 0002:000153f8       ??_C@_0M@JNBKBLBC@tokenchars?$DN?$AA@ 100f63f8     sqlite3:sqlite3.obj
 0002:00015404       ??_C@_0M@POCAMIMG@separators?$DN?$AA@ 100f6404     sqlite3:sqlite3.obj
 0002:00015410       ??_C@_05HIFJDKLD@array?$AA@ 100f6410     sqlite3:sqlite3.obj
 0002:00015418       ??_C@_06IEOJBDIK@object?$AA@ 100f6418     sqlite3:sqlite3.obj
 0002:00015420       ??_C@_0BB@JCEFLFJE@0123456789abcdef?$AA@ 100f6420     sqlite3:sqlite3.obj
 0002:00015434       ??_C@_0BN@OLHIFNEE@JSON?5cannot?5hold?5BLOB?5values?$AA@ 100f6434     sqlite3:sqlite3.obj
 0002:00015454       ??_C@_0P@HGMNNFIA@malformed?5JSON?$AA@ 100f6454     sqlite3:sqlite3.obj
 0002:00015464       ??_C@_03OJMJGOMJ@?$FL0?$FN?$AA@ 100f6464     sqlite3:sqlite3.obj
 0002:00015468       ??_C@_0BK@NJDFBDHG@JSON?5path?5error?5near?5?8?$CFq?8?$AA@ 100f6468     sqlite3:sqlite3.obj
 0002:00015484       ??_C@_0CL@MLCLHBFD@json_?$CFs?$CI?$CJ?5needs?5an?5odd?5number?5of@ 100f6484     sqlite3:sqlite3.obj
 0002:000154b0       ??_C@_0DD@MNHKLOMA@json_object?$CI?$CJ?5requires?5an?5even?5n@ 100f64b0     sqlite3:sqlite3.obj
 0002:000154e4       ??_C@_0CC@DJMFCANB@json_object?$CI?$CJ?5labels?5must?5be?5TEX@ 100f64e4     sqlite3:sqlite3.obj
 0002:00015508       ??_C@_03KCHOJKKI@set?$AA@  100f6508     sqlite3:sqlite3.obj
 0002:0001550c       ??_C@_06OAOPNKHP@insert?$AA@ 100f650c     sqlite3:sqlite3.obj
 0002:00015514       ??_C@_02GPECMEKF@?$FL?$FN?$AA@ 100f6514     sqlite3:sqlite3.obj
 0002:00015518       ??_C@_02MCILKGOH@?$HL?$HN?$AA@ 100f6518     sqlite3:sqlite3.obj
 0002:00015520       ??_C@_0FD@FFENPNAL@CREATE?5TABLE?5x?$CIkey?0value?0type?0at@ 100f6520     sqlite3:sqlite3.obj
 0002:00015574       ??_C@_04KBDJOJNB@?$FL?$CFd?$FN?$AA@ 100f6574     sqlite3:sqlite3.obj
 0002:0001557c       ??_C@_05LJPKLGA@?4?$CF?4?$CKs?$AA@ 100f657c     sqlite3:sqlite3.obj
 0002:00015584       ??_C@_04CLCAKCEI@json?$AA@ 100f6584     sqlite3:sqlite3.obj
 0002:0001558c       ??_C@_0L@JODPLPHJ@json_array?$AA@ 100f658c     sqlite3:sqlite3.obj
 0002:00015598       ??_C@_0BC@KIEPDDP@json_array_length?$AA@ 100f6598     sqlite3:sqlite3.obj
 0002:000155ac       ??_C@_0N@OAGPBLJN@json_extract?$AA@ 100f65ac     sqlite3:sqlite3.obj
 0002:000155bc       ??_C@_0M@JLLIJHFE@json_insert?$AA@ 100f65bc     sqlite3:sqlite3.obj
 0002:000155c8       ??_C@_0M@PPLOFOKB@json_object?$AA@ 100f65c8     sqlite3:sqlite3.obj
 0002:000155d4       ??_C@_0L@EMDCLLH@json_patch?$AA@ 100f65d4     sqlite3:sqlite3.obj
 0002:000155e0       ??_C@_0L@HBCANCHG@json_quote?$AA@ 100f65e0     sqlite3:sqlite3.obj
 0002:000155ec       ??_C@_0M@HABLONOI@json_remove?$AA@ 100f65ec     sqlite3:sqlite3.obj
 0002:000155f8       ??_C@_0N@IHIAJGEE@json_replace?$AA@ 100f65f8     sqlite3:sqlite3.obj
 0002:00015608       ??_C@_08HLOCMGGP@json_set?$AA@ 100f6608     sqlite3:sqlite3.obj
 0002:00015614       ??_C@_09GKBKJNAG@json_type?$AA@ 100f6614     sqlite3:sqlite3.obj
 0002:00015620       ??_C@_0L@OGBFHNAA@json_valid?$AA@ 100f6620     sqlite3:sqlite3.obj
 0002:0001562c       ??_C@_0BB@NBIIOEJO@json_group_array?$AA@ 100f662c     sqlite3:sqlite3.obj
 0002:00015640       ??_C@_0BC@MBJPJOCB@json_group_object?$AA@ 100f6640     sqlite3:sqlite3.obj
 0002:00015654       ??_C@_09JPJDPCA@json_each?$AA@ 100f6654     sqlite3:sqlite3.obj
 0002:00015660       ??_C@_09KHPGHLJM@json_tree?$AA@ 100f6660     sqlite3:sqlite3.obj
 0002:0001566c       ??_C@_07BJAAOOFH@?$CFs_node?$AA@ 100f666c     sqlite3:sqlite3.obj
 0002:00015674       ??_C@_04PJOLNDGD@data?$AA@ 100f6674     sqlite3:sqlite3.obj
 0002:00015680       ??_C@_0FC@PCOGINLL@DROP?5TABLE?5?8?$CFq?8?4?8?$CFq_node?8?$DLDROP?5T@ 100f6680     sqlite3:sqlite3.obj
 0002:000156d4       ??_C@_0O@BOKIPKAM@RtreeMatchArg?$AA@ 100f66d4     sqlite3:sqlite3.obj
 0002:000156e4       ??_C@_0CA@KKFEJEOI@UNIQUE?5constraint?5failed?3?5?$CFs?4?$CFs?$AA@ 100f66e4     sqlite3:sqlite3.obj
 0002:00015704       ??_C@_0CF@BJOAOMHH@rtree?5constraint?5failed?3?5?$CFs?4?$CI?$CFs?$DM@ 100f6704     sqlite3:sqlite3.obj
 0002:00015730       ??_C@_0JB@OPIDJEFG@ALTER?5TABLE?5?$CFQ?4?8?$CFq_node?8?5?5?5RENAM@ 100f6730     sqlite3:sqlite3.obj
 0002:000157c4       ??_C@_0DI@KGIILJME@SELECT?5stat?5FROM?5?$CFQ?4sqlite_stat1@ 100f67c4     sqlite3:sqlite3.obj
 0002:000157fc       ??_C@_04CLMONKIF@node?$AA@ 100f67fc     sqlite3:sqlite3.obj
 0002:00015804       ??_C@_0DF@JCJBGEI@INSERT?5OR?5REPLACE?5INTO?5?8?$CFq?8?4?8?$CFq_@ 100f6804     sqlite3:sqlite3.obj
 0002:0001583c       ??_C@_0CN@NPMDDBGL@DELETE?5FROM?5?8?$CFq?8?4?8?$CFq_node?8?5WHERE@ 100f683c     sqlite3:sqlite3.obj
 0002:0001586c       ??_C@_0DE@NKOLLOMB@SELECT?5nodeno?5FROM?5?8?$CFq?8?4?8?$CFq_rowi@ 100f686c     sqlite3:sqlite3.obj
 0002:000158a0       ??_C@_0DG@JACFDIOF@INSERT?5OR?5REPLACE?5INTO?5?8?$CFq?8?4?8?$CFq_@ 100f68a0     sqlite3:sqlite3.obj
 0002:000158d8       ??_C@_0CN@JNHDFIEE@DELETE?5FROM?5?8?$CFq?8?4?8?$CFq_rowid?8?5WHER@ 100f68d8     sqlite3:sqlite3.obj
 0002:00015908       ??_C@_0DK@LHGNLAFD@SELECT?5parentnode?5FROM?5?8?$CFq?8?4?8?$CFq_@ 100f6908     sqlite3:sqlite3.obj
 0002:00015944       ??_C@_0DH@PAOPLAJM@INSERT?5OR?5REPLACE?5INTO?5?8?$CFq?8?4?8?$CFq_@ 100f6944     sqlite3:sqlite3.obj
 0002:0001597c       ??_C@_0CP@DKHFKLOD@DELETE?5FROM?5?8?$CFq?8?4?8?$CFq_parent?8?5WHE@ 100f697c     sqlite3:sqlite3.obj
 0002:000159ac       ??_C@_0DO@GMDPCBIG@CREATE?5TABLE?5?$CC?$CFw?$CC?4?$CC?$CFw_rowid?$CC?$CIrow@ 100f69ac     sqlite3:sqlite3.obj
 0002:000159ec       ??_C@_04IBGBHACJ@?0a?$CFd?$AA@ 100f69ec     sqlite3:sqlite3.obj
 0002:000159f8       ??_C@_0EA@CFNMGKN@?$CJ?$DLCREATE?5TABLE?5?$CC?$CFw?$CC?4?$CC?$CFw_node?$CC?$CIno@ 100f69f8     sqlite3:sqlite3.obj
 0002:00015a38       ??_C@_0EG@DIHCDOHJ@CREATE?5TABLE?5?$CC?$CFw?$CC?4?$CC?$CFw_parent?$CC?$CIno@ 100f6a38     sqlite3:sqlite3.obj
 0002:00015a80       ??_C@_0DB@IEFCOAOG@INSERT?5INTO?5?$CC?$CFw?$CC?4?$CC?$CFw_node?$CCVALUES@ 100f6a80     sqlite3:sqlite3.obj
 0002:00015ab8       ??_C@_0GM@HOKAGINB@INSERT?5INTO?$CC?$CFw?$CC?4?$CC?$CFw_rowid?$CC?$CIrowid@ 100f6ab8     sqlite3:sqlite3.obj
 0002:00015b24       ??_C@_0CN@EAEGDECI@SELECT?5?$CK?5FROM?5?$CC?$CFw?$CC?4?$CC?$CFw_rowid?$CC?5WH@ 100f6b24     sqlite3:sqlite3.obj
 0002:00015b54       ??_C@_0BL@IFDAPIFE@UPDATE?5?$CC?$CFw?$CC?4?$CC?$CFw_rowid?$CCSET?5?$AA@ 100f6b54     sqlite3:sqlite3.obj
 0002:00015b70       ??_C@_0BG@JCCHLHP@a?$CFd?$DNcoalesce?$CI?$DP?$CFd?0a?$CFd?$CJ?$AA@ 100f6b70     sqlite3:sqlite3.obj
 0002:00015b88       ??_C@_07EGJCGFKM@a?$CFd?$DN?$DP?$CFd?$AA@ 100f6b88     sqlite3:sqlite3.obj
 0002:00015b90       ??_C@_0BA@KNJACAPD@?5WHERE?5rowid?$DN?$DP1?$AA@ 100f6b90     sqlite3:sqlite3.obj
 0002:00015ba0       ??_C@_0DJ@FJHIAAMI@SELECT?5length?$CIdata?$CJ?5FROM?5?8?$CFq?8?4?8?$CF@ 100f6ba0     sqlite3:sqlite3.obj
 0002:00015bdc       ??_C@_0CD@LGNOLFCF@undersize?5RTree?5blobs?5in?5?$CC?$CFq_nod@ 100f6bdc     sqlite3:sqlite3.obj
 0002:00015c00       ??_C@_0CL@JLGEGOKF@Wrong?5number?5of?5columns?5for?5an?5r@ 100f6c00     sqlite3:sqlite3.obj
 0002:00015c2c       ??_C@_0CD@LNBABDIB@Too?5few?5columns?5for?5an?5rtree?5tab@ 100f6c2c     sqlite3:sqlite3.obj
 0002:00015c50       ??_C@_0CE@OFDKEPLE@Too?5many?5columns?5for?5an?5rtree?5ta@ 100f6c50     sqlite3:sqlite3.obj
 0002:00015c74       ??_C@_0CF@HAHADEEG@Auxiliary?5rtree?5columns?5must?5be?5@ 100f6c74     sqlite3:sqlite3.obj
 0002:00015c9c       ??_C@_0BC@EHLBCEFD@CREATE?5TABLE?5x?$CI?$CFs?$AA@ 100f6c9c     sqlite3:sqlite3.obj
 0002:00015cb0       ??_C@_03OMLJOFL@?0?$CFs?$AA@ 100f6cb0     sqlite3:sqlite3.obj
 0002:00015cb4       ??_C@_02LJALELK@?$CJ?$DL?$AA@ 100f6cb4     sqlite3:sqlite3.obj
 0002:00015cb8       ??_C@_05BHFFNHHG@?$HL?$CFlld?$AA@ 100f6cb8     sqlite3:sqlite3.obj
 0002:00015cc0       ??_C@_03GKLDPGLG@?5?$CFg?$AA@ 100f6cc0     sqlite3:sqlite3.obj
 0002:00015cc4       ??_C@_01CELHOKLL@?$HN?$AA@ 100f6cc4     sqlite3:sqlite3.obj
 0002:00015cc8       ??_C@_0CB@GBDNHMJO@Invalid?5argument?5to?5rtreedepth?$CI?$CJ@ 100f6cc8     sqlite3:sqlite3.obj
 0002:00015cec       ??_C@_06MOFCKCGM@?$CFz?$CFs?$CFz?$AA@ 100f6cec     sqlite3:sqlite3.obj
 0002:00015cf4       ??_C@_0CN@OCDFLGHB@SELECT?5data?5FROM?5?$CFQ?4?8?$CFq_node?8?5WH@ 100f6cf4     sqlite3:sqlite3.obj
 0002:00015d24       ??_C@_0CA@FHOFCGBH@Node?5?$CFlld?5missing?5from?5database?$AA@ 100f6d24     sqlite3:sqlite3.obj
 0002:00015d44       ??_C@_0DG@GAOGCDLE@SELECT?5parentnode?5FROM?5?$CFQ?4?8?$CFq_pa@ 100f6d44     sqlite3:sqlite3.obj
 0002:00015d7c       ??_C@_0DA@GMAANAHL@SELECT?5nodeno?5FROM?5?$CFQ?4?8?$CFq_rowid?8@ 100f6d7c     sqlite3:sqlite3.obj
 0002:00015dac       ??_C@_07BDCBFPIF@?$CF_rowid?$AA@ 100f6dac     sqlite3:sqlite3.obj
 0002:00015db4       ??_C@_08PEKGCPEF@?$CF_parent?$AA@ 100f6db4     sqlite3:sqlite3.obj
 0002:00015dc0       ??_C@_0CN@OLKMEMC@Mapping?5?$CI?$CFlld?5?9?$DO?5?$CFlld?$CJ?5missing?5f@ 100f6dc0     sqlite3:sqlite3.obj
 0002:00015df0       ??_C@_0DK@NFLHLMPK@Found?5?$CI?$CFlld?5?9?$DO?5?$CFlld?$CJ?5in?5?$CFs?5table@ 100f6df0     sqlite3:sqlite3.obj
 0002:00015e2c       ??_C@_0DA@IBMHEMPO@Dimension?5?$CFd?5of?5cell?5?$CFd?5on?5node?5@ 100f6e2c     sqlite3:sqlite3.obj
 0002:00015e60       ??_C@_0ED@CPJBKGPJ@Dimension?5?$CFd?5of?5cell?5?$CFd?5on?5node?5@ 100f6e60     sqlite3:sqlite3.obj
 0002:00015ea4       ??_C@_0CC@JDIPMHGJ@Node?5?$CFlld?5is?5too?5small?5?$CI?$CFd?5bytes@ 100f6ea4     sqlite3:sqlite3.obj
 0002:00015ec8       ??_C@_0BO@JJCPEGDB@Rtree?5depth?5out?5of?5range?5?$CI?$CFd?$CJ?$AA@ 100f6ec8     sqlite3:sqlite3.obj
 0002:00015ee8       ??_C@_0DH@LDLLNCMF@Node?5?$CFlld?5is?5too?5small?5for?5cell?5@ 100f6ee8     sqlite3:sqlite3.obj
 0002:00015f20       ??_C@_0BP@NHCPMCOG@SELECT?5count?$CI?$CK?$CJ?5FROM?5?$CFQ?4?8?$CFq?$CFs?8?$AA@ 100f6f20     sqlite3:sqlite3.obj
 0002:00015f40       ??_C@_0ED@KHDJEPLH@Wrong?5number?5of?5entries?5in?5?$CF?$CF?$CFs?5@ 100f6f40     sqlite3:sqlite3.obj
 0002:00015f84       ??_C@_0BM@CIIHBMJB@SELECT?5?$CK?5FROM?5?$CFQ?4?8?$CFq_rowid?8?$AA@ 100f6f84     sqlite3:sqlite3.obj
 0002:00015fa0       ??_C@_0BP@CLALJPJM@Schema?5corrupt?5or?5not?5an?5rtree?$AA@ 100f6fa0     sqlite3:sqlite3.obj
 0002:00015fc0       ??_C@_06FKPJDDKA@_rowid?$AA@ 100f6fc0     sqlite3:sqlite3.obj
 0002:00015fc8       ??_C@_07LPOLCDGO@_parent?$AA@ 100f6fc8     sqlite3:sqlite3.obj
 0002:00015fd0       ??_C@_03JMGAKCCH@END?$AA@  100f6fd0     sqlite3:sqlite3.obj
 0002:00015fd4       ??_C@_0DD@GJMFMEMD@wrong?5number?5of?5arguments?5to?5fun@ 100f6fd4     sqlite3:sqlite3.obj
 0002:00016008       ??_C@_09DOFHOJNE@rtreenode?$AA@ 100f7008     sqlite3:sqlite3.obj
 0002:00016014       ??_C@_0L@FBAJCMD@rtreedepth?$AA@ 100f7014     sqlite3:sqlite3.obj
 0002:00016020       ??_C@_0L@LFAGCHFB@rtreecheck?$AA@ 100f7020     sqlite3:sqlite3.obj
 0002:0001602c       ??_C@_05JDCFEKKH@rtree?$AA@ 100f702c     sqlite3:sqlite3.obj
 0002:00016034       ??_C@_09BLHENEJI@rtree_i32?$AA@ 100f7034     sqlite3:sqlite3.obj
 0002:00016040       ??_C@_0BM@CGDFPFBP@fts5?3?5parser?5stack?5overflow?$AA@ 100f7040     sqlite3:sqlite3.obj
 0002:0001605c       ??_C@_0BP@KPOIFJDP@fts5?3?5syntax?5error?5near?5?$CC?$CF?4?$CKs?$CC?$AA@ 100f705c     sqlite3:sqlite3.obj
 0002:0001607c       ??_C@_06CNKLIJGH@?$CFz?$CF?4?$CKs?$AA@ 100f707c     sqlite3:sqlite3.obj
 0002:00016084       ??_C@_0DC@CGMBNLKK@wrong?5number?5of?5arguments?5to?5fun@ 100f7084     sqlite3:sqlite3.obj
 0002:000160b8       ??_C@_09MIAHMBP@highlight?$AA@ 100f70b8     sqlite3:sqlite3.obj
 0002:000160c4       ??_C@_04JGLNPAFJ@bm25?$AA@ 100f70c4     sqlite3:sqlite3.obj
 0002:000160cc       ??_C@_0BP@JGOLAMJF@malformed?5prefix?$DN?4?4?4?5directive?$AA@ 100f70cc     sqlite3:sqlite3.obj
 0002:000160ec       ??_C@_0CB@CPMAOHA@too?5many?5prefix?5indexes?5?$CImax?5?$CFd?$CJ@ 100f70ec     sqlite3:sqlite3.obj
 0002:00016110       ??_C@_0CF@JGJMFBMP@prefix?5length?5out?5of?5range?5?$CImax?5@ 100f7110     sqlite3:sqlite3.obj
 0002:00016138       ??_C@_0CB@ECGEPJLH@multiple?5tokenize?$DN?4?4?4?5directives@ 100f7138     sqlite3:sqlite3.obj
 0002:0001615c       ??_C@_0CC@PPKILGPK@parse?5error?5in?5tokenize?5directiv@ 100f715c     sqlite3:sqlite3.obj
 0002:00016180       ??_C@_0CA@EJMIFEII@multiple?5content?$DN?4?4?4?5directives?$AA@ 100f7180     sqlite3:sqlite3.obj
 0002:000161a0       ??_C@_05MBOEBMLB@?$CFQ?4?$CFQ?$AA@ 100f71a0     sqlite3:sqlite3.obj
 0002:000161a8       ??_C@_0O@MLPMKEIP@content_rowid?$AA@ 100f71a8     sqlite3:sqlite3.obj
 0002:000161b8       ??_C@_0CG@EMNNNJLK@multiple?5content_rowid?$DN?4?4?4?5direc@ 100f71b8     sqlite3:sqlite3.obj
 0002:000161e0       ??_C@_0L@ECGKBPGO@columnsize?$AA@ 100f71e0     sqlite3:sqlite3.obj
 0002:000161ec       ??_C@_0CD@NEPNFBHB@malformed?5columnsize?$DN?4?4?4?5directi@ 100f71ec     sqlite3:sqlite3.obj
 0002:00016210       ??_C@_0BP@NJOMNEFL@malformed?5detail?$DN?4?4?4?5directive?$AA@ 100f7210     sqlite3:sqlite3.obj
 0002:00016230       ??_C@_0BM@GLKIHOOD@unrecognized?5option?3?5?$CC?$CF?4?$CKs?$CC?$AA@ 100f7230     sqlite3:sqlite3.obj
 0002:0001624c       ??_C@_04PNBFHPGN@rank?$AA@ 100f724c     sqlite3:sqlite3.obj
 0002:00016254       ??_C@_0BO@HLHCALLL@reserved?5fts5?5column?5name?3?5?$CFs?$AA@ 100f7254     sqlite3:sqlite3.obj
 0002:00016274       ??_C@_09KPCIJFCB@unindexed?$AA@ 100f7274     sqlite3:sqlite3.obj
 0002:00016280       ??_C@_0BP@EBLACHJN@unrecognized?5column?5option?3?5?$CFs?$AA@ 100f7280     sqlite3:sqlite3.obj
 0002:000162a0       ??_C@_04CJIFFBPK@T?4?$CFQ?$AA@ 100f72a0     sqlite3:sqlite3.obj
 0002:000162a8       ??_C@_06HNHKCPEH@?0?5T?4?$CFQ?$AA@ 100f72a8     sqlite3:sqlite3.obj
 0002:000162b0       ??_C@_07ENDMHNC@?0?5T?4c?$CFd?$AA@ 100f72b0     sqlite3:sqlite3.obj
 0002:000162b8       ??_C@_0BN@MEHNAIOK@reserved?5fts5?5table?5name?3?5?$CFs?$AA@ 100f72b8     sqlite3:sqlite3.obj
 0002:000162d8       ??_C@_0BE@NEGGJJFK@parse?5error?5in?5?$CC?$CFs?$CC?$AA@ 100f72d8     sqlite3:sqlite3.obj
 0002:000162ec       ??_C@_0L@HAMDBJKL@?$CFQ?4?8?$CFq_?$CFs?8?$AA@ 100f72ec     sqlite3:sqlite3.obj
 0002:000162f8       ??_C@_0BA@BGMKDGLG@CREATE?5TABLE?5x?$CI?$AA@ 100f72f8     sqlite3:sqlite3.obj
 0002:00016308       ??_C@_06LICCFPAF@?$CFz?$CFs?$CFQ?$AA@ 100f7308     sqlite3:sqlite3.obj
 0002:00016310       ??_C@_0BK@DLCLEHIJ@?$CFz?0?5?$CFQ?5HIDDEN?0?5?$CFs?5HIDDEN?$CJ?$AA@ 100f7310     sqlite3:sqlite3.obj
 0002:0001632c       ??_C@_04OFJJGAOC@pgsz?$AA@ 100f732c     sqlite3:sqlite3.obj
 0002:00016334       ??_C@_08GCJLHPLL@hashsize?$AA@ 100f7334     sqlite3:sqlite3.obj
 0002:00016340       ??_C@_09LMBMBDNC@automerge?$AA@ 100f7340     sqlite3:sqlite3.obj
 0002:0001634c       ??_C@_09FHFLIHHB@usermerge?$AA@ 100f734c     sqlite3:sqlite3.obj
 0002:00016358       ??_C@_0M@PKMMADDP@crisismerge?$AA@ 100f7358     sqlite3:sqlite3.obj
 0002:00016364       ??_C@_0CA@PGNDODLA@SELECT?5k?0?5v?5FROM?5?$CFQ?4?8?$CFq_config?8?$AA@ 100f7364     sqlite3:sqlite3.obj
 0002:00016384       ??_C@_07CPCPJPKL@version?$AA@ 100f7384     sqlite3:sqlite3.obj
 0002:00016390       ??_C@_0EB@PDIODBOG@invalid?5fts5?5file?5format?5?$CIfound?5@ 100f7390     sqlite3:sqlite3.obj
 0002:000163d4       ??_C@_0BE@EMLBHFPA@unterminated?5string?$AA@ 100f73d4     sqlite3:sqlite3.obj
 0002:000163e8       ??_C@_0BP@CIPAIJKB@fts5?3?5syntax?5error?5near?5?$CC?$CF?41s?$CC?$AA@ 100f73e8     sqlite3:sqlite3.obj
 0002:00016408       ??_C@_0BN@KOBPHHFF@expected?5integer?0?5got?5?$CC?$CF?4?$CKs?$CC?$AA@ 100f7408     sqlite3:sqlite3.obj
 0002:00016428       ??_C@_0DF@DBCIDOJF@fts5?3?5column?5queries?5are?5not?5sup@ 100f7428     sqlite3:sqlite3.obj
 0002:00016460       ??_C@_06CEOJBHLP@phrase?$AA@ 100f7460     sqlite3:sqlite3.obj
 0002:00016468       ??_C@_0DC@BGMKGANN@fts5?3?5?$CFs?5queries?5are?5not?5support@ 100f7468     sqlite3:sqlite3.obj
 0002:0001649c       ??_C@_03IKGEINEE@?$CFs?5?$AA@ 100f749c     sqlite3:sqlite3.obj
 0002:000164a0       ??_C@_08LKJDONIG@?9col?5?$CFd?5?$AA@ 100f74a0     sqlite3:sqlite3.obj
 0002:000164ac       ??_C@_08HEAMPIOB@?9col?5?$HL?$CFd?$AA@ 100f74ac     sqlite3:sqlite3.obj
 0002:000164b8       ??_C@_03EBJOKFHF@?5?$CFd?$AA@ 100f74b8     sqlite3:sqlite3.obj
 0002:000164bc       ??_C@_02MJBDPJEM@?$HN?5?$AA@ 100f74bc     sqlite3:sqlite3.obj
 0002:000164c0       ??_C@_09ENCADHMN@?9near?5?$CFd?5?$AA@ 100f74c0     sqlite3:sqlite3.obj
 0002:000164cc       ??_C@_02PEDIMADA@?5?$HL?$AA@ 100f74cc     sqlite3:sqlite3.obj
 0002:000164d0       ??_C@_05MHMNDECD@?5?$FL?$CFz?$FN?$AA@ 100f74d0     sqlite3:sqlite3.obj
 0002:000164d8       ??_C@_02JMMFPCED@?$CC?$CC?$AA@ 100f74d8     sqlite3:sqlite3.obj
 0002:000164dc       ??_C@_05LLGELLBM@?$CFs?5?3?5?$AA@ 100f74dc     sqlite3:sqlite3.obj
 0002:000164e4       ??_C@_05PKLBIJFF@NEAR?$CI?$AA@ 100f74e4     sqlite3:sqlite3.obj
 0002:000164ec       ??_C@_03NPBFACHO@?5?$CL?5?$AA@ 100f74ec     sqlite3:sqlite3.obj
 0002:000164f0       ??_C@_05GDOGBHAO@?0?5?$CFd?$CJ?$AA@ 100f74f0     sqlite3:sqlite3.obj
 0002:000164f8       ??_C@_05JDBEFHOH@?5NOT?5?$AA@ 100f74f8     sqlite3:sqlite3.obj
 0002:00016500       ??_C@_04MBNHLBPB@?5OR?5?$AA@ 100f7500     sqlite3:sqlite3.obj
 0002:00016508       ??_C@_08NEELJNCI@?$CFs?$CFs?$CFz?$CFs?$AA@ 100f7508     sqlite3:sqlite3.obj
 0002:00016514       ??_C@_07LKENCEEG@nearset?$AA@ 100f7514     sqlite3:sqlite3.obj
 0002:0001651c       ??_C@_0O@HMOEDBAG@fts5_expr_tcl?$AA@ 100f751c     sqlite3:sqlite3.obj
 0002:0001652c       ??_C@_09PODONEKJ@fts5_expr?$AA@ 100f752c     sqlite3:sqlite3.obj
 0002:00016538       ??_C@_0CJ@LMNCPIEA@wrong?5number?5of?5arguments?5to?5fun@ 100f7538     sqlite3:sqlite3.obj
 0002:00016564       ??_C@_0DD@PEIJNNKA@wrong?5number?5of?5arguments?5to?5fun@ 100f7564     sqlite3:sqlite3.obj
 0002:00016598       ??_C@_02BGFFJOGB@L?$CK?$AA@ 100f7598     sqlite3:sqlite3.obj
 0002:0001659c       ??_C@_02BFNBEKAP@N?$CK?$AA@ 100f759c     sqlite3:sqlite3.obj
 0002:000165a0       ??_C@_02JAAHGCBM@Co?$AA@   100f75a0     sqlite3:sqlite3.obj
 0002:000165a4       ??_C@_0DA@BIIALNIH@wrong?5number?5of?5arguments?5to?5fun@ 100f75a4     sqlite3:sqlite3.obj
 0002:000165d4       ??_C@_0N@OJPOPNKI@fts5_isalnum?$AA@ 100f75d4     sqlite3:sqlite3.obj
 0002:000165e4       ??_C@_09HNPECOJM@fts5_fold?$AA@ 100f75e4     sqlite3:sqlite3.obj
 0002:000165f0       ??_C@_0DD@OABMJECO@REPLACE?5INTO?5?8?$CFq?8?4?8?$CFq_data?8?$CIid?0?5@ 100f75f0     sqlite3:sqlite3.obj
 0002:00016624       ??_C@_0DB@JNAPOGD@DELETE?5FROM?5?8?$CFq?8?4?8?$CFq_data?8?5WHERE@ 100f7624     sqlite3:sqlite3.obj
 0002:00016658       ??_C@_0CI@GOFEPDLL@DELETE?5FROM?5?8?$CFq?8?4?8?$CFq_idx?8?5WHERE?5@ 100f7658     sqlite3:sqlite3.obj
 0002:00016680       ??_C@_0BH@DDFHPPKE@PRAGMA?5?$CFQ?4data_version?$AA@ 100f7680     sqlite3:sqlite3.obj
 0002:00016698       ??_C@_0FE@FFBGCGHB@SELECT?5pgno?5FROM?5?8?$CFq?8?4?8?$CFq_idx?8?5W@ 100f7698     sqlite3:sqlite3.obj
 0002:000166ec       ??_C@_0DJ@GMPBOAPJ@INSERT?5INTO?5?8?$CFq?8?4?8?$CFq_idx?8?$CIsegid?0@ 100f76ec     sqlite3:sqlite3.obj
 0002:00016728       ??_C@_07MLCFOHLB@?$CFs_data?$AA@ 100f7728     sqlite3:sqlite3.obj
 0002:00016730       ??_C@_0CD@BNBOJEIH@id?5INTEGER?5PRIMARY?5KEY?0?5block?5BL@ 100f7730     sqlite3:sqlite3.obj
 0002:00016754       ??_C@_0CM@KAPJJDEC@segid?0?5term?0?5pgno?0?5PRIMARY?5KEY?$CIs@ 100f7754     sqlite3:sqlite3.obj
 0002:00016780       ??_C@_0EI@ONICPMBF@SELECT?5segid?0?5term?0?5?$CIpgno?$DO?$DO1?$CJ?0?5?$CI@ 100f7780     sqlite3:sqlite3.obj
 0002:000167c8       ??_C@_0M@JKLLKCBG@?$HLaverages?$HN?5?$AA@ 100f77c8     sqlite3:sqlite3.obj
 0002:000167d4       ??_C@_0M@HNBBGJKK@?$HLstructure?$HN?$AA@ 100f77d4     sqlite3:sqlite3.obj
 0002:000167e0       ??_C@_06INFMOPHE@dlidx?5?$AA@ 100f77e0     sqlite3:sqlite3.obj
 0002:000167e8       ??_C@_0BK@NNHEDIBA@?$HL?$CFssegid?$DN?$CFd?5h?$DN?$CFd?5pgno?$DN?$CFd?$HN?$AA@ 100f77e8     sqlite3:sqlite3.obj
 0002:00016804       ??_C@_0BL@EFMJIEFD@?5?$HLlvl?$DN?$CFd?5nMerge?$DN?$CFd?5nSeg?$DN?$CFd?$AA@ 100f7804     sqlite3:sqlite3.obj
 0002:00016820       ??_C@_0BH@MLHDJCKN@?5?$HLid?$DN?$CFd?5leaves?$DN?$CFd?4?4?$CFd?$HN?$AA@ 100f7820     sqlite3:sqlite3.obj
 0002:00016838       ??_C@_04HGGBINEM@?$CFs?$CFd?$AA@ 100f7838     sqlite3:sqlite3.obj
 0002:00016840       ??_C@_08KLDDNKMP@?5id?$DN?$CFlld?$AA@ 100f7840     sqlite3:sqlite3.obj
 0002:0001684c       ??_C@_0L@EEMGLGLN@?5nPos?$DN?$CFd?$CFs?$AA@ 100f784c     sqlite3:sqlite3.obj
 0002:00016858       ??_C@_01MIFGBAGJ@?$CL?$AA@ 100f7858     sqlite3:sqlite3.obj
 0002:0001685c       ??_C@_07FDAKMPPM@?5?$CFlld?$CFs?$AA@ 100f785c     sqlite3:sqlite3.obj
 0002:00016864       ??_C@_09ECHGDAGK@?5?$CFd?$CI?$CFlld?$CJ?$AA@ 100f7864     sqlite3:sqlite3.obj
 0002:00016870       ??_C@_0L@DPEGBOAM@?5term?$DN?$CF?4?$CKs?$AA@ 100f7870     sqlite3:sqlite3.obj
 0002:0001687c       ??_C@_07DPPMCAKL@corrupt?$AA@ 100f787c     sqlite3:sqlite3.obj
 0002:00016884       ??_C@_0CF@MKKLNHEF@should?5be?3?5fts5_rowid?$CIsubject?0?5?4@ 100f7884     sqlite3:sqlite3.obj
 0002:000168ac       ??_C@_07BADNAEFA@segment?$AA@ 100f78ac     sqlite3:sqlite3.obj
 0002:000168b4       ??_C@_0CP@PALIMOP@should?5be?3?5fts5_rowid?$CI?8segment?8?0@ 100f78b4     sqlite3:sqlite3.obj
 0002:000168e4       ??_C@_0CM@BIFLHBFJ@first?5arg?5to?5fts5_rowid?$CI?$CJ?5must?5b@ 100f78e4     sqlite3:sqlite3.obj
 0002:00016910       ??_C@_0M@DFCDGLKM@fts5_decode?$AA@ 100f7910     sqlite3:sqlite3.obj
 0002:0001691c       ??_C@_0BB@CDJGNFAJ@fts5_decode_none?$AA@ 100f791c     sqlite3:sqlite3.obj
 0002:00016930       ??_C@_0L@OPNCIGKC@fts5_rowid?$AA@ 100f7930     sqlite3:sqlite3.obj
 0002:0001693c       ??_C@_0DF@JLMLEJKE@SELECT?5rowid?0?5rank?5FROM?5?$CFQ?4?$CFQ?5OR@ 100f793c     sqlite3:sqlite3.obj
 0002:00016974       ??_C@_05JBFDNDAE@reads?$AA@ 100f7974     sqlite3:sqlite3.obj
 0002:0001697c       ??_C@_0BM@IFPGLKLD@unknown?5special?5query?3?5?$CF?4?$CKs?$AA@ 100f797c     sqlite3:sqlite3.obj
 0002:00016998       ??_C@_0BF@OOPNCALL@no?5such?5function?3?5?$CFs?$AA@ 100f7998     sqlite3:sqlite3.obj
 0002:000169b0       ??_C@_0CB@HOIJLHLO@parse?5error?5in?5rank?5function?3?5?$CFs@ 100f79b0     sqlite3:sqlite3.obj
 0002:000169d4       ??_C@_0CE@ECAIDPIF@?$CFs?3?5table?5does?5not?5support?5scann@ 100f79d4     sqlite3:sqlite3.obj
 0002:000169f8       ??_C@_0L@BDLHLPBP@delete?9all?$AA@ 100f79f8     sqlite3:sqlite3.obj
 0002:00016a08       ??_C@_0FA@CIIINBOG@?8delete?9all?8?5may?5only?5be?5used?5wi@ 100f7a08     sqlite3:sqlite3.obj
 0002:00016a58       ??_C@_0DI@DLMKIEBM@?8rebuild?8?5may?5not?5be?5used?5with?5a@ 100f7a58     sqlite3:sqlite3.obj
 0002:00016a90       ??_C@_05DPKBJALF@merge?$AA@ 100f7a90     sqlite3:sqlite3.obj
 0002:00016a98       ??_C@_0M@IELMHAAN@DELETE?5from?$AA@ 100f7a98     sqlite3:sqlite3.obj
 0002:00016aa4       ??_C@_0CF@HECLOEBI@cannot?5?$CFs?5contentless?5fts5?5table@ 100f7aa4     sqlite3:sqlite3.obj
 0002:00016acc       ??_C@_0BF@HCNBMNJO@no?5such?5cursor?3?5?$CFlld?$AA@ 100f7acc     sqlite3:sqlite3.obj
 0002:00016ae4       ??_C@_0BG@LBLJOHPJ@no?5such?5tokenizer?3?5?$CFs?$AA@ 100f7ae4     sqlite3:sqlite3.obj
 0002:00016afc       ??_C@_0BP@OILDIGEL@error?5in?5tokenizer?5constructor?$AA@ 100f7afc     sqlite3:sqlite3.obj
 0002:00016b1c       ??_C@_0N@HNHPPILO@fts5_api_ptr?$AA@ 100f7b1c     sqlite3:sqlite3.obj
 0002:00016b30       ??_C@_0FL@NHPLELMF@fts5?3?52019?907?910?517?332?303?5fc82b7@ 100f7b30     sqlite3:sqlite3.obj
 0002:00016b8c       ??_C@_06HEJKKHEK@config?$AA@ 100f7b8c     sqlite3:sqlite3.obj
 0002:00016b94       ??_C@_04DPHEKJHL@fts5?$AA@ 100f7b94     sqlite3:sqlite3.obj
 0002:00016b9c       ??_C@_0P@NAHBMDMC@fts5_source_id?$AA@ 100f7b9c     sqlite3:sqlite3.obj
 0002:00016bb0       ??_C@_0EE@MFBLFLCB@SELECT?5?$CFs?5FROM?5?$CFs?5T?5WHERE?5T?4?$CFQ?5?$DO@ 100f7bb0     sqlite3:sqlite3.obj
 0002:00016bf8       ??_C@_0EF@CPBHACAK@SELECT?5?$CFs?5FROM?5?$CFs?5T?5WHERE?5T?4?$CFQ?5?$DM@ 100f7bf8     sqlite3:sqlite3.obj
 0002:00016c40       ??_C@_0CB@EJCMNDBM@SELECT?5?$CFs?5FROM?5?$CFs?5T?5WHERE?5T?4?$CFQ?$DN?$DP@ 100f7c40     sqlite3:sqlite3.obj
 0002:00016c64       ??_C@_0CI@IBMIJCLN@REPLACE?5INTO?5?$CFQ?4?8?$CFq_content?8?5VAL@ 100f7c64     sqlite3:sqlite3.obj
 0002:00016c8c       ??_C@_0CH@KANAGELI@DELETE?5FROM?5?$CFQ?4?8?$CFq_content?8?5WHER@ 100f7c8c     sqlite3:sqlite3.obj
 0002:00016cb4       ??_C@_0CH@CMIFHF@DELETE?5FROM?5?$CFQ?4?8?$CFq_docsize?8?5WHER@ 100f7cb4     sqlite3:sqlite3.obj
 0002:00016cdc       ??_C@_0CK@JMILCBMB@SELECT?5sz?5FROM?5?$CFQ?4?8?$CFq_docsize?8?5W@ 100f7cdc     sqlite3:sqlite3.obj
 0002:00016d08       ??_C@_0CI@MDNDCIBJ@REPLACE?5INTO?5?$CFQ?4?8?$CFq_config?8?5VALU@ 100f7d08     sqlite3:sqlite3.obj
 0002:00016d30       ??_C@_0BH@BLCDJBGD@SELECT?5?$CFs?5FROM?5?$CFs?5AS?5T?$AA@ 100f7d30     sqlite3:sqlite3.obj
 0002:00016d48       ??_C@_0GI@LBOJHFAI@DROP?5TABLE?5IF?5EXISTS?5?$CFQ?4?8?$CFq_data@ 100f7d48     sqlite3:sqlite3.obj
 0002:00016db0       ??_C@_0CG@KFDIHCKD@DROP?5TABLE?5IF?5EXISTS?5?$CFQ?4?8?$CFq_docs@ 100f7db0     sqlite3:sqlite3.obj
 0002:00016dd8       ??_C@_0CG@BDEBIDEG@DROP?5TABLE?5IF?5EXISTS?5?$CFQ?4?8?$CFq_cont@ 100f7dd8     sqlite3:sqlite3.obj
 0002:00016e00       ??_C@_0CK@JPEMFHJJ@ALTER?5TABLE?5?$CFQ?4?8?$CFq_?$CFs?8?5RENAME?5TO@ 100f7e00     sqlite3:sqlite3.obj
 0002:00016e2c       ??_C@_0P@OEAFFAME@?5WITHOUT?5ROWID?$AA@ 100f7e2c     sqlite3:sqlite3.obj
 0002:00016e3c       ??_C@_0BO@KJIIKFHN@CREATE?5TABLE?5?$CFQ?4?8?$CFq_?$CFq?8?$CI?$CFs?$CJ?$CFs?$AA@ 100f7e3c     sqlite3:sqlite3.obj
 0002:00016e5c       ??_C@_0CM@FMPEAAE@fts5?3?5error?5creating?5shadow?5tabl@ 100f7e5c     sqlite3:sqlite3.obj
 0002:00016e88       ??_C@_0BH@FOGGOGNE@id?5INTEGER?5PRIMARY?5KEY?$AA@ 100f7e88     sqlite3:sqlite3.obj
 0002:00016ea0       ??_C@_05OJBGMGFA@?0?5c?$CFd?$AA@ 100f7ea0     sqlite3:sqlite3.obj
 0002:00016ea8       ??_C@_0CA@CCDFFKIA@id?5INTEGER?5PRIMARY?5KEY?0?5sz?5BLOB?$AA@ 100f7ea8     sqlite3:sqlite3.obj
 0002:00016ec8       ??_C@_0BB@DBJOGKKF@k?5PRIMARY?5KEY?0?5v?$AA@ 100f7ec8     sqlite3:sqlite3.obj
 0002:00016edc       ??_C@_0DC@NNCAGEAH@DELETE?5FROM?5?$CFQ?4?8?$CFq_data?8?$DLDELETE?5@ 100f7edc     sqlite3:sqlite3.obj
 0002:00016f10       ??_C@_0BN@CMIDFHKG@DELETE?5FROM?5?$CFQ?4?8?$CFq_docsize?8?$DL?$AA@ 100f7f10     sqlite3:sqlite3.obj
 0002:00016f30       ??_C@_0CA@KFMKPEJG@SELECT?5count?$CI?$CK?$CJ?5FROM?5?$CFQ?4?8?$CFq_?$CFs?8?$AA@ 100f7f30     sqlite3:sqlite3.obj
 0002:00016f50       ??_C@_0L@JAAEPBJE@tokenchars?$AA@ 100f7f50     sqlite3:sqlite3.obj
 0002:00016f5c       ??_C@_0L@KMLLPMIJ@separators?$AA@ 100f7f5c     sqlite3:sqlite3.obj
 0002:00016f68       ??_C@_08IPDOLDG@L?$CK?5N?$CK?5Co?$AA@ 100f7f68     sqlite3:sqlite3.obj
 0002:00016f74       ??_C@_0L@GOKOAKFO@categories?$AA@ 100f7f74     sqlite3:sqlite3.obj
 0002:00016f80       ??_C@_0BC@DCEAKPHN@remove_diacritics?$AA@ 100f7f80     sqlite3:sqlite3.obj
 0002:00016f94       ??_C@_05OJENGABA@ascii?$AA@ 100f7f94     sqlite3:sqlite3.obj
 0002:00016f9c       ??_C@_03HNOLNALI@col?$AA@  100f7f9c     sqlite3:sqlite3.obj
 0002:00016fa0       ??_C@_03DMHICLNI@row?$AA@  100f7fa0     sqlite3:sqlite3.obj
 0002:00016fa4       ??_C@_08EMNENPBA@instance?$AA@ 100f7fa4     sqlite3:sqlite3.obj
 0002:00016fb0       ??_C@_0CC@JDJLAILP@fts5vocab?3?5unknown?5table?5type?3?5?$CF@ 100f7fb0     sqlite3:sqlite3.obj
 0002:00016fd4       ??_C@_0CI@BGKFKDIK@CREATE?5TABlE?5vocab?$CIterm?0?5col?0?5do@ 100f7fd4     sqlite3:sqlite3.obj
 0002:00016ffc       ??_C@_0CD@GEHGHJJN@CREATE?5TABlE?5vocab?$CIterm?0?5doc?0?5cn@ 100f7ffc     sqlite3:sqlite3.obj
 0002:00017020       ??_C@_0CL@NMAMOEJ@CREATE?5TABlE?5vocab?$CIterm?0?5doc?0?5co@ 100f8020     sqlite3:sqlite3.obj
 0002:0001704c       ??_C@_0CB@GHBHBODJ@wrong?5number?5of?5vtable?5arguments@ 100f804c     sqlite3:sqlite3.obj
 0002:00017070       ??_C@_0DD@FBAAPLAN@SELECT?5t?4?$CFQ?5FROM?5?$CFQ?4?$CFQ?5AS?5t?5WHER@ 100f8070     sqlite3:sqlite3.obj
 0002:000170a4       ??_C@_0BK@FEAIPECG@no?5such?5fts5?5table?3?5?$CFs?4?$CFs?$AA@ 100f80a4     sqlite3:sqlite3.obj
 0002:000170c0       ??_C@_09EEBDJDHO@fts5vocab?$AA@ 100f80c0     sqlite3:sqlite3.obj
 0002:000170d0       ??_C@_0FF@NFKLHHED@2019?907?910?517?332?303?5fc82b73eaac8@ 100f80d0     sqlite3:sqlite3.obj
 0002:00017128       __real@0000000000000000    100f8128     sqlite3:sqlite3.obj
 0002:00017130       __real@3cb59e05f1e2674d    100f8130     sqlite3:sqlite3.obj
 0002:00017138       __real@3ddb7cdfd9d7bdbb    100f8138     sqlite3:sqlite3.obj
 0002:00017140       __real@3e45798ee2308c3a    100f8140     sqlite3:sqlite3.obj
 0002:00017148       __real@3eb0c6f7a0b5ed8d    100f8148     sqlite3:sqlite3.obj
 0002:00017150       __real@3fb999999999999a    100f8150     sqlite3:sqlite3.obj
 0002:00017158       __real@3fd0000000000000    100f8158     sqlite3:sqlite3.obj
 0002:00017160       __real@3fe0000000000000    100f8160     sqlite3:sqlite3.obj
 0002:00017168       __real@3fe8000000000000    100f8168     sqlite3:sqlite3.obj
 0002:00017170       __real@3fefffffc0000000    100f8170     sqlite3:sqlite3.obj
 0002:00017178       __real@3ff0000000000000    100f8178     sqlite3:sqlite3.obj
 0002:00017180       __real@3ff0000020000000    100f8180     sqlite3:sqlite3.obj
 0002:00017188       __real@3ff3333333333333    100f8188     sqlite3:sqlite3.obj
 0002:00017190       __real@4000000000000000    100f8190     sqlite3:sqlite3.obj
 0002:00017198       __real@400199999999999a    100f8198     sqlite3:sqlite3.obj
 0002:000171a0       __real@4014000000000000    100f81a0     sqlite3:sqlite3.obj
 0002:000171a8       __real@4018000000000000    100f81a8     sqlite3:sqlite3.obj
 0002:000171b0       __real@401c000000000000    100f81b0     sqlite3:sqlite3.obj
 0002:000171b8       __real@4024000000000000    100f81b8     sqlite3:sqlite3.obj
 0002:000171c0       __real@4034000000000000    100f81c0     sqlite3:sqlite3.obj
 0002:000171c8       __real@403e000000000000    100f81c8     sqlite3:sqlite3.obj
 0002:000171d0       __real@403e99a027525461    100f81d0     sqlite3:sqlite3.obj
 0002:000171d8       __real@4048000000000000    100f81d8     sqlite3:sqlite3.obj
 0002:000171e0       __real@404dffdf3b645a1d    100f81e0     sqlite3:sqlite3.obj
 0002:000171e8       __real@4059000000000000    100f81e8     sqlite3:sqlite3.obj
 0002:000171f0       __real@405e866666666666    100f81f0     sqlite3:sqlite3.obj
 0002:000171f8       __real@4076d40000000000    100f81f8     sqlite3:sqlite3.obj
 0002:00017200       __real@407f400000000000    100f8200     sqlite3:sqlite3.obj
 0002:00017208       __real@4087700000000000    100f8208     sqlite3:sqlite3.obj
 0002:00017210       __real@408f400000000000    100f8210     sqlite3:sqlite3.obj
 0002:00017218       __real@4097d20000000000    100f8218     sqlite3:sqlite3.obj
 0002:00017220       __real@40d3880000000000    100f8220     sqlite3:sqlite3.obj
 0002:00017228       __real@40e1d58800000000    100f8228     sqlite3:sqlite3.obj
 0002:00017230       __real@410e848000000000    100f8230     sqlite3:sqlite3.obj
 0002:00017238       __real@4126e36000000000    100f8238     sqlite3:sqlite3.obj
 0002:00017240       __real@412e848000000000    100f8240     sqlite3:sqlite3.obj
 0002:00017248       __real@413c7dd040000000    100f8248     sqlite3:sqlite3.obj
 0002:00017250       __real@415312d000000000    100f8250     sqlite3:sqlite3.obj
 0002:00017258       __real@41547f8b20000000    100f8258     sqlite3:sqlite3.obj
 0002:00017260       __real@4194997000000000    100f8260     sqlite3:sqlite3.obj
 0002:00017268       __real@4197d78400000000    100f8268     sqlite3:sqlite3.obj
 0002:00017270       __real@41a0000000000000    100f8270     sqlite3:sqlite3.obj
 0002:00017278       __real@41ddcd6500000000    100f8278     sqlite3:sqlite3.obj
 0002:00017280       __real@41dfffffffc00000    100f8280     sqlite3:sqlite3.obj
 0002:00017288       __real@4202a05f20000000    100f8288     sqlite3:sqlite3.obj
 0002:00017290       __real@42e7f907ca644000    100f8290     sqlite3:sqlite3.obj
 0002:00017298       __real@42fa6401072fe000    100f8298     sqlite3:sqlite3.obj
 0002:000172a0       __real@4330000000000000    100f82a0     sqlite3:sqlite3.obj
 0002:000172a8       __real@43e0000000000000    100f82a8     sqlite3:sqlite3.obj
 0002:000172b0       __real@4a511b0ec57e649a    100f82b0     sqlite3:sqlite3.obj
 0002:000172b8       __real@546d42aea2879f2e    100f82b8     sqlite3:sqlite3.obj
 0002:000172c0       __real@54b249ad2594c37d    100f82c0     sqlite3:sqlite3.obj
 0002:000172c8       __real@7f800000            100f82c8     sqlite3:sqlite3.obj
 0002:000172d0       __real@7fe1ccf385ebc8a0    100f82d0     sqlite3:sqlite3.obj
 0002:000172d8       __real@8000000000000000    100f82d8     sqlite3:sqlite3.obj
 0002:000172e0       __real@bfe0000000000000    100f82e0     sqlite3:sqlite3.obj
 0002:000172e8       __real@bff0000000000000    100f82e8     sqlite3:sqlite3.obj
 0002:000172f0       __real@c08f400000000000    100f82f0     sqlite3:sqlite3.obj
 0002:000172f8       __real@c330000000000000    100f82f8     sqlite3:sqlite3.obj
 0002:00017300       __real@c3e0000000000000    100f8300     sqlite3:sqlite3.obj
 0002:00017310       __xmm@000000000000000100000001000007d0 100f8310     sqlite3:sqlite3.obj
 0002:00017320       __xmm@00000001000000010000000100000001 100f8320     sqlite3:sqlite3.obj
 0002:00017330       __xmm@00000003000000020000000100000000 100f8330     sqlite3:sqlite3.obj
 0002:00017340       __xmm@00000004000000040000000400000004 100f8340     sqlite3:sqlite3.obj
 0002:00017350       __xmm@00000028000000280000002800000028 100f8350     sqlite3:sqlite3.obj
 0002:00017360       __xmm@00000050000000500000005000000050 100f8360     sqlite3:sqlite3.obj
 0002:00017370       __xmm@20202020202020202020202020202020 100f8370     sqlite3:sqlite3.obj
 0002:00017380       __xmm@30303030303030303030303030303030 100f8380     sqlite3:sqlite3.obj
 0002:00017390       __xmm@41414141414141414141414141414141 100f8390     sqlite3:sqlite3.obj
 0002:000173a0       __xmm@41f00000000000000000000000000000 100f83a0     better_sqlite3.obj
 0002:000173b0       __xmm@5a5a5a5a5a5a5a5a5a5a5a5a5a5a5a5a 100f83b0     sqlite3:sqlite3.obj
 0002:000173c0       __xmm@80000000000000008000000000000000 100f83c0     sqlite3:sqlite3.obj
 0002:000173d0       __xmm@ffffffffffffffffffffffffffffffff 100f83d0     sqlite3:sqlite3.obj
 0002:00017560       ___acrt_log_table_b        100f8560     libucrt:log_tables.obj
 0002:00017970       ___acrt_log_table_t        100f8970     libucrt:log_tables.obj
 0002:00017ed0       ??_R4exception@std@@6B@    100f8ed0     libcpmt:xthrow.obj
 0002:00017ee4       ??_R3exception@std@@8      100f8ee4     libcpmt:xthrow.obj
 0002:00017ef4       ??_R2exception@std@@8      100f8ef4     libcpmt:xthrow.obj
 0002:00017efc       ??_R1A@?0A@EA@exception@std@@8 100f8efc     libcpmt:xthrow.obj
 0002:00017f18       ??_R4bad_alloc@std@@6B@    100f8f18     libcpmt:xthrow.obj
 0002:00017f2c       ??_R3bad_alloc@std@@8      100f8f2c     libcpmt:xthrow.obj
 0002:00017f3c       ??_R2bad_alloc@std@@8      100f8f3c     libcpmt:xthrow.obj
 0002:00017f48       ??_R1A@?0A@EA@bad_alloc@std@@8 100f8f48     libcpmt:xthrow.obj
 0002:00017f64       ??_R4logic_error@std@@6B@  100f8f64     libcpmt:xthrow.obj
 0002:00017f78       ??_R3logic_error@std@@8    100f8f78     libcpmt:xthrow.obj
 0002:00017f88       ??_R2logic_error@std@@8    100f8f88     libcpmt:xthrow.obj
 0002:00017f94       ??_R1A@?0A@EA@logic_error@std@@8 100f8f94     libcpmt:xthrow.obj
 0002:00017fb0       ??_R4length_error@std@@6B@ 100f8fb0     libcpmt:xthrow.obj
 0002:00017fc4       ??_R3length_error@std@@8   100f8fc4     libcpmt:xthrow.obj
 0002:00017fd4       ??_R2length_error@std@@8   100f8fd4     libcpmt:xthrow.obj
 0002:00017fe4       ??_R1A@?0A@EA@length_error@std@@8 100f8fe4     libcpmt:xthrow.obj
 0002:00018000       ??_R4out_of_range@std@@6B@ 100f9000     libcpmt:xthrow.obj
 0002:00018014       ??_R3out_of_range@std@@8   100f9014     libcpmt:xthrow.obj
 0002:00018024       ??_R2out_of_range@std@@8   100f9024     libcpmt:xthrow.obj
 0002:00018034       ??_R1A@?0A@EA@out_of_range@std@@8 100f9034     libcpmt:xthrow.obj
 0002:00018050       ??_R4type_info@@6B@        100f9050     LIBCMT:std_type_info_static.obj
 0002:00018064       ??_R3type_info@@8          100f9064     LIBCMT:std_type_info_static.obj
 0002:00018074       ??_R2type_info@@8          100f9074     LIBCMT:std_type_info_static.obj
 0002:0001807c       ??_R1A@?0A@EA@type_info@@8 100f907c     LIBCMT:std_type_info_static.obj
 0002:00018098       ??_R4bad_array_new_length@std@@6B@ 100f9098     LIBCMT:throw_bad_alloc.obj
 0002:000180ac       ??_R3bad_array_new_length@std@@8 100f90ac     LIBCMT:throw_bad_alloc.obj
 0002:000180bc       ??_R2bad_array_new_length@std@@8 100f90bc     LIBCMT:throw_bad_alloc.obj
 0002:000180cc       ??_R1A@?0A@EA@bad_array_new_length@std@@8 100f90cc     LIBCMT:throw_bad_alloc.obj
 0002:000180e8       ??_R4bad_exception@std@@6B@ 100f90e8     libvcruntime:frame.obj
 0002:000180fc       ??_R3bad_exception@std@@8  100f90fc     libvcruntime:frame.obj
 0002:0001810c       ??_R2bad_exception@std@@8  100f910c     libvcruntime:frame.obj
 0002:00018118       ??_R1A@?0A@EA@bad_exception@std@@8 100f9118     libvcruntime:frame.obj
 0002:00018140       ___safe_se_handler_table   100f9140     <linker-defined>
 0002:00018604       ___rtc_iaa                 100f9604     LIBCMT:_initsect_.obj
 0002:00018608       ___rtc_izz                 100f9608     LIBCMT:_initsect_.obj
 0002:0001860c       ___rtc_taa                 100f960c     LIBCMT:_initsect_.obj
 0002:00018610       ___rtc_tzz                 100f9610     LIBCMT:_initsect_.obj
 0002:00018d8c       __TI2?AVbad_alloc@std@@    100f9d8c     libcpmt:xthrow.obj
 0002:00018d9c       __CTA2?AVbad_alloc@std@@   100f9d9c     libcpmt:xthrow.obj
 0002:00018da8       __CT??_R0?AVbad_alloc@std@@@8??0bad_alloc@std@@QAE@ABV01@@Z12 100f9da8     libcpmt:xthrow.obj
 0002:00018dc4       __CT??_R0?AVexception@std@@@8??0exception@std@@QAE@ABV01@@Z12 100f9dc4     libcpmt:xthrow.obj
 0002:00018de0       __CT??_R0?AVlogic_error@std@@@8??0logic_error@std@@QAE@ABV01@@Z12 100f9de0     libcpmt:xthrow.obj
 0002:00018dfc       __TI3?AVlength_error@std@@ 100f9dfc     libcpmt:xthrow.obj
 0002:00018e0c       __CTA3?AVlength_error@std@@ 100f9e0c     libcpmt:xthrow.obj
 0002:00018e1c       __CT??_R0?AVlength_error@std@@@8??0length_error@std@@QAE@ABV01@@Z12 100f9e1c     libcpmt:xthrow.obj
 0002:00018e38       __TI3?AVout_of_range@std@@ 100f9e38     libcpmt:xthrow.obj
 0002:00018e48       __CTA3?AVout_of_range@std@@ 100f9e48     libcpmt:xthrow.obj
 0002:00018e58       __CT??_R0?AVout_of_range@std@@@8??0out_of_range@std@@QAE@ABV01@@Z12 100f9e58     libcpmt:xthrow.obj
 0002:00018ef4       __TI3?AVbad_array_new_length@std@@ 100f9ef4     LIBCMT:throw_bad_alloc.obj
 0002:00018f04       __CTA3?AVbad_array_new_length@std@@ 100f9f04     LIBCMT:throw_bad_alloc.obj
 0002:00018f14       __CT??_R0?AVbad_array_new_length@std@@@8??0bad_array_new_length@std@@QAE@ABV01@@Z12 100f9f14     LIBCMT:throw_bad_alloc.obj
 0002:00019034       __TI2?AVbad_exception@std@@ 100fa034     libvcruntime:frame.obj
 0002:00019044       __CTA2?AVbad_exception@std@@ 100fa044     libvcruntime:frame.obj
 0002:00019050       __CT??_R0?AVbad_exception@std@@@8??0bad_exception@std@@QAE@ABV01@@Z12 100fa050     libvcruntime:frame.obj
 0002:000193dc       __DELAY_IMPORT_DESCRIPTOR_node_exe 100fa3dc     node:node.exe
 0002:000193fc       __NULL_DELAY_IMPORT_DESCRIPTOR 100fa3fc     node:node.exe
 0002:0001952c       \177node_NULL_THUNK_DATA_DLN 100fa52c     node:node.exe
 0002:0001a774       \177node_NULL_THUNK_DATA_DLB 100fb774     node:node.exe
 0002:0001a8f0       __IMPORT_DESCRIPTOR_KERNEL32 100fb8f0     kernel32:KERNEL32.dll
 0002:0001a904       __NULL_IMPORT_DESCRIPTOR   100fb904     kernel32:KERNEL32.dll
 0003:00000000       ___scrt_native_dllmain_reason 100fd000     LIBCMT:utility.obj
 0003:00000004       ___security_cookie_complement 100fd004     LIBCMT:gs_cookie.obj
 0003:00000008       ___security_cookie         100fd008     LIBCMT:gs_cookie.obj
 0003:0000000c       ___isa_enabled             100fd00c     LIBCMT:_cpu_disp_.obj
 0003:00000020       __NLG_Destination          100fd020     libvcruntime:_exsup_.obj
 0003:00000030       ___abort_behavior          100fd030     libucrt:abort.obj
 0003:00000040       ___acrt_initial_locale_data 100fd040     libucrt:nlsdata.obj
 0003:000000f8       ___acrt_initial_locale_pointers 100fd0f8     libucrt:nlsdata.obj
 0003:00000100       ___acrt_wide_c_locale_string 100fd100     libucrt:nlsdata.obj
 0003:000002a0       __mbctype                  100fd2a0     libucrt:mbctype.obj
 0003:000003a8       __mbcasemap                100fd3a8     libucrt:mbctype.obj
 0003:000004a8       ___acrt_initial_multibyte_data 100fd4a8     libucrt:mbctype.obj
 0003:000006c8       ___acrt_current_multibyte_data 100fd6c8     libucrt:mbctype.obj
 0003:000006d0       __iob                      100fd6d0     libucrt:_file.obj
 0003:00000778       ___globallocalestatus      100fd778     libucrt:glstatus.obj
 0003:0000077c       ___acrt_lconv_static_decimal 100fd77c     libucrt:localeconv.obj
 0003:00000780       ___acrt_lconv_static_W_decimal 100fd780     libucrt:localeconv.obj
 0003:00000788       ___acrt_lconv_c            100fd788     libucrt:localeconv.obj
 0003:000007e0       ___dcrt_lowio_console_output_handle 100fd7e0     libucrt:initcon.obj
 0003:000007f0       __fltused                  100fd7f0     LIBCMT:fltused.obj
 0003:00001e10       ??_R0?AVbad_alloc@std@@@8  100fee10     libcpmt:xthrow.obj
 0003:00001e2c       ??_R0?AVexception@std@@@8  100fee2c     libcpmt:xthrow.obj
 0003:00001e48       ??_R0?AVlogic_error@std@@@8 100fee48     libcpmt:xthrow.obj
 0003:00001e68       ??_R0?AVlength_error@std@@@8 100fee68     libcpmt:xthrow.obj
 0003:00001e88       ??_R0?AVout_of_range@std@@@8 100fee88     libcpmt:xthrow.obj
 0003:00001ea8       ??_R0?AVtype_info@@@8      100feea8     LIBCMT:std_type_info_static.obj
 0003:00001ec0       ??_R0?AVbad_array_new_length@std@@@8 100feec0     LIBCMT:throw_bad_alloc.obj
 0003:00001ee8       ??_R0?AVbad_exception@std@@@8 100feee8     libvcruntime:frame.obj
 0003:00001f08       __imp_?Exit@Context@v8@@QAEXXZ 100fef08     node:node.exe
 0003:00001f0c       __imp_?Enter@Context@v8@@QAEXXZ 100fef0c     node:node.exe
 0003:00001f10       __imp_?New@Integer@v8@@SA?AV?$Local@VInteger@v8@@@2@PAVIsolate@2@H@Z 100fef10     node:node.exe
 0003:00001f14       __imp_?New@Signature@v8@@SA?AV?$Local@VSignature@v8@@@2@PAVIsolate@2@V?$Local@VFunctionTemplate@v8@@@2@@Z 100fef14     node:node.exe
 0003:00001f18       __imp_?ThrowException@Isolate@v8@@QAE?AV?$Local@VValue@v8@@@2@V32@@Z 100fef18     node:node.exe
 0003:00001f1c       __imp_?GetCurrentContext@Isolate@v8@@QAE?AV?$Local@VContext@v8@@@2@XZ 100fef1c     node:node.exe
 0003:00001f20       __imp_?GetCurrent@Isolate@v8@@SAPAV12@XZ 100fef20     node:node.exe
 0003:00001f24       __imp_?CreateHandle@HandleScope@v8@@KAPAPAVObject@internal@2@PAVIsolate@42@PAV342@@Z 100fef24     node:node.exe
 0003:00001f28       __imp_??1HandleScope@v8@@QAE@XZ 100fef28     node:node.exe
 0003:00001f2c       __imp_??0HandleScope@v8@@QAE@PAVIsolate@1@@Z 100fef2c     node:node.exe
 0003:00001f30       __imp_?Set@Template@v8@@QAEXV?$Local@VName@v8@@@2@V?$Local@VData@v8@@@2@W4PropertyAttribute@2@@Z 100fef30     node:node.exe
 0003:00001f34       __imp_?Error@Exception@v8@@SA?AV?$Local@VValue@v8@@@2@V?$Local@VString@v8@@@2@@Z 100fef34     node:node.exe
 0003:00001f38       __imp_?TypeError@Exception@v8@@SA?AV?$Local@VValue@v8@@@2@V?$Local@VString@v8@@@2@@Z 100fef38     node:node.exe
 0003:00001f3c       __imp_?RangeError@Exception@v8@@SA?AV?$Local@VValue@v8@@@2@V?$Local@VString@v8@@@2@@Z 100fef3c     node:node.exe
 0003:00001f40       __imp_?New@AccessorSignature@v8@@SA?AV?$Local@VAccessorSignature@v8@@@2@PAVIsolate@2@V?$Local@VFunctionTemplate@v8@@@2@@Z 100fef40     node:node.exe
 0003:00001f44       __imp_?New@Array@v8@@SA?AV?$Local@VArray@v8@@@2@PAVIsolate@2@H@Z 100fef44     node:node.exe
 0003:00001f48       __imp_?Length@Array@v8@@QBEIXZ 100fef48     node:node.exe
 0003:00001f4c       __imp_?SetClassName@FunctionTemplate@v8@@QAEXV?$Local@VString@v8@@@2@@Z 100fef4c     node:node.exe
 0003:00001f50       __imp_?PrototypeTemplate@FunctionTemplate@v8@@QAE?AV?$Local@VObjectTemplate@v8@@@2@XZ 100fef50     node:node.exe
 0003:00001f54       __imp_?InstanceTemplate@FunctionTemplate@v8@@QAE?AV?$Local@VObjectTemplate@v8@@@2@XZ 100fef54     node:node.exe
 0003:00001f58       __imp_?GetFunction@FunctionTemplate@v8@@QAE?AV?$MaybeLocal@VFunction@v8@@@2@V?$Local@VContext@v8@@@2@@Z 100fef58     node:node.exe
 0003:00001f5c       __imp_?New@FunctionTemplate@v8@@SA?AV?$Local@VFunctionTemplate@v8@@@2@PAVIsolate@2@P6AXABV?$FunctionCallbackInfo@VValue@v8@@@2@@ZV?$Local@VValue@v8@@@2@V?$Local@VSignature@v8@@@2@HW4ConstructorBehavior@2@@Z 100fef5c     node:node.exe
 0003:00001f60       __imp_?Value@Boolean@v8@@QBE_NXZ 100fef60     node:node.exe
 0003:00001f64       __imp_?ToLocalEmpty@V8@v8@@CAXXZ 100fef64     node:node.exe
 0003:00001f68       __imp_?FromJustIsNothing@V8@v8@@CAXXZ 100fef68     node:node.exe
 0003:00001f6c       __imp_?ClearWeak@V8@v8@@CAPAXPAPAVObject@internal@2@@Z 100fef6c     node:node.exe
 0003:00001f70       __imp_?MakeWeak@V8@v8@@CAXPAPAVObject@internal@2@PAXP6AXABV?$WeakCallbackInfo@X@2@@ZW4WeakCallbackType@2@@Z 100fef70     node:node.exe
 0003:00001f74       __imp_?DisposeGlobal@V8@v8@@CAXPAPAVObject@internal@2@@Z 100fef74     node:node.exe
 0003:00001f78       __imp_?GlobalizeReference@V8@v8@@CAPAPAVObject@internal@2@PAVIsolate@42@PAPAV342@@Z 100fef78     node:node.exe
 0003:00001f7c       __imp_?StrictEquals@Value@v8@@QBE_NV?$Local@VValue@v8@@@2@@Z 100fef7c     node:node.exe
 0003:00001f80       __imp_?IsInt32@Value@v8@@QBE_NXZ 100fef80     node:node.exe
 0003:00001f84       __imp_?IsNumber@Value@v8@@QBE_NXZ 100fef84     node:node.exe
 0003:00001f88       __imp_?IsBoolean@Value@v8@@QBE_NXZ 100fef88     node:node.exe
 0003:00001f8c       __imp_?IsObject@Value@v8@@QBE_NXZ 100fef8c     node:node.exe
 0003:00001f90       __imp_?IsArray@Value@v8@@QBE_NXZ 100fef90     node:node.exe
 0003:00001f94       __imp_?IsFunction@Value@v8@@QBE_NXZ 100fef94     node:node.exe
 0003:00001f98       __imp_??1Value@String@v8@@QAE@XZ 100fef98     node:node.exe
 0003:00001f9c       __imp_??0Value@String@v8@@QAE@PAVIsolate@2@V?$Local@VValue@v8@@@2@@Z 100fef9c     node:node.exe
 0003:00001fa0       __imp_??1Utf8Value@String@v8@@QAE@XZ 100fefa0     node:node.exe
 0003:00001fa4       __imp_??0Utf8Value@String@v8@@QAE@PAVIsolate@2@V?$Local@VValue@v8@@@2@@Z 100fefa4     node:node.exe
 0003:00001fa8       __imp_?NewFromOneByte@String@v8@@SA?AV?$MaybeLocal@VString@v8@@@2@PAVIsolate@2@PBEW4NewStringType@2@H@Z 100fefa8     node:node.exe
 0003:00001fac       __imp_?NewFromUtf8@String@v8@@SA?AV?$Local@VString@v8@@@2@PAVIsolate@2@PBDW4NewStringType@12@H@Z 100fefac     node:node.exe
 0003:00001fb0       __imp_?NewFromUtf8@String@v8@@SA?AV?$MaybeLocal@VString@v8@@@2@PAVIsolate@2@PBDW4NewStringType@2@H@Z 100fefb0     node:node.exe
 0003:00001fb4       __imp_?Value@Int32@v8@@QBEHXZ 100fefb4     node:node.exe
 0003:00001fb8       __imp_?New@Number@v8@@SA?AV?$Local@VNumber@v8@@@2@PAVIsolate@2@N@Z 100fefb8     node:node.exe
 0003:00001fbc       __imp_?Value@Number@v8@@QBENXZ 100fefbc     node:node.exe
 0003:00001fc0       __imp_?SlowGetAlignedPointerFromInternalField@Object@v8@@AAEPAXH@Z 100fefc0     node:node.exe
 0003:00001fc4       __imp_?New@Object@v8@@SA?AV?$Local@VObject@v8@@@2@PAVIsolate@2@@Z 100fefc4     node:node.exe
 0003:00001fc8       __imp_?CreationContext@Object@v8@@QAE?AV?$Local@VContext@v8@@@2@XZ 100fefc8     node:node.exe
 0003:00001fcc       __imp_?HasOwnProperty@Object@v8@@QAE?AV?$Maybe@_N@2@V?$Local@VContext@v8@@@2@V?$Local@VName@v8@@@2@@Z 100fefcc     node:node.exe
 0003:00001fd0       __imp_?SetAlignedPointerInInternalField@Object@v8@@QAEXHPAX@Z 100fefd0     node:node.exe
 0003:00001fd4       __imp_?GetPrototype@Object@v8@@QAE?AV?$Local@VValue@v8@@@2@XZ 100fefd4     node:node.exe
 0003:00001fd8       __imp_?Get@Object@v8@@QAE?AV?$MaybeLocal@VValue@v8@@@2@V?$Local@VContext@v8@@@2@V?$Local@VValue@v8@@@2@@Z 100fefd8     node:node.exe
 0003:00001fdc       __imp_?Get@Object@v8@@QAE?AV?$MaybeLocal@VValue@v8@@@2@V?$Local@VContext@v8@@@2@I@Z 100fefdc     node:node.exe
 0003:00001fe0       __imp_?DefineOwnProperty@Object@v8@@QAE?AV?$Maybe@_N@2@V?$Local@VContext@v8@@@2@V?$Local@VName@v8@@@2@V?$Local@VValue@v8@@@2@W4PropertyAttribute@2@@Z 100fefe0     node:node.exe
 0003:00001fe4       __imp_?Set@Object@v8@@QAE?AV?$Maybe@_N@2@V?$Local@VContext@v8@@@2@V?$Local@VValue@v8@@@2@1@Z 100fefe4     node:node.exe
 0003:00001fe8       __imp_?Set@Object@v8@@QAE?AV?$Maybe@_N@2@V?$Local@VContext@v8@@@2@IV?$Local@VValue@v8@@@2@@Z 100fefe8     node:node.exe
 0003:00001fec       __imp_?GetIterator@Symbol@v8@@SA?AV?$Local@VSymbol@v8@@@2@PAVIsolate@2@@Z 100fefec     node:node.exe
 0003:00001ff0       __imp_?Call@Function@v8@@QAE?AV?$MaybeLocal@VValue@v8@@@2@V?$Local@VContext@v8@@@2@V?$Local@VValue@v8@@@2@HQAV52@@Z 100feff0     node:node.exe
 0003:00001ff4       __imp_?NewInstance@Function@v8@@QBE?AV?$MaybeLocal@VObject@v8@@@2@V?$Local@VContext@v8@@@2@HQAV?$Local@VValue@v8@@@2@@Z 100feff4     node:node.exe
 0003:00001ff8       __imp_?SetInternalFieldCount@ObjectTemplate@v8@@QAEXH@Z 100feff8     node:node.exe
 0003:00001ffc       __imp_?SetAccessor@ObjectTemplate@v8@@QAEXV?$Local@VString@v8@@@2@P6AX0ABV?$PropertyCallbackInfo@VValue@v8@@@2@@ZP6AX0V?$Local@VValue@v8@@@2@ABV?$PropertyCallbackInfo@X@2@@Z3W4AccessControl@2@W4PropertyAttribute@2@V?$Local@VAccessorSignature@v8@@@2@@Z 100feffc     node:node.exe
 0003:00002000       __imp_?AtExit@node@@YAXP6AXPAX@Z0@Z 100ff000     node:node.exe
 0003:00002004       __imp__node_module_register 100ff004     node:node.exe
 0003:00002008       __imp_?HasInstance@Buffer@node@@YA_NV?$Local@VValue@v8@@@v8@@@Z 100ff008     node:node.exe
 0003:0000200c       __imp_?Data@Buffer@node@@YAPADV?$Local@VValue@v8@@@v8@@@Z 100ff00c     node:node.exe
 0003:00002010       __imp_?Copy@Buffer@node@@YA?AV?$MaybeLocal@VObject@v8@@@v8@@PAVIsolate@4@PBDI@Z 100ff010     node:node.exe
 0003:00002014       __imp_?Length@Buffer@node@@YAIV?$Local@VValue@v8@@@v8@@@Z 100ff014     node:node.exe
 0003:00002018       \177node_NULL_THUNK_DATA_DLA 100ff018     node:node.exe
 0003:00002020       __hmod__node_exe           100ff020     node:node.exe
 0003:00002024       ___scrt_current_native_startup_state 100ff024     LIBCMT:utility.obj
 0003:00002028       ___scrt_native_startup_lock 100ff028     LIBCMT:utility.obj
 0003:0000236c       ___isa_available           100ff36c     LIBCMT:_cpu_disp_.obj
 0003:00002370       ___favor                   100ff370     LIBCMT:_cpu_disp_.obj
 0003:00002374       ___scrt_debugger_hook_flag 100ff374     LIBCMT:utility_desktop.obj
 0003:00002378       ?__type_info_root_node@@3U__type_info_node@@A 100ff378     LIBCMT:tncleanup.obj
 0003:00002380       ?_OptionsStorage@?1??__local_stdio_printf_options@@9@4_KA 100ff380     LIBCMT:default_local_stdio_options.obj
 0003:00002388       ?_OptionsStorage@?1??__local_stdio_scanf_options@@9@4_KA 100ff388     LIBCMT:default_local_stdio_options.obj
 0003:00002390       ?g_OutOfMemoryExceptionCallback@@3P6GPAXXZA 100ff390     libvcruntime:frame.obj
 0003:0000240c       ___pPurecall               100ff40c     libvcruntime:purevirt_data.obj
 0003:00002410       ?pArgList@UnDecorator@@0PAVReplicator@@A 100ff410     libvcruntime:undname.obj
 0003:00002414       ?pZNameList@UnDecorator@@0PAVReplicator@@A 100ff414     libvcruntime:undname.obj
 0003:00002418       ?pTemplateArgList@UnDecorator@@0PAVReplicator@@A 100ff418     libvcruntime:undname.obj
 0003:0000241c       ?gName@UnDecorator@@0PBDB  100ff41c     libvcruntime:undname.obj
 0003:00002420       ?name@UnDecorator@@0PBDB   100ff420     libvcruntime:undname.obj
 0003:00002424       ?outputString@UnDecorator@@0PADA 100ff424     libvcruntime:undname.obj
 0003:00002428       ?maxStringLength@UnDecorator@@0HA 100ff428     libvcruntime:undname.obj
 0003:0000242c       ?disableFlags@UnDecorator@@0KA 100ff42c     libvcruntime:undname.obj
 0003:00002430       ?fExplicitTemplateParams@UnDecorator@@0_NA 100ff430     libvcruntime:undname.obj
 0003:00002431       ?fGetTemplateArgumentList@UnDecorator@@0_NA 100ff431     libvcruntime:undname.obj
 0003:00002434       ?m_pGetParameter@UnDecorator@@0P6APADJ@ZA 100ff434     libvcruntime:undname.obj
 0003:00002568       __environ_table            100ff568     libucrt:environment_initialization.obj
 0003:0000256c       __wenviron_table           100ff56c     libucrt:environment_initialization.obj
 0003:00002570       ___dcrt_initial_wide_environment 100ff570     libucrt:environment_initialization.obj
 0003:00002574       ___dcrt_initial_narrow_environment 100ff574     libucrt:environment_initialization.obj
 0003:00002578       ___acrt_atexit_table       100ff578     libucrt:onexit.obj
 0003:00002584       ___acrt_at_quick_exit_table 100ff584     libucrt:onexit.obj
 0003:00002590       ___acrt_locale_changed_data 100ff590     libucrt:wsetlocale.obj
 0003:00002594       ___acrt_current_locale_data 100ff594     libucrt:nlsdata.obj
 0003:00002598       ?_timezone@@3V?$dual_state_global@J@__crt_state_management@@A 100ff598     libucrt:timeset.obj
 0003:0000259c       ?_daylight@@3V?$dual_state_global@H@__crt_state_management@@A 100ff59c     libucrt:timeset.obj
 0003:000025a0       ?_dstbias@@3V?$dual_state_global@J@__crt_state_management@@A 100ff5a0     libucrt:timeset.obj
 0003:00002668       ___acrt_heap               100ff668     libucrt:heap_handle.obj
 0003:00002884       ___mblocalename            100ff884     libucrt:mbctype.obj
 0003:00002888       ___mbcodepage              100ff888     libucrt:mbctype.obj
 0003:0000288c       ___ismbcodepage            100ff88c     libucrt:mbctype.obj
 0003:00002890       ___mbulinfo                100ff890     libucrt:mbctype.obj
 0003:000028a4       ___argc                    100ff8a4     libucrt:argv_data.obj
 0003:000028a8       ___argv                    100ff8a8     libucrt:argv_data.obj
 0003:000028ac       ___wargv                   100ff8ac     libucrt:argv_data.obj
 0003:000028b0       __acmdln                   100ff8b0     libucrt:argv_data.obj
 0003:000028b4       __wcmdln                   100ff8b4     libucrt:argv_data.obj
 0003:000028b8       __pgmptr                   100ff8b8     libucrt:argv_data.obj
 0003:000028c0       ___pioinfo                 100ff8c0     libucrt:ioinit.obj
 0003:00002ac0       __nhandle                  100ffac0     libucrt:ioinit.obj
 0003:00002ad8       ___acrt_stdout_buffer      100ffad8     libucrt:_sftbuf.obj
 0003:00002adc       ___acrt_stderr_buffer      100ffadc     libucrt:_sftbuf.obj
 0003:00002ae4       __nstream                  100ffae4     libucrt:_file.obj
 0003:00002ae8       ___piob                    100ffae8     libucrt:_file.obj
 0003:00002aec       ___acrt_lconv_static_null  100ffaec     libucrt:localeconv.obj
 0003:00002af0       ___acrt_lconv_static_W_null 100ffaf0     libucrt:localeconv.obj
 0003:00002af8       ___fastflag                100ffaf8     libucrt:fp_flags.obj
 0003:00002b00       ?DloadKernel32@@3PAUHINSTANCE__@@A 100ffb00     DelayImp:delayhlp.obj
 0003:00002b04       ?DloadAcquireSRWLockExclusive@@3P6GXPAK@ZA 100ffb04     DelayImp:delayhlp.obj
 0003:00002b08       ?DloadReleaseSRWLockExclusive@@3P6GXPAK@ZA 100ffb08     DelayImp:delayhlp.obj
 0003:00002b0c       ?DloadSrwLock@@3KA         100ffb0c     DelayImp:delayhlp.obj
 0003:00002b10       ?DloadSectionLockCount@@3KA 100ffb10     DelayImp:delayhlp.obj
 0003:00002b14       ?DloadSectionOldProtection@@3KA 100ffb14     DelayImp:delayhlp.obj
 0003:00002b18       ?DloadSectionCommitPermanent@@3KA 100ffb18     DelayImp:delayhlp.obj
 0003:00002b20       ?next_id@Backup@@0_KA      100ffb20     better_sqlite3.obj
 0003:00002b28       ?caller_info@StatementIterator@@0PBV?$FunctionCallbackInfo@VValue@v8@@@v8@@B 100ffb28     better_sqlite3.obj
 0003:00002b2c       ?constructing_privileges@Statement@@0_NA 100ffb2c     better_sqlite3.obj
 0003:00002b2d       ?constructing_privileges@Backup@@0_NA 100ffb2d     better_sqlite3.obj
 0003:00002b30       ?controller@Integer@@0PAUConstructorController@1@A 100ffb30     better_sqlite3.obj
 0003:00002b34       _sqlite3_data_directory    100ffb34     sqlite3:sqlite3.obj
 0003:00002b38       ?next_id@Statement@@0_KA   100ffb38     better_sqlite3.obj
 0003:00002b40       _sqlite3_temp_directory    100ffb40     sqlite3:sqlite3.obj
 0003:00002bd8       ?remainingPages@CS@@2V?$Persistent@VString@v8@@V?$NonCopyablePersistentTraits@VString@v8@@@2@@v8@@A 100ffbd8     better_sqlite3.obj
 0003:00002bdc       ?totalPages@CS@@2V?$Persistent@VString@v8@@V?$NonCopyablePersistentTraits@VString@v8@@@2@@v8@@A 100ffbdc     better_sqlite3.obj
 0003:00002be0       ?memory@CS@@2V?$Persistent@VString@v8@@V?$NonCopyablePersistentTraits@VString@v8@@@2@@v8@@A 100ffbe0     better_sqlite3.obj
 0003:00002be4       ?reader@CS@@2V?$Persistent@VString@v8@@V?$NonCopyablePersistentTraits@VString@v8@@@2@@v8@@A 100ffbe4     better_sqlite3.obj
 0003:00002be8       ?isInstance@Integer@@0V?$Persistent@VFunction@v8@@V?$NonCopyablePersistentTraits@VFunction@v8@@@2@@v8@@A 100ffbe8     better_sqlite3.obj
 0003:00002bec       ?constructor@StatementIterator@@0V?$Persistent@VFunction@v8@@V?$NonCopyablePersistentTraits@VFunction@v8@@@2@@v8@@A 100ffbec     better_sqlite3.obj
 0003:00002bf0       ?name@CS@@2V?$Persistent@VString@v8@@V?$NonCopyablePersistentTraits@VString@v8@@@2@@v8@@A 100ffbf0     better_sqlite3.obj
 0003:00002bf4       ?readonly@CS@@2V?$Persistent@VString@v8@@V?$NonCopyablePersistentTraits@VString@v8@@@2@@v8@@A 100ffbf4     better_sqlite3.obj
 0003:00002bf8       ?type@CS@@2V?$Persistent@VString@v8@@V?$NonCopyablePersistentTraits@VString@v8@@@2@@v8@@A 100ffbf8     better_sqlite3.obj
 0003:00002bfc       ?value@CS@@2V?$Persistent@VString@v8@@V?$NonCopyablePersistentTraits@VString@v8@@@2@@v8@@A 100ffbfc     better_sqlite3.obj
 0003:00002c00       ?column@CS@@2V?$Persistent@VString@v8@@V?$NonCopyablePersistentTraits@VString@v8@@@2@@v8@@A 100ffc00     better_sqlite3.obj
 0003:00002c04       ?statement@CS@@2V?$Persistent@VString@v8@@V?$NonCopyablePersistentTraits@VString@v8@@@2@@v8@@A 100ffc04     better_sqlite3.obj
 0003:00002c08       ?lastInsertRowid@CS@@2V?$Persistent@VString@v8@@V?$NonCopyablePersistentTraits@VString@v8@@@2@@v8@@A 100ffc08     better_sqlite3.obj
 0003:00002c0c       ?code@CS@@2V?$Persistent@VString@v8@@V?$NonCopyablePersistentTraits@VString@v8@@@2@@v8@@A 100ffc0c     better_sqlite3.obj
 0003:00002c10       ?codes@CS@@0V?$unordered_map@HV?$Persistent@VString@v8@@V?$NonCopyablePersistentTraits@VString@v8@@@2@@v8@@U?$hash@H@std@@U?$equal_to@H@4@V?$allocator@U?$pair@$$CBHV?$Persistent@VString@v8@@V?$NonCopyablePersistentTraits@VString@v8@@@2@@v8@@@std@@@4@@std@@A 100ffc10     better_sqlite3.obj
 0003:00002c30       ?dbs@Database@@0V?$set@PAVDatabase@@VCompareDatabase@1@V?$allocator@PAVDatabase@@@std@@@std@@A 100ffc30     better_sqlite3.obj
 0003:00002c38       ?database@CS@@2V?$Persistent@VString@v8@@V?$NonCopyablePersistentTraits@VString@v8@@@2@@v8@@A 100ffc38     better_sqlite3.obj
 0003:00002c3c       ?next@CS@@2V?$Persistent@VString@v8@@V?$NonCopyablePersistentTraits@VString@v8@@@2@@v8@@A 100ffc3c     better_sqlite3.obj
 0003:00002c40       ?source@CS@@2V?$Persistent@VString@v8@@V?$NonCopyablePersistentTraits@VString@v8@@@2@@v8@@A 100ffc40     better_sqlite3.obj
 0003:00002c44       ?constructor@Statement@@0V?$Persistent@VFunction@v8@@V?$NonCopyablePersistentTraits@VFunction@v8@@@2@@v8@@A 100ffc44     better_sqlite3.obj
 0003:00002c48       ?constructor@Backup@@0V?$Persistent@VFunction@v8@@V?$NonCopyablePersistentTraits@VFunction@v8@@@2@@v8@@A 100ffc48     better_sqlite3.obj
 0003:00002c4c       ?constructor@Integer@@0V?$Persistent@VFunction@v8@@V?$NonCopyablePersistentTraits@VFunction@v8@@@2@@v8@@A 100ffc4c     better_sqlite3.obj
 0003:00002c50       ?length@CS@@2V?$Persistent@VString@v8@@V?$NonCopyablePersistentTraits@VString@v8@@@2@@v8@@A 100ffc50     better_sqlite3.obj
 0003:00002c54       ?done@CS@@2V?$Persistent@VString@v8@@V?$NonCopyablePersistentTraits@VString@v8@@@2@@v8@@A 100ffc54     better_sqlite3.obj
 0003:00002c58       ?SqliteError@Database@@0V?$Persistent@VFunction@v8@@V?$NonCopyablePersistentTraits@VFunction@v8@@@2@@v8@@A 100ffc58     better_sqlite3.obj
 0003:00002c5c       ?changes@CS@@2V?$Persistent@VString@v8@@V?$NonCopyablePersistentTraits@VString@v8@@@2@@v8@@A 100ffc5c     better_sqlite3.obj
 0003:00002c60       ?table@CS@@2V?$Persistent@VString@v8@@V?$NonCopyablePersistentTraits@VString@v8@@@2@@v8@@A 100ffc60     better_sqlite3.obj
 0003:00002f7c       ___dyn_tls_init_callback   100fff7c     <common>
 0003:00002f80       ___scrt_ucrt_dll_is_in_use 100fff80     <common>
 0003:00002f84       __pmatherr                 100fff84     <common>
 0003:00002f88       ___use_sse2_mathfcns       100fff88     <common>

 entry point at        0001:000d0a14

 Static symbols

 0000:ffef6000       .debug$S                   10000000     kernel32:KERNEL32.dll
 0000:ffef6000       .debug$S                   10000000     kernel32:KERNEL32.dll
 0000:ffef6000       .debug$S                   10000000     kernel32:KERNEL32.dll
 0000:ffef6000       .debug$S                   10000000     kernel32:KERNEL32.dll
 0000:ffef6000       .debug$S                   10000000     kernel32:KERNEL32.dll
 0000:ffef6000       .debug$S                   10000000     kernel32:KERNEL32.dll
 0000:ffef6000       .debug$S                   10000000     better_sqlite3.exp
 0000:ffef6000       .debug$S                   10000000     kernel32:KERNEL32.dll
 0000:ffef6000       .debug$S                   10000000     kernel32:KERNEL32.dll
 0000:ffef6000       .debug$S                   10000000     kernel32:KERNEL32.dll
 0000:ffef6000       .debug$S                   10000000     kernel32:KERNEL32.dll
 0000:ffef6000       .debug$S                   10000000     kernel32:KERNEL32.dll
 0000:ffef6000       .debug$S                   10000000     kernel32:KERNEL32.dll
 0000:ffef6000       .debug$S                   10000000     kernel32:KERNEL32.dll
 0000:ffef6000       .debug$S                   10000000     kernel32:KERNEL32.dll
 0000:ffef6000       .debug$S                   10000000     kernel32:KERNEL32.dll
 0000:ffef6000       .debug$S                   10000000     kernel32:KERNEL32.dll
 0000:ffef6000       .debug$S                   10000000     kernel32:KERNEL32.dll
 0000:ffef6000       .debug$S                   10000000     kernel32:KERNEL32.dll
 0000:ffef6000       .debug$S                   10000000     kernel32:KERNEL32.dll
 0000:ffef6000       .debug$S                   10000000     kernel32:KERNEL32.dll
 0000:ffef6000       .debug$S                   10000000     kernel32:KERNEL32.dll
 0000:ffef6000       .debug$S                   10000000     kernel32:KERNEL32.dll
 0000:ffef6000       .debug$S                   10000000     kernel32:KERNEL32.dll
 0000:ffef6000       .debug$S                   10000000     kernel32:KERNEL32.dll
 0000:ffef6000       .debug$S                   10000000     kernel32:KERNEL32.dll
 0000:ffef6000       .debug$S                   10000000     kernel32:KERNEL32.dll
 0000:ffef6000       .debug$S                   10000000     kernel32:KERNEL32.dll
 0000:ffef6000       .debug$S                   10000000     kernel32:KERNEL32.dll
 0000:ffef6000       .debug$S                   10000000     kernel32:KERNEL32.dll
 0000:ffef6000       .debug$S                   10000000     kernel32:KERNEL32.dll
 0000:ffef6000       .debug$S                   10000000     kernel32:KERNEL32.dll
 0000:ffef6000       .debug$S                   10000000     kernel32:KERNEL32.dll
 0000:ffef6000       .debug$S                   10000000     kernel32:KERNEL32.dll
 0000:ffef6000       .debug$S                   10000000     kernel32:KERNEL32.dll
 0000:ffef6000       .debug$S                   10000000     kernel32:KERNEL32.dll
 0000:ffef6000       .debug$S                   10000000     kernel32:KERNEL32.dll
 0000:ffef6000       .debug$S                   10000000     kernel32:KERNEL32.dll
 0000:ffef6000       .debug$S                   10000000     kernel32:KERNEL32.dll
 0000:ffef6000       .debug$S                   10000000     kernel32:KERNEL32.dll
 0000:ffef6000       .debug$S                   10000000     kernel32:KERNEL32.dll
 0000:ffef6000       .debug$S                   10000000     kernel32:KERNEL32.dll
 0000:ffef6000       .debug$S                   10000000     kernel32:KERNEL32.dll
 0000:ffef6000       .debug$S                   10000000     kernel32:KERNEL32.dll
 0000:ffef6000       .debug$S                   10000000     kernel32:KERNEL32.dll
 0000:ffef6000       .debug$S                   10000000     kernel32:KERNEL32.dll
 0000:ffef6000       .debug$S                   10000000     kernel32:KERNEL32.dll
 0000:ffef6000       .debug$S                   10000000     kernel32:KERNEL32.dll
 0000:ffef6000       .debug$S                   10000000     kernel32:KERNEL32.dll
 0000:ffef6000       .debug$S                   10000000     kernel32:KERNEL32.dll
 0000:ffef6000       .debug$S                   10000000     kernel32:KERNEL32.dll
 0000:ffef6000       .debug$S                   10000000     kernel32:KERNEL32.dll
 0000:ffef6000       .debug$S                   10000000     kernel32:KERNEL32.dll
 0000:ffef6000       .debug$S                   10000000     kernel32:KERNEL32.dll
 0000:ffef6000       .debug$S                   10000000     kernel32:KERNEL32.dll
 0000:ffef6000       .debug$S                   10000000     kernel32:KERNEL32.dll
 0000:ffef6000       .debug$S                   10000000     kernel32:KERNEL32.dll
 0000:ffef6000       .debug$S                   10000000     kernel32:KERNEL32.dll
 0000:ffef6000       .debug$S                   10000000     kernel32:KERNEL32.dll
 0000:ffef6000       .debug$S                   10000000     kernel32:KERNEL32.dll
 0000:ffef6000       .debug$S                   10000000     kernel32:KERNEL32.dll
 0000:ffef6000       .debug$S                   10000000     kernel32:KERNEL32.dll
 0000:ffef6000       .debug$S                   10000000     kernel32:KERNEL32.dll
 0000:ffef6000       .debug$S                   10000000     kernel32:KERNEL32.dll
 0000:ffef6000       .debug$S                   10000000     kernel32:KERNEL32.dll
 0000:ffef6000       .debug$S                   10000000     kernel32:KERNEL32.dll
 0000:ffef6000       .debug$S                   10000000     kernel32:KERNEL32.dll
 0000:ffef6000       .debug$S                   10000000     node:node.exe
 0000:ffef6000       .debug$S                   10000000     node:node.exe
 0000:ffef6000       .debug$S                   10000000     node:node.exe
 0000:ffef6000       .debug$S                   10000000     node:node.exe
 0000:ffef6000       .debug$S                   10000000     node:node.exe
 0000:ffef6000       .debug$S                   10000000     node:node.exe
 0000:ffef6000       .debug$S                   10000000     node:node.exe
 0000:ffef6000       .debug$S                   10000000     node:node.exe
 0000:ffef6000       .debug$S                   10000000     node:node.exe
 0000:ffef6000       .debug$S                   10000000     node:node.exe
 0000:ffef6000       .debug$S                   10000000     node:node.exe
 0000:ffef6000       .debug$S                   10000000     node:node.exe
 0000:ffef6000       .debug$S                   10000000     node:node.exe
 0000:ffef6000       .debug$S                   10000000     node:node.exe
 0000:ffef6000       .debug$S                   10000000     node:node.exe
 0000:ffef6000       .debug$S                   10000000     node:node.exe
 0000:ffef6000       .debug$S                   10000000     node:node.exe
 0000:ffef6000       .debug$S                   10000000     node:node.exe
 0000:ffef6000       .debug$S                   10000000     node:node.exe
 0000:ffef6000       .debug$S                   10000000     node:node.exe
 0000:ffef6000       .debug$S                   10000000     node:node.exe
 0000:ffef6000       .debug$S                   10000000     node:node.exe
 0000:ffef6000       .debug$S                   10000000     node:node.exe
 0000:ffef6000       .debug$S                   10000000     node:node.exe
 0000:ffef6000       .debug$S                   10000000     node:node.exe
 0000:ffef6000       .debug$S                   10000000     node:node.exe
 0000:ffef6000       .debug$S                   10000000     node:node.exe
 0000:ffef6000       .debug$S                   10000000     node:node.exe
 0000:ffef6000       .debug$S                   10000000     node:node.exe
 0000:ffef6000       .debug$S                   10000000     node:node.exe
 0000:ffef6000       .debug$S                   10000000     node:node.exe
 0000:ffef6000       .debug$S                   10000000     node:node.exe
 0000:ffef6000       .debug$S                   10000000     node:node.exe
 0000:ffef6000       .debug$S                   10000000     node:node.exe
 0000:ffef6000       .debug$S                   10000000     node:node.exe
 0000:ffef6000       .debug$S                   10000000     node:node.exe
 0000:ffef6000       .debug$S                   10000000     node:node.exe
 0000:ffef6000       .debug$S                   10000000     node:node.exe
 0000:ffef6000       .debug$S                   10000000     node:node.exe
 0000:ffef6000       .debug$S                   10000000     node:node.exe
 0000:ffef6000       .debug$S                   10000000     node:node.exe
 0000:ffef6000       .debug$S                   10000000     node:node.exe
 0000:ffef6000       .debug$S                   10000000     node:node.exe
 0000:ffef6000       .debug$S                   10000000     node:node.exe
 0000:ffef6000       .debug$S                   10000000     node:node.exe
 0000:ffef6000       .debug$S                   10000000     node:node.exe
 0000:ffef6000       .debug$S                   10000000     node:node.exe
 0000:ffef6000       .debug$S                   10000000     node:node.exe
 0000:ffef6000       .debug$S                   10000000     node:node.exe
 0000:ffef6000       .debug$S                   10000000     node:node.exe
 0000:ffef6000       .debug$S                   10000000     node:node.exe
 0000:ffef6000       .debug$S                   10000000     node:node.exe
 0000:ffef6000       .debug$S                   10000000     node:node.exe
 0000:ffef6000       .debug$S                   10000000     node:node.exe
 0000:ffef6000       .debug$S                   10000000     node:node.exe
 0000:ffef6000       .debug$S                   10000000     node:node.exe
 0000:ffef6000       .debug$S                   10000000     node:node.exe
 0000:ffef6000       .debug$S                   10000000     node:node.exe
 0000:ffef6000       .debug$S                   10000000     node:node.exe
 0000:ffef6000       .debug$S                   10000000     node:node.exe
 0000:ffef6000       .debug$S                   10000000     node:node.exe
 0000:ffef6000       .debug$S                   10000000     node:node.exe
 0000:ffef6000       .debug$S                   10000000     node:node.exe
 0000:ffef6000       .debug$S                   10000000     node:node.exe
 0000:ffef6000       .debug$S                   10000000     node:node.exe
 0000:ffef6000       .debug$S                   10000000     node:node.exe
 0000:ffef6000       .debug$S                   10000000     node:node.exe
 0000:ffef6000       .debug$S                   10000000     node:node.exe
 0000:ffef6000       .debug$S                   10000000     node:node.exe
 0000:ffef6000       .debug$S                   10000000     node:node.exe
 0000:ffef6000       .debug$S                   10000000     node:node.exe
 0000:ffef6000       .debug$S                   10000000     node:node.exe
 0000:ffef6000       .debug$S                   10000000     node:node.exe
 0000:ffef6000       .debug$S                   10000000     node:node.exe
 0000:ffef6000       .debug$S                   10000000     node:node.exe
 0000:ffef6000       .debug$S                   10000000     node:node.exe
 0000:ffef6000       .debug$S                   10000000     node:node.exe
 0000:ffef6000       .debug$S                   10000000     node:node.exe
 0000:ffef6000       .debug$S                   10000000     node:node.exe
 0000:ffef6000       .debug$S                   10000000     node:node.exe
 0000:ffef6000       .debug$S                   10000000     node:node.exe
 0000:ffef6000       .debug$S                   10000000     node:node.exe
 0000:ffef6000       .debug$S                   10000000     node:node.exe
 0000:ffef6000       .debug$S                   10000000     node:node.exe
 0000:ffef6000       .debug$S                   10000000     node:node.exe
 0000:ffef6000       .debug$S                   10000000     node:node.exe
 0000:ffef6000       .debug$S                   10000000     node:node.exe
 0000:ffef6000       .debug$S                   10000000     node:node.exe
 0000:ffef6000       .debug$S                   10000000     kernel32:KERNEL32.dll
 0000:ffef6000       .debug$S                   10000000     kernel32:KERNEL32.dll
 0000:ffef6000       .debug$S                   10000000     kernel32:KERNEL32.dll
 0000:ffef6000       .debug$S                   10000000     kernel32:KERNEL32.dll
 0000:ffef6000       .debug$S                   10000000     kernel32:KERNEL32.dll
 0000:ffef6000       .debug$S                   10000000     kernel32:KERNEL32.dll
 0000:ffef6000       .debug$S                   10000000     kernel32:KERNEL32.dll
 0000:ffef6000       .debug$S                   10000000     kernel32:KERNEL32.dll
 0000:ffef6000       .debug$S                   10000000     kernel32:KERNEL32.dll
 0000:ffef6000       .debug$S                   10000000     kernel32:KERNEL32.dll
 0000:ffef6000       .debug$S                   10000000     kernel32:KERNEL32.dll
 0000:ffef6000       .debug$S                   10000000     kernel32:KERNEL32.dll
 0000:ffef6000       .debug$S                   10000000     kernel32:KERNEL32.dll
 0000:ffef6000       .debug$S                   10000000     kernel32:KERNEL32.dll
 0000:ffef6000       .debug$S                   10000000     kernel32:KERNEL32.dll
 0000:ffef6000       .debug$S                   10000000     kernel32:KERNEL32.dll
 0000:ffef6000       .debug$S                   10000000     kernel32:KERNEL32.dll
 0000:ffef6000       .debug$S                   10000000     kernel32:KERNEL32.dll
 0000:ffef6000       .debug$S                   10000000     kernel32:KERNEL32.dll
 0000:ffef6000       .debug$S                   10000000     kernel32:KERNEL32.dll
 0000:ffef6000       .debug$S                   10000000     kernel32:KERNEL32.dll
 0000:ffef6000       .debug$S                   10000000     kernel32:KERNEL32.dll
 0000:ffef6000       .debug$S                   10000000     kernel32:KERNEL32.dll
 0000:ffef6000       .debug$S                   10000000     kernel32:KERNEL32.dll
 0000:ffef6000       .debug$S                   10000000     kernel32:KERNEL32.dll
 0000:ffef6000       .debug$S                   10000000     kernel32:KERNEL32.dll
 0000:ffef6000       .debug$S                   10000000     kernel32:KERNEL32.dll
 0000:ffef6000       .debug$S                   10000000     kernel32:KERNEL32.dll
 0000:ffef6000       .debug$S                   10000000     kernel32:KERNEL32.dll
 0000:ffef6000       .debug$S                   10000000     kernel32:KERNEL32.dll
 0000:ffef6000       .debug$S                   10000000     kernel32:KERNEL32.dll
 0000:ffef6000       .debug$S                   10000000     kernel32:KERNEL32.dll
 0000:ffef6000       .debug$S                   10000000     kernel32:KERNEL32.dll
 0000:ffef6000       .debug$S                   10000000     kernel32:KERNEL32.dll
 0000:ffef6000       .debug$S                   10000000     kernel32:KERNEL32.dll
 0000:ffef6000       .debug$S                   10000000     kernel32:KERNEL32.dll
 0000:ffef6000       .debug$S                   10000000     kernel32:KERNEL32.dll
 0000:ffef6000       .debug$S                   10000000     kernel32:KERNEL32.dll
 0000:ffef6000       .debug$S                   10000000     kernel32:KERNEL32.dll
 0000:ffef6000       .debug$S                   10000000     kernel32:KERNEL32.dll
 0000:ffef6000       .debug$S                   10000000     kernel32:KERNEL32.dll
 0000:ffef6000       .debug$S                   10000000     kernel32:KERNEL32.dll
 0000:ffef6000       .debug$S                   10000000     kernel32:KERNEL32.dll
 0000:ffef6000       .debug$S                   10000000     kernel32:KERNEL32.dll
 0000:ffef6000       .debug$S                   10000000     kernel32:KERNEL32.dll
 0000:ffef6000       .debug$S                   10000000     kernel32:KERNEL32.dll
 0000:ffef6000       .debug$S                   10000000     kernel32:KERNEL32.dll
 0000:ffef6000       .debug$S                   10000000     kernel32:KERNEL32.dll
 0000:ffef6000       .debug$S                   10000000     kernel32:KERNEL32.dll
 0000:ffef6000       .debug$S                   10000000     kernel32:KERNEL32.dll
 0000:ffef6000       .debug$S                   10000000     kernel32:KERNEL32.dll
 0000:ffef6000       .debug$S                   10000000     kernel32:KERNEL32.dll
 0000:ffef6000       .debug$S                   10000000     kernel32:KERNEL32.dll
 0000:ffef6000       .debug$S                   10000000     kernel32:KERNEL32.dll
 0000:ffef6000       .debug$S                   10000000     kernel32:KERNEL32.dll
 0000:ffef6000       .debug$S                   10000000     kernel32:KERNEL32.dll
 0000:ffef6000       .debug$S                   10000000     kernel32:KERNEL32.dll
 0000:ffef6000       .debug$S                   10000000     kernel32:KERNEL32.dll
 0000:ffef6000       .debug$S                   10000000     kernel32:KERNEL32.dll
 0000:ffef6000       .debug$S                   10000000     kernel32:KERNEL32.dll
 0000:ffef6000       .debug$S                   10000000     kernel32:KERNEL32.dll
 0000:ffef6000       .debug$S                   10000000     kernel32:KERNEL32.dll
 0000:ffef6000       .debug$S                   10000000     kernel32:KERNEL32.dll
 0000:ffef6000       .debug$S                   10000000     kernel32:KERNEL32.dll
 0000:ffef6000       .debug$S                   10000000     kernel32:KERNEL32.dll
 0001:00000000       ??__E?database@CS@@2V?$Persistent@VString@v8@@V?$NonCopyablePersistentTraits@VString@v8@@@2@@v8@@A@@YAXXZ 10001000 f   better_sqlite3.obj
 0001:00000020       ??__E?reader@CS@@2V?$Persistent@VString@v8@@V?$NonCopyablePersistentTraits@VString@v8@@@2@@v8@@A@@YAXXZ 10001020 f   better_sqlite3.obj
 0001:00000040       ??__E?source@CS@@2V?$Persistent@VString@v8@@V?$NonCopyablePersistentTraits@VString@v8@@@2@@v8@@A@@YAXXZ 10001040 f   better_sqlite3.obj
 0001:00000060       ??__E?memory@CS@@2V?$Persistent@VString@v8@@V?$NonCopyablePersistentTraits@VString@v8@@@2@@v8@@A@@YAXXZ 10001060 f   better_sqlite3.obj
 0001:00000080       ??__E?readonly@CS@@2V?$Persistent@VString@v8@@V?$NonCopyablePersistentTraits@VString@v8@@@2@@v8@@A@@YAXXZ 10001080 f   better_sqlite3.obj
 0001:000000a0       ??__E?name@CS@@2V?$Persistent@VString@v8@@V?$NonCopyablePersistentTraits@VString@v8@@@2@@v8@@A@@YAXXZ 100010a0 f   better_sqlite3.obj
 0001:000000c0       ??__E?next@CS@@2V?$Persistent@VString@v8@@V?$NonCopyablePersistentTraits@VString@v8@@@2@@v8@@A@@YAXXZ 100010c0 f   better_sqlite3.obj
 0001:000000e0       ??__E?length@CS@@2V?$Persistent@VString@v8@@V?$NonCopyablePersistentTraits@VString@v8@@@2@@v8@@A@@YAXXZ 100010e0 f   better_sqlite3.obj
 0001:00000100       ??__E?done@CS@@2V?$Persistent@VString@v8@@V?$NonCopyablePersistentTraits@VString@v8@@@2@@v8@@A@@YAXXZ 10001100 f   better_sqlite3.obj
 0001:00000120       ??__E?value@CS@@2V?$Persistent@VString@v8@@V?$NonCopyablePersistentTraits@VString@v8@@@2@@v8@@A@@YAXXZ 10001120 f   better_sqlite3.obj
 0001:00000140       ??__E?changes@CS@@2V?$Persistent@VString@v8@@V?$NonCopyablePersistentTraits@VString@v8@@@2@@v8@@A@@YAXXZ 10001140 f   better_sqlite3.obj
 0001:00000160       ??__E?lastInsertRowid@CS@@2V?$Persistent@VString@v8@@V?$NonCopyablePersistentTraits@VString@v8@@@2@@v8@@A@@YAXXZ 10001160 f   better_sqlite3.obj
 0001:00000180       ??__E?code@CS@@2V?$Persistent@VString@v8@@V?$NonCopyablePersistentTraits@VString@v8@@@2@@v8@@A@@YAXXZ 10001180 f   better_sqlite3.obj
 0001:000001a0       ??__E?statement@CS@@2V?$Persistent@VString@v8@@V?$NonCopyablePersistentTraits@VString@v8@@@2@@v8@@A@@YAXXZ 100011a0 f   better_sqlite3.obj
 0001:000001c0       ??__E?column@CS@@2V?$Persistent@VString@v8@@V?$NonCopyablePersistentTraits@VString@v8@@@2@@v8@@A@@YAXXZ 100011c0 f   better_sqlite3.obj
 0001:000001e0       ??__E?table@CS@@2V?$Persistent@VString@v8@@V?$NonCopyablePersistentTraits@VString@v8@@@2@@v8@@A@@YAXXZ 100011e0 f   better_sqlite3.obj
 0001:00000200       ??__E?type@CS@@2V?$Persistent@VString@v8@@V?$NonCopyablePersistentTraits@VString@v8@@@2@@v8@@A@@YAXXZ 10001200 f   better_sqlite3.obj
 0001:00000220       ??__E?totalPages@CS@@2V?$Persistent@VString@v8@@V?$NonCopyablePersistentTraits@VString@v8@@@2@@v8@@A@@YAXXZ 10001220 f   better_sqlite3.obj
 0001:00000240       ??__E?remainingPages@CS@@2V?$Persistent@VString@v8@@V?$NonCopyablePersistentTraits@VString@v8@@@2@@v8@@A@@YAXXZ 10001240 f   better_sqlite3.obj
 0001:00000260       ??__E?codes@CS@@0V?$unordered_map@HV?$Persistent@VString@v8@@V?$NonCopyablePersistentTraits@VString@v8@@@2@@v8@@U?$hash@H@std@@U?$equal_to@H@4@V?$allocator@U?$pair@$$CBHV?$Persistent@VString@v8@@V?$NonCopyablePersistentTraits@VString@v8@@@2@@v8@@@std@@@4@@std@@A@@YAXXZ 10001260 f   better_sqlite3.obj
 0001:00000290       ??__E?constructor@Integer@@0V?$Persistent@VFunction@v8@@V?$NonCopyablePersistentTraits@VFunction@v8@@@2@@v8@@A@@YAXXZ 10001290 f   better_sqlite3.obj
 0001:000002b0       ??__E?isInstance@Integer@@0V?$Persistent@VFunction@v8@@V?$NonCopyablePersistentTraits@VFunction@v8@@@2@@v8@@A@@YAXXZ 100012b0 f   better_sqlite3.obj
 0001:000002d0       ??__E?dbs@Database@@0V?$set@PAVDatabase@@VCompareDatabase@1@V?$allocator@PAVDatabase@@@std@@@std@@A@@YAXXZ 100012d0 f   better_sqlite3.obj
 0001:00000330       ??__E?SqliteError@Database@@0V?$Persistent@VFunction@v8@@V?$NonCopyablePersistentTraits@VFunction@v8@@@2@@v8@@A@@YAXXZ 10001330 f   better_sqlite3.obj
 0001:00000350       ??__E?constructor@Statement@@0V?$Persistent@VFunction@v8@@V?$NonCopyablePersistentTraits@VFunction@v8@@@2@@v8@@A@@YAXXZ 10001350 f   better_sqlite3.obj
 0001:00000370       ??__E?constructor@StatementIterator@@0V?$Persistent@VFunction@v8@@V?$NonCopyablePersistentTraits@VFunction@v8@@@2@@v8@@A@@YAXXZ 10001370 f   better_sqlite3.obj
 0001:00000390       ??__E?constructor@Backup@@0V?$Persistent@VFunction@v8@@V?$NonCopyablePersistentTraits@VFunction@v8@@@2@@v8@@A@@YAXXZ 10001390 f   better_sqlite3.obj
 0001:000003b0       _fts5IterSetOutputs_Noop   100013b0 f i sqlite3:sqlite3.obj
 0001:000003b0       _noopStepFunc              100013b0 f i sqlite3:sqlite3.obj
 0001:000003b0       _winShmBarrier             100013b0 f i sqlite3:sqlite3.obj
 0001:000003b0       _sqlite3NoopDestructor     100013b0 f i sqlite3:sqlite3.obj
 0001:000003b0       _noopValueFunc             100013b0 f i sqlite3:sqlite3.obj
 0001:000003b0       _sqlite3MemShutdown        100013b0 f i sqlite3:sqlite3.obj
 0001:00000c20       __register_better_sqlite3  10001c20 f   better_sqlite3.obj
 0001:0000a384       $LN58                      1000b384     better_sqlite3.obj
 0001:0000a498       $LN60                      1000b498     better_sqlite3.obj
 0001:0000af40       $LN30                      1000bf40     better_sqlite3.obj
 0001:0000af54       $LN26                      1000bf54     better_sqlite3.obj
 0001:0000e090       ?load_exe_hook@@YGP6GHXZIPAUDelayLoadInfo@@@Z 1000f090 f   win_delay_load_hook.obj
 0001:0000e0c0       _sqlite3StatusUp           1000f0c0 f   sqlite3:sqlite3.obj
 0001:0000e1a0       _sqlite3LookasideUsed      1000f1a0 f   sqlite3:sqlite3.obj
 0001:0000e630       $LN132                     1000f630     sqlite3:sqlite3.obj
 0001:0000e670       _getDigits                 1000f670 f   sqlite3:sqlite3.obj
 0001:0000e720       _parseTimezone             1000f720 f   sqlite3:sqlite3.obj
 0001:0000e800       _parseHhMmSs               1000f800 f   sqlite3:sqlite3.obj
 0001:0000e930       _computeJD                 1000f930 f   sqlite3:sqlite3.obj
 0001:0000ea80       _parseYyyyMmDd             1000fa80 f   sqlite3:sqlite3.obj
 0001:0000eb40       _setDateTimeToCurrent      1000fb40 f   sqlite3:sqlite3.obj
 0001:0000eb70       _parseDateOrTime           1000fb70 f   sqlite3:sqlite3.obj
 0001:0000ec60       _computeYMD                1000fc60 f   sqlite3:sqlite3.obj
 0001:0000eda0       _computeHMS                1000fda0 f   sqlite3:sqlite3.obj
 0001:0000ee50       _localtimeOffset           1000fe50 f   sqlite3:sqlite3.obj
 0001:0000f030       _parseModifier             10010030 f   sqlite3:sqlite3.obj
 0001:0000f684       $LN131                     10010684     sqlite3:sqlite3.obj
 0001:0000f69c       $LN98                      1001069c     sqlite3:sqlite3.obj
 0001:0000f6f0       _isDate                    100106f0 f   sqlite3:sqlite3.obj
 0001:0000f8f0       _juliandayFunc             100108f0 f   sqlite3:sqlite3.obj
 0001:0000f950       _datetimeFunc              10010950 f   sqlite3:sqlite3.obj
 0001:0000fa10       _timeFunc                  10010a10 f   sqlite3:sqlite3.obj
 0001:0000fac0       _dateFunc                  10010ac0 f   sqlite3:sqlite3.obj
 0001:0000fb70       _strftimeFunc              10010b70 f   sqlite3:sqlite3.obj
 0001:00010030       $LN89                      10011030     sqlite3:sqlite3.obj
 0001:00010048       $LN75                      10011048     sqlite3:sqlite3.obj
 0001:0001009c       $LN90                      1001109c     sqlite3:sqlite3.obj
 0001:000100cc       $LN78                      100110cc     sqlite3:sqlite3.obj
 0001:00010100       _ctimeFunc                 10011100 f   sqlite3:sqlite3.obj
 0001:00010120       _cdateFunc                 10011120 f   sqlite3:sqlite3.obj
 0001:00010140       _ctimestampFunc            10011140 f   sqlite3:sqlite3.obj
 0001:00010160       _sqlite3OsClose            10011160 f   sqlite3:sqlite3.obj
 0001:00010180       _sqlite3OsRead             10011180 f   sqlite3:sqlite3.obj
 0001:000101a0       _sqlite3OsWrite            100111a0 f   sqlite3:sqlite3.obj
 0001:000101c0       _sqlite3OsTruncate         100111c0 f   sqlite3:sqlite3.obj
 0001:000101e0       _sqlite3OsSync             100111e0 f   sqlite3:sqlite3.obj
 0001:00010200       _sqlite3OsFileControl      10011200 f   sqlite3:sqlite3.obj
 0001:00010220       _sqlite3OsOpen             10011220 f   sqlite3:sqlite3.obj
 0001:00010240       _sqlite3OsCurrentTimeInt64 10011240 f   sqlite3:sqlite3.obj
 0001:00010290       _sqlite3OsOpenMalloc       10011290 f   sqlite3:sqlite3.obj
 0001:00010320       _sqlite3OsCloseFree        10011320 f   sqlite3:sqlite3.obj
 0001:00010370       _sqlite3OsInit             10011370 f   sqlite3:sqlite3.obj
 0001:00010440       _vfsUnlink                 10011440 f   sqlite3:sqlite3.obj
 0001:000104e0       _sqlite3MemMalloc          100114e0 f   sqlite3:sqlite3.obj
 0001:00010510       _sqlite3MemFree            10011510 f   sqlite3:sqlite3.obj
 0001:00010520       _sqlite3MemSize            10011520 f   sqlite3:sqlite3.obj
 0001:00010530       _sqlite3MemRealloc         10011530 f   sqlite3:sqlite3.obj
 0001:00010570       _sqlite3MemRoundup         10011570 f   sqlite3:sqlite3.obj
 0001:00010580       _winNolockLock             10011580 f   sqlite3:sqlite3.obj
 0001:00010580       _sqlite3MemInit            10011580 f   sqlite3:sqlite3.obj
 0001:00010580       _fts3CommitMethod          10011580 f   sqlite3:sqlite3.obj
 0001:00010580       _sqlite3ExprWalkNoop       10011580 f   sqlite3:sqlite3.obj
 0001:00010580       _winNolockCheckReservedLock 10011580 f   sqlite3:sqlite3.obj
 0001:00010580       _winNolockUnlock           10011580 f   sqlite3:sqlite3.obj
 0001:00010580       _memjrnlSync               10011580 f   sqlite3:sqlite3.obj
 0001:00010580       _fts3ReleaseMethod         10011580 f   sqlite3:sqlite3.obj
 0001:00010580       _fts5CommitMethod          10011580 f   sqlite3:sqlite3.obj
 0001:00010580       _sqlite3SelectWalkNoop     10011580 f   sqlite3:sqlite3.obj
 0001:00010630       _sqlite3MallocInit         10011630 f   sqlite3:sqlite3.obj
 0001:00010710       _mallocWithAlarm           10011710 f   sqlite3:sqlite3.obj
 0001:000107d0       _sqlite3Malloc             100117d0 f   sqlite3:sqlite3.obj
 0001:000108b0       _sqlite3MallocSize         100118b0 f   sqlite3:sqlite3.obj
 0001:000108c0       _sqlite3DbMallocSize       100118c0 f   sqlite3:sqlite3.obj
 0001:00010910       _fts5AsciiDelete           10011910 f   sqlite3:sqlite3.obj
 0001:00010950       _measureAllocationSize     10011950 f   sqlite3:sqlite3.obj
 0001:00010990       _sqlite3DbFreeNN           10011990 f   sqlite3:sqlite3.obj
 0001:00010a00       _sqlite3Realloc            10011a00 f   sqlite3:sqlite3.obj
 0001:00010bb0       _sqlite3MallocZero         10011bb0 f   sqlite3:sqlite3.obj
 0001:00010c20       _sqlite3DbMallocZero       10011c20 f   sqlite3:sqlite3.obj
 0001:00010c50       _dbMallocRawFinish         10011c50 f   sqlite3:sqlite3.obj
 0001:00010ce0       _sqlite3DbMallocRaw        10011ce0 f   sqlite3:sqlite3.obj
 0001:00010d40       _sqlite3DbMallocRawNN      10011d40 f   sqlite3:sqlite3.obj
 0001:00010dd0       _sqlite3DbRealloc          10011dd0 f   sqlite3:sqlite3.obj
 0001:00010e30       _dbReallocFinish           10011e30 f   sqlite3:sqlite3.obj
 0001:00010ec0       _sqlite3DbReallocOrFree    10011ec0 f   sqlite3:sqlite3.obj
 0001:00010f30       _sqlite3DbStrDup           10011f30 f   sqlite3:sqlite3.obj
 0001:00010f80       _sqlite3DbStrNDup          10011f80 f   sqlite3:sqlite3.obj
 0001:00010fd0       _sqlite3DbSpanDup          10011fd0 f   sqlite3:sqlite3.obj
 0001:00011050       _sqlite3SetString          10012050 f   sqlite3:sqlite3.obj
 0001:000110c0       _sqlite3OomFault           100120c0 f   sqlite3:sqlite3.obj
 0001:00011100       _apiOomError               10012100 f   sqlite3:sqlite3.obj
 0001:00011140       _setStrAccumError          10012140 f   sqlite3:sqlite3.obj
 0001:000111a0       _printfTempBuf             100121a0 f   sqlite3:sqlite3.obj
 0001:000129dc       $LN744                     100139dc     sqlite3:sqlite3.obj
 0001:00012a0c       $LN626                     10013a0c     sqlite3:sqlite3.obj
 0001:00012a5c       $LN745                     10013a5c     sqlite3:sqlite3.obj
 0001:00012aa0       _sqlite3StrAccumEnlarge    10013aa0 f   sqlite3:sqlite3.obj
 0001:00012c40       _enlargeAndAppend          10013c40 f   sqlite3:sqlite3.obj
 0001:00012d00       _strAccumFinishRealloc     10013d00 f   sqlite3:sqlite3.obj
 0001:00012f10       _sqlite3VMPrintf           10013f10 f   sqlite3:sqlite3.obj
 0001:00012ff0       _sqlite3MPrintf            10013ff0 f   sqlite3:sqlite3.obj
 0001:000131e0       _renderLogMsg              100141e0 f   sqlite3:sqlite3.obj
 0001:00013460       _sqlite3Utf8Read           10014460 f   sqlite3:sqlite3.obj
 0001:000134d0       _sqlite3VdbeMemTranslate   100144d0 f   sqlite3:sqlite3.obj
 0001:000139a0       _sqlite3VdbeMemHandleBom   100149a0 f   sqlite3:sqlite3.obj
 0001:00013a60       _sqlite3Utf8CharLen        10014a60 f   sqlite3:sqlite3.obj
 0001:00013aa0       _sqlite3Utf16to8           10014aa0 f   sqlite3:sqlite3.obj
 0001:00013b20       _sqlite3Utf16ByteLen       10014b20 f   sqlite3:sqlite3.obj
 0001:00013b60       _sqlite3IsNaN              10014b60 f   sqlite3:sqlite3.obj
 0001:00013ba0       _sqlite3Strlen30           10014ba0 f   sqlite3:sqlite3.obj
 0001:00013bd0       _sqlite3ColumnType         10014bd0 f   sqlite3:sqlite3.obj
 0001:00013c00       _sqlite3ErrorFinish        10014c00 f   sqlite3:sqlite3.obj
 0001:00013c70       _sqlite3Error              10014c70 f   sqlite3:sqlite3.obj
 0001:00013c90       _sqlite3ErrorWithMsg       10014c90 f   sqlite3:sqlite3.obj
 0001:00013d70       _sqlite3ErrorMsg           10014d70 f   sqlite3:sqlite3.obj
 0001:00013dd0       _sqlite3Dequote            10014dd0 f   sqlite3:sqlite3.obj
 0001:00013e30       _sqlite3DequoteExpr        10014e30 f   sqlite3:sqlite3.obj
 0001:00013e50       _sqlite3TokenInit          10014e50 f   sqlite3:sqlite3.obj
 0001:00013eb0       _sqlite3StrICmp            10014eb0 f   sqlite3:sqlite3.obj
 0001:00013f70       _sqlite3AtoF               10014f70 f   sqlite3:sqlite3.obj
 0001:00014490       _sqlite3Atoi64             10015490 f   sqlite3:sqlite3.obj
 0001:00014700       _sqlite3DecOrHexToI64      10015700 f   sqlite3:sqlite3.obj
 0001:00014810       _sqlite3GetInt32           10015810 f   sqlite3:sqlite3.obj
 0001:000149a0       _sqlite3Atoi               100159a0 f   sqlite3:sqlite3.obj
 0001:000149c0       _putVarint64               100159c0 f   sqlite3:sqlite3.obj
 0001:000149c0       _fts5PutVarint64           100159c0 f   sqlite3:sqlite3.obj
 0001:00014ad0       _sqlite3Fts5PutVarint      10015ad0 f   sqlite3:sqlite3.obj
 0001:00014ad0       _sqlite3PutVarint          10015ad0 f   sqlite3:sqlite3.obj
 0001:00014b30       _sqlite3GetVarint          10015b30 f   sqlite3:sqlite3.obj
 0001:00014cd0       _sqlite3GetVarint32        10015cd0 f   sqlite3:sqlite3.obj
 0001:00014d50       _sqlite3VarintLen          10015d50 f   sqlite3:sqlite3.obj
 0001:00014d90       _sqlite3HexToBlob          10015d90 f   sqlite3:sqlite3.obj
 0001:00014e20       _sqlite3SafetyCheckOk      10015e20 f   sqlite3:sqlite3.obj
 0001:00014e90       _sqlite3AddInt64           10015e90 f   sqlite3:sqlite3.obj
 0001:00014f30       _sqlite3MulInt64           10015f30 f   sqlite3:sqlite3.obj
 0001:00015050       _sqlite3AbsInt32           10016050 f   sqlite3:sqlite3.obj
 0001:00015070       _sqlite3LogEstAdd          10016070 f   sqlite3:sqlite3.obj
 0001:000150d0       _sqlite3LogEst             100160d0 f   sqlite3:sqlite3.obj
 0001:00015170       _sqlite3VListAdd           10016170 f   sqlite3:sqlite3.obj
 0001:00015270       _sqlite3VListNumToName     10016270 f   sqlite3:sqlite3.obj
 0001:000152a0       _sqlite3VListNameToNum     100162a0 f   sqlite3:sqlite3.obj
 0001:00015310       _sqlite3HashClear          10016310 f   sqlite3:sqlite3.obj
 0001:000153c0       _strHash                   100163c0 f   sqlite3:sqlite3.obj
 0001:000153f0       _insertElement             100163f0 f   sqlite3:sqlite3.obj
 0001:00015450       _rehash                    10016450 f   sqlite3:sqlite3.obj
 0001:000155f0       _findElementWithHash       100165f0 f   sqlite3:sqlite3.obj
 0001:00015680       _removeElementGivenHash    10016680 f   sqlite3:sqlite3.obj
 0001:00015700       _sqlite3HashInsert         10016700 f   sqlite3:sqlite3.obj
 0001:00015810       _winSetSystemCall          10016810 f   sqlite3:sqlite3.obj
 0001:00015910       _winGetSystemCall          10016910 f   sqlite3:sqlite3.obj
 0001:00015980       _winNextSystemCall         10016980 f   sqlite3:sqlite3.obj
 0001:00015a10       _winUtf8ToUnicode          10016a10 f   sqlite3:sqlite3.obj
 0001:00015a80       _winUnicodeToUtf8          10016a80 f   sqlite3:sqlite3.obj
 0001:00015b00       _winGetLastErrorMsg        10016b00 f   sqlite3:sqlite3.obj
 0001:00015bd0       _winLogErrorAtLine         10016bd0 f   sqlite3:sqlite3.obj
 0001:00015c90       _winLockFile               10016c90 f   sqlite3:sqlite3.obj
 0001:00015cd0       _winUnlockFile             10016cd0 f   sqlite3:sqlite3.obj
 0001:00015d10       _winSeekFile               10016d10 f   sqlite3:sqlite3.obj
 0001:00015d80       _winClose                  10016d80 f   sqlite3:sqlite3.obj
 0001:00015e00       _winRead                   10016e00 f   sqlite3:sqlite3.obj
 0001:00015fb0       _winWrite                  10016fb0 f   sqlite3:sqlite3.obj
 0001:00016140       _winTruncate               10017140 f   sqlite3:sqlite3.obj
 0001:00016280       _winSync                   10017280 f   sqlite3:sqlite3.obj
 0001:00016300       _winFileSize               10017300 f   sqlite3:sqlite3.obj
 0001:00016370       _winGetReadLock            10017370 f   sqlite3:sqlite3.obj
 0001:000163d0       _winUnlockReadLock         100173d0 f   sqlite3:sqlite3.obj
 0001:00016450       _winLock                   10017450 f   sqlite3:sqlite3.obj
 0001:00016650       _winCheckReservedLock      10017650 f   sqlite3:sqlite3.obj
 0001:00016700       _winUnlock                 10017700 f   sqlite3:sqlite3.obj
 0001:00016850       _winModeBit                10017850 f   sqlite3:sqlite3.obj
 0001:00016880       _winFileControl            10017880 f   sqlite3:sqlite3.obj
 0001:00016aa4       $LN36                      10017aa4     sqlite3:sqlite3.obj
 0001:00016ad4       $LN28                      10017ad4     sqlite3:sqlite3.obj
 0001:00016b00       _winSectorSize             10017b00 f   sqlite3:sqlite3.obj
 0001:00016b10       _winDeviceCharacteristics  10017b10 f   sqlite3:sqlite3.obj
 0001:00016b30       _winShmPurge               10017b30 f   sqlite3:sqlite3.obj
 0001:00016c40       _winLockSharedMemory       10017c40 f   sqlite3:sqlite3.obj
 0001:00016dc0       _winOpenSharedMemory       10017dc0 f   sqlite3:sqlite3.obj
 0001:00017080       _winShmUnmap               10018080 f   sqlite3:sqlite3.obj
 0001:00017100       _winShmLock                10018100 f   sqlite3:sqlite3.obj
 0001:00017300       _winShmMap                 10018300 f   sqlite3:sqlite3.obj
 0001:00017540       _winUnmapfile              10018540 f   sqlite3:sqlite3.obj
 0001:000175e0       _winMapfile                100185e0 f   sqlite3:sqlite3.obj
 0001:00017740       _winFetch                  10018740 f   sqlite3:sqlite3.obj
 0001:000177b0       _winUnfetch                100187b0 f   sqlite3:sqlite3.obj
 0001:000177d0       _winMakeEndInDirSep        100187d0 f   sqlite3:sqlite3.obj
 0001:00017820       _winGetTempname            10018820 f   sqlite3:sqlite3.obj
 0001:00017ac0       _winIsDir                  10018ac0 f   sqlite3:sqlite3.obj
 0001:00017b80       _winOpen                   10018b80 f   sqlite3:sqlite3.obj
 0001:00017f30       _winDelete                 10018f30 f   sqlite3:sqlite3.obj
 0001:00018070       _winAccess                 10019070 f   sqlite3:sqlite3.obj
 0001:00018260       _winFullPathname           10019260 f   sqlite3:sqlite3.obj
 0001:000183e0       _winDlOpen                 100193e0 f   sqlite3:sqlite3.obj
 0001:00018450       _winDlError                10019450 f   sqlite3:sqlite3.obj
 0001:00018470       _winDlSym                  10019470 f   sqlite3:sqlite3.obj
 0001:00018480       _winDlClose                10019480 f   sqlite3:sqlite3.obj
 0001:00018490       _winRandomness             10019490 f   sqlite3:sqlite3.obj
 0001:00018650       _winSleep                  10019650 f   sqlite3:sqlite3.obj
 0001:00018680       _winCurrentTimeInt64       10019680 f   sqlite3:sqlite3.obj
 0001:000186d0       _winCurrentTime            100196d0 f   sqlite3:sqlite3.obj
 0001:00018720       _winGetLastError           10019720 f   sqlite3:sqlite3.obj
 0001:00018860       _sqlite3BitvecCreate       10019860 f   sqlite3:sqlite3.obj
 0001:000188b0       _sqlite3BitvecTestNotNull  100198b0 f   sqlite3:sqlite3.obj
 0001:00018940       _sqlite3BitvecTest         10019940 f   sqlite3:sqlite3.obj
 0001:00018960       _sqlite3BitvecSet          10019960 f   sqlite3:sqlite3.obj
 0001:00018b30       _sqlite3BitvecClear        10019b30 f   sqlite3:sqlite3.obj
 0001:00018c00       _sqlite3BitvecDestroy      10019c00 f   sqlite3:sqlite3.obj
 0001:00018c60       _sqlite3BitvecBuiltinTest  10019c60 f   sqlite3:sqlite3.obj
 0001:00018ef0       _sqlite3PcacheOpen         10019ef0 f   sqlite3:sqlite3.obj
 0001:00018f50       _sqlite3PcacheSetPageSize  10019f50 f   sqlite3:sqlite3.obj
 0001:00018fe0       _sqlite3PcacheFetchStress  10019fe0 f   sqlite3:sqlite3.obj
 0001:00019080       _pcacheFetchFinishWithInit 1001a080 f   sqlite3:sqlite3.obj
 0001:000190d0       _sqlite3PcacheFetchFinish  1001a0d0 f   sqlite3:sqlite3.obj
 0001:00019100       _sqlite3PcacheRelease      1001a100 f   sqlite3:sqlite3.obj
 0001:000191a0       _sqlite3PcacheDrop         1001a1a0 f   sqlite3:sqlite3.obj
 0001:00019200       _sqlite3PcacheMakeDirty    1001a200 f   sqlite3:sqlite3.obj
 0001:00019260       _sqlite3PcacheMakeClean    1001a260 f   sqlite3:sqlite3.obj
 0001:000192d0       _sqlite3PcacheCleanAll     1001a2d0 f   sqlite3:sqlite3.obj
 0001:00019360       _sqlite3PcacheMove         1001a360 f   sqlite3:sqlite3.obj
 0001:00019400       _sqlite3PcacheTruncate     1001a400 f   sqlite3:sqlite3.obj
 0001:00019470       _pcacheSortDirtyList       1001a470 f   sqlite3:sqlite3.obj
 0001:000195d0       _sqlite3PcacheDirtyList    1001a5d0 f   sqlite3:sqlite3.obj
 0001:000195f0       _sqlite3PCachePercentDirty 1001a5f0 f   sqlite3:sqlite3.obj
 0001:00019660       _sqlite3PCacheBufferSetup  1001a660 f   sqlite3:sqlite3.obj
 0001:00019700       _pcache1InitBulk           1001a700 f   sqlite3:sqlite3.obj
 0001:000197d0       _pcache1Alloc              1001a7d0 f   sqlite3:sqlite3.obj
 0001:000198c0       _pcache1Free               1001a8c0 f   sqlite3:sqlite3.obj
 0001:00019950       _pcache1AllocPage          1001a950 f   sqlite3:sqlite3.obj
 0001:000199f0       _pcache1FreePage           1001a9f0 f   sqlite3:sqlite3.obj
 0001:00019a20       _pcache1UnderMemoryPressure 1001aa20 f   sqlite3:sqlite3.obj
 0001:00019a50       _pcache1ResizeHash         1001aa50 f   sqlite3:sqlite3.obj
 0001:00019b30       _pcache1EnforceMaxPage     1001ab30 f   sqlite3:sqlite3.obj
 0001:00019c20       _pcache1TruncateUnsafe     1001ac20 f   sqlite3:sqlite3.obj
 0001:00019cf0       _pcache1Init               1001acf0 f   sqlite3:sqlite3.obj
 0001:00019d50       _pcache1Shutdown           1001ad50 f   sqlite3:sqlite3.obj
 0001:00019d70       _pcache1Create             1001ad70 f   sqlite3:sqlite3.obj
 0001:00019e40       _pcache1Cachesize          1001ae40 f   sqlite3:sqlite3.obj
 0001:00019e80       _pcache1Shrink             1001ae80 f   sqlite3:sqlite3.obj
 0001:00019eb0       _pcache1Pagecount          1001aeb0 f   sqlite3:sqlite3.obj
 0001:00019ec0       _pcache1FetchStage2        1001aec0 f   sqlite3:sqlite3.obj
 0001:0001a010       _pcache1FetchNoMutex       1001b010 f   sqlite3:sqlite3.obj
 0001:0001a080       _pcache1Fetch              1001b080 f   sqlite3:sqlite3.obj
 0001:0001a0a0       _pcache1Unpin              1001b0a0 f   sqlite3:sqlite3.obj
 0001:0001a130       _pcache1Rekey              1001b130 f   sqlite3:sqlite3.obj
 0001:0001a190       _pcache1Truncate           1001b190 f   sqlite3:sqlite3.obj
 0001:0001a1c0       _pcache1Destroy            1001b1c0 f   sqlite3:sqlite3.obj
 0001:0001a2a0       _sqlite3PCacheSetDefault   1001b2a0 f   sqlite3:sqlite3.obj
 0001:0001a2c0       _sqlite3RowSetInit         1001b2c0 f   sqlite3:sqlite3.obj
 0001:0001a350       _sqlite3RowSetClear        1001b350 f   sqlite3:sqlite3.obj
 0001:0001a3a0       _sqlite3RowSetDelete       1001b3a0 f   sqlite3:sqlite3.obj
 0001:0001a3c0       _sqlite3RowSetInsert       1001b3c0 f   sqlite3:sqlite3.obj
 0001:0001a450       _rowSetEntryMerge          1001b450 f   sqlite3:sqlite3.obj
 0001:0001a4c0       _rowSetEntrySort           1001b4c0 f   sqlite3:sqlite3.obj
 0001:0001a580       _rowSetTreeToList          1001b580 f   sqlite3:sqlite3.obj
 0001:0001a5c0       _rowSetNDeepTree           1001b5c0 f   sqlite3:sqlite3.obj
 0001:0001a620       _rowSetListToTree          1001b620 f   sqlite3:sqlite3.obj
 0001:0001a6d0       _sqlite3RowSetTest         1001b6d0 f   sqlite3:sqlite3.obj
 0001:0001a830       _setGetterMethod           1001b830 f   sqlite3:sqlite3.obj
 0001:0001a860       _subjRequiresPage          1001b860 f   sqlite3:sqlite3.obj
 0001:0001a8b0       _read32bits                1001b8b0 f   sqlite3:sqlite3.obj
 0001:0001a8f0       _pagerUnlockDb             1001b8f0 f   sqlite3:sqlite3.obj
 0001:0001a930       _pagerLockDb               1001b930 f   sqlite3:sqlite3.obj
 0001:0001a980       _readMasterJournal         1001b980 f   sqlite3:sqlite3.obj
 0001:0001ab10       _journalHdrOffset          1001bb10 f   sqlite3:sqlite3.obj
 0001:0001ab70       _zeroJournalHdr            1001bb70 f   sqlite3:sqlite3.obj
 0001:0001ac40       _writeJournalHdr           1001bc40 f   sqlite3:sqlite3.obj
 0001:0001adb0       _readJournalHdr            1001bdb0 f   sqlite3:sqlite3.obj
 0001:0001b020       _writeMasterJournal        1001c020 f   sqlite3:sqlite3.obj
 0001:0001b220       _pager_reset               1001c220 f   sqlite3:sqlite3.obj
 0001:0001b250       _releaseAllSavepoints      1001c250 f   sqlite3:sqlite3.obj
 0001:0001b370       _addToSavepointBitvecs     1001c370 f   sqlite3:sqlite3.obj
 0001:0001b3c0       _pager_unlock              1001c3c0 f   sqlite3:sqlite3.obj
 0001:0001b510       _pager_error               1001c510 f   sqlite3:sqlite3.obj
 0001:0001b530       _pager_end_transaction     1001c530 f   sqlite3:sqlite3.obj
 0001:0001b7c0       _pagerUnlockAndRollback    1001c7c0 f   sqlite3:sqlite3.obj
 0001:0001b820       _pager_cksum               1001c820 f   sqlite3:sqlite3.obj
 0001:0001b890       _pager_playback_one_page   1001c890 f   sqlite3:sqlite3.obj
 0001:0001bb40       _pager_delmaster           1001cb40 f   sqlite3:sqlite3.obj
 0001:0001bdc0       _pager_truncate            1001cdc0 f   sqlite3:sqlite3.obj
 0001:0001bed0       _setSectorSize             1001ced0 f   sqlite3:sqlite3.obj
 0001:0001bf40       _pager_playback            1001cf40 f   sqlite3:sqlite3.obj
 0001:0001c290       _readDbPage                1001d290 f   sqlite3:sqlite3.obj
 0001:0001c3a0       _pagerUndoCallback         1001d3a0 f   sqlite3:sqlite3.obj
 0001:0001c450       _pagerRollbackWal          1001d450 f   sqlite3:sqlite3.obj
 0001:0001c4c0       _pagerWalFrames            1001d4c0 f   sqlite3:sqlite3.obj
 0001:0001c580       _pagerBeginReadTransaction 1001d580 f   sqlite3:sqlite3.obj
 0001:0001c620       _pagerPagecount            1001d620 f   sqlite3:sqlite3.obj
 0001:0001c6b0       _pagerPlaybackSavepoint    1001d6b0 f   sqlite3:sqlite3.obj
 0001:0001c9f0       _pagerFixMaplimit          1001d9f0 f   sqlite3:sqlite3.obj
 0001:0001ca70       _sqlite3PagerSetFlags      1001da70 f   sqlite3:sqlite3.obj
 0001:0001cb00       _sqlite3PagerSetPagesize   1001db00 f   sqlite3:sqlite3.obj
 0001:0001cc20       _sqlite3PagerReadFileheader 1001dc20 f   sqlite3:sqlite3.obj
 0001:0001cc70       _pager_wait_on_lock        1001dc70 f   sqlite3:sqlite3.obj
 0001:0001cce0       _pagerSyncHotJournal       1001dce0 f   sqlite3:sqlite3.obj
 0001:0001cd20       _pagerAcquireMapPage       1001dd20 f   sqlite3:sqlite3.obj
 0001:0001cde0       _pagerReleaseMapPage       1001dde0 f   sqlite3:sqlite3.obj
 0001:0001ce30       _pagerFreeMapHdrs          1001de30 f   sqlite3:sqlite3.obj
 0001:0001ce80       _databaseIsUnmoved         1001de80 f   sqlite3:sqlite3.obj
 0001:0001ced0       _sqlite3PagerClose         1001ded0 f   sqlite3:sqlite3.obj
 0001:0001d060       _syncJournal               1001e060 f   sqlite3:sqlite3.obj
 0001:0001d250       _pager_write_pagelist      1001e250 f   sqlite3:sqlite3.obj
 0001:0001d3b0       _subjournalPage            1001e3b0 f   sqlite3:sqlite3.obj
 0001:0001d490       _pagerStress               1001e490 f   sqlite3:sqlite3.obj
 0001:0001d560       _sqlite3PagerFlush         1001e560 f   sqlite3:sqlite3.obj
 0001:0001d5d0       _sqlite3PagerOpen          1001e5d0 f   sqlite3:sqlite3.obj
 0001:0001db40       _hasHotJournal             1001eb40 f   sqlite3:sqlite3.obj
 0001:0001dce0       _sqlite3PagerSharedLock    1001ece0 f   sqlite3:sqlite3.obj
 0001:0001dfb0       _getPageNormal             1001efb0 f   sqlite3:sqlite3.obj
 0001:0001e1a0       _getPageMMap               1001f1a0 f   sqlite3:sqlite3.obj
 0001:0001e360       _getPageError              1001f360 f   sqlite3:sqlite3.obj
 0001:0001e380       _sqlite3PagerLookup        1001f380 f   sqlite3:sqlite3.obj
 0001:0001e3d0       _sqlite3PagerUnref         1001f3d0 f   sqlite3:sqlite3.obj
 0001:0001e3f0       _pager_open_journal        1001f3f0 f   sqlite3:sqlite3.obj
 0001:0001e530       _sqlite3PagerBegin         1001f530 f   sqlite3:sqlite3.obj
 0001:0001e620       _pagerAddPageToRollbackJournal 1001f620 f   sqlite3:sqlite3.obj
 0001:0001e710       _pager_write               1001f710 f   sqlite3:sqlite3.obj
 0001:0001e7b0       _pagerWriteLargeSector     1001f7b0 f   sqlite3:sqlite3.obj
 0001:0001e9a0       _sqlite3PagerWrite         1001f9a0 f   sqlite3:sqlite3.obj
 0001:0001ea00       _pager_incr_changecounter  1001fa00 f   sqlite3:sqlite3.obj
 0001:0001ea90       _sqlite3PagerSync          1001fa90 f   sqlite3:sqlite3.obj
 0001:0001eae0       _sqlite3PagerCommitPhaseOne 1001fae0 f   sqlite3:sqlite3.obj
 0001:0001ec90       _sqlite3PagerCommitPhaseTwo 1001fc90 f   sqlite3:sqlite3.obj
 0001:0001ecf0       _sqlite3PagerRollback      1001fcf0 f   sqlite3:sqlite3.obj
 0001:0001edd0       _pagerOpenSavepoint        1001fdd0 f   sqlite3:sqlite3.obj
 0001:0001ef20       _sqlite3PagerSavepoint     1001ff20 f   sqlite3:sqlite3.obj
 0001:0001f000       _sqlite3PagerMovepage      10020000 f   sqlite3:sqlite3.obj
 0001:0001f1d0       _sqlite3PagerLockingMode   100201d0 f   sqlite3:sqlite3.obj
 0001:0001f200       _sqlite3PagerSetJournalMode 10020200 f   sqlite3:sqlite3.obj
 0001:0001f310       _sqlite3PagerJournalSizeLimit 10020310 f   sqlite3:sqlite3.obj
 0001:0001f350       _pagerExclusiveLock        10020350 f   sqlite3:sqlite3.obj
 0001:0001f3c0       _sqlite3PagerOpenWal       100203c0 f   sqlite3:sqlite3.obj
 0001:0001f480       _sqlite3PagerCloseWal      10020480 f   sqlite3:sqlite3.obj
 0001:0001f5b0       _walIndexPageRealloc       100205b0 f   sqlite3:sqlite3.obj
 0001:0001f6d0       _walChecksumBytes          100206d0 f   sqlite3:sqlite3.obj
 0001:0001f780       _walIndexWriteHdr          10020780 f   sqlite3:sqlite3.obj
 0001:0001f810       _walDecodeFrame            10020810 f   sqlite3:sqlite3.obj
 0001:0001f8b0       _walUnlockShared           100208b0 f   sqlite3:sqlite3.obj
 0001:0001f8d0       _walHashGet                100208d0 f   sqlite3:sqlite3.obj
 0001:0001f940       _walCleanupHash            10020940 f   sqlite3:sqlite3.obj
 0001:0001f9c0       _walIndexAppend            100209c0 f   sqlite3:sqlite3.obj
 0001:0001fae0       _walIndexRecover           10020ae0 f   sqlite3:sqlite3.obj
 0001:0001fe90       _walIndexClose             10020e90 f   sqlite3:sqlite3.obj
 0001:0001ff20       _sqlite3WalOpen            10020f20 f   sqlite3:sqlite3.obj
 0001:00020040       _walIteratorNext           10021040 f   sqlite3:sqlite3.obj
 0001:000200e0       _walMerge                  100210e0 f   sqlite3:sqlite3.obj
 0001:000201c0       _walMergesort              100211c0 f   sqlite3:sqlite3.obj
 0001:00020300       _walIteratorInit           10021300 f   sqlite3:sqlite3.obj
 0001:00020580       _walBusyLock               10021580 f   sqlite3:sqlite3.obj
 0001:000205d0       _walRestartHdr             100215d0 f   sqlite3:sqlite3.obj
 0001:00020630       _walCheckpoint             10021630 f   sqlite3:sqlite3.obj
 0001:00020a20       _walLimitSize              10021a20 f   sqlite3:sqlite3.obj
 0001:00020aa0       _sqlite3WalClose           10021aa0 f   sqlite3:sqlite3.obj
 0001:00020c10       _walIndexTryHdr            10021c10 f   sqlite3:sqlite3.obj
 0001:00020d90       _walIndexReadHdr           10021d90 f   sqlite3:sqlite3.obj
 0001:00020f40       _walBeginShmUnreliable     10021f40 f   sqlite3:sqlite3.obj
 0001:00021250       _walTryBeginRead           10022250 f   sqlite3:sqlite3.obj
 0001:00021560       _sqlite3WalEndReadTransaction 10022560 f   sqlite3:sqlite3.obj
 0001:000215d0       _sqlite3WalFindFrame       100225d0 f   sqlite3:sqlite3.obj
 0001:00021740       _sqlite3WalBeginWriteTransaction 10022740 f   sqlite3:sqlite3.obj
 0001:000217d0       _sqlite3WalUndo            100227d0 f   sqlite3:sqlite3.obj
 0001:00021890       _walRestartLog             10022890 f   sqlite3:sqlite3.obj
 0001:00021950       _walWriteToLog             10022950 f   sqlite3:sqlite3.obj
 0001:00021a10       _walWriteOneFrame          10022a10 f   sqlite3:sqlite3.obj
 0001:00021af0       _walRewriteChecksums       10022af0 f   sqlite3:sqlite3.obj
 0001:00021d00       _sqlite3WalFrames          10022d00 f   sqlite3:sqlite3.obj
 0001:00022220       _sqlite3WalCheckpoint      10023220 f   sqlite3:sqlite3.obj
 0001:000223e0       _sqlite3BtreeEnterAll      100233e0 f   sqlite3:sqlite3.obj
 0001:00022420       _querySharedCacheTableLock 10023420 f   sqlite3:sqlite3.obj
 0001:00022480       _setSharedCacheTableLock   10023480 f   sqlite3:sqlite3.obj
 0001:00022500       _clearAllSharedCacheTableLocks 10023500 f   sqlite3:sqlite3.obj
 0001:00022590       _btreeSetHasContent        10023590 f   sqlite3:sqlite3.obj
 0001:00022620       _btreeReleaseAllCursorPages 10023620 f   sqlite3:sqlite3.obj
 0001:00022680       _saveCursorKey             10023680 f   sqlite3:sqlite3.obj
 0001:00022760       _saveAllCursors            10023760 f   sqlite3:sqlite3.obj
 0001:000227a0       _saveCursorsOnList         100237a0 f   sqlite3:sqlite3.obj
 0001:00022810       _sqlite3BtreeClearCursor   10023810 f   sqlite3:sqlite3.obj
 0001:00022870       _btreeMoveto               10023870 f   sqlite3:sqlite3.obj
 0001:00022960       _btreeRestoreCursorPosition 10023960 f   sqlite3:sqlite3.obj
 0001:00022a20       _ptrmapPageno              10023a20 f   sqlite3:sqlite3.obj
 0001:00022a70       _ptrmapPut                 10023a70 f   sqlite3:sqlite3.obj
 0001:00022b80       _ptrmapGet                 10023b80 f   sqlite3:sqlite3.obj
 0001:00022c90       _btreeParseCellAdjustSizeForOverflow 10023c90 f   sqlite3:sqlite3.obj
 0001:00022ce0       _btreeParseCellPtrNoPayload 10023ce0 f   sqlite3:sqlite3.obj
 0001:00022d10       _btreeParseCellPtr         10023d10 f   sqlite3:sqlite3.obj
 0001:00022e30       _btreeParseCellPtrIndex    10023e30 f   sqlite3:sqlite3.obj
 0001:00022ec0       _cellSizePtr               10023ec0 f   sqlite3:sqlite3.obj
 0001:00022f70       _cellSizePtrNoPayload      10023f70 f   sqlite3:sqlite3.obj
 0001:00022f90       _ptrmapPutOvflPtr          10023f90 f   sqlite3:sqlite3.obj
 0001:00023020       _defragmentPage            10024020 f   sqlite3:sqlite3.obj
 0001:00023460       _pageFindSlot              10024460 f   sqlite3:sqlite3.obj
 0001:00023580       _allocateSpace             10024580 f   sqlite3:sqlite3.obj
 0001:000236b0       _freeSpace                 100246b0 f   sqlite3:sqlite3.obj
 0001:000239d0       _decodeFlags               100249d0 f   sqlite3:sqlite3.obj
 0001:00023ab0       _btreeComputeFreeSpace     10024ab0 f   sqlite3:sqlite3.obj
 0001:00023bf0       _btreeCellSizeCheck        10024bf0 f   sqlite3:sqlite3.obj
 0001:00023ce0       _btreeInitPage             10024ce0 f   sqlite3:sqlite3.obj
 0001:00023df0       _zeroPage                  10024df0 f   sqlite3:sqlite3.obj
 0001:00023ec0       _btreeGetPage              10024ec0 f   sqlite3:sqlite3.obj
 0001:00023f20       _btreePageLookup           10024f20 f   sqlite3:sqlite3.obj
 0001:00023fa0       _getAndInitPage            10024fa0 f   sqlite3:sqlite3.obj
 0001:000240d0       _releasePageNotNull        100250d0 f   sqlite3:sqlite3.obj
 0001:000240f0       _releasePage               100250f0 f   sqlite3:sqlite3.obj
 0001:00024110       _releasePageOne            10025110 f   sqlite3:sqlite3.obj
 0001:00024140       _btreeGetUnusedPage        10025140 f   sqlite3:sqlite3.obj
 0001:00024200       _pageReinit                10025200 f   sqlite3:sqlite3.obj
 0001:00024220       _btreeInvokeBusyHandler    10025220 f   sqlite3:sqlite3.obj
 0001:00024280       _sqlite3BtreeOpen          10025280 f   sqlite3:sqlite3.obj
 0001:000248a0       _removeFromSharingList     100258a0 f   sqlite3:sqlite3.obj
 0001:000248f0       _freeTempSpace             100258f0 f   sqlite3:sqlite3.obj
 0001:00024910       _sqlite3BtreeClose         10025910 f   sqlite3:sqlite3.obj
 0001:00024a10       _sqlite3BtreeSetCacheSize  10025a10 f   sqlite3:sqlite3.obj
 0001:00024a60       _sqlite3BtreeSetSpillSize  10025a60 f   sqlite3:sqlite3.obj
 0001:00024ad0       _sqlite3BtreeSetPageSize   10025ad0 f   sqlite3:sqlite3.obj
 0001:00024b60       _sqlite3BtreeSecureDelete  10025b60 f   sqlite3:sqlite3.obj
 0001:00024ba0       _sqlite3BtreeSetAutoVacuum 10025ba0 f   sqlite3:sqlite3.obj
 0001:00024be0       _sqlite3BtreeGetAutoVacuum 10025be0 f   sqlite3:sqlite3.obj
 0001:00024c00       _lockBtree                 10025c00 f   sqlite3:sqlite3.obj
 0001:00024f60       _newDatabase               10025f60 f   sqlite3:sqlite3.obj
 0001:00025000       _sqlite3BtreeBeginTrans    10026000 f   sqlite3:sqlite3.obj
 0001:000252d0       _setChildPtrmaps           100262d0 f   sqlite3:sqlite3.obj
 0001:000253a0       _modifyPagePointer         100263a0 f   sqlite3:sqlite3.obj
 0001:00025540       _relocatePage              10026540 f   sqlite3:sqlite3.obj
 0001:00025690       _incrVacuumStep            10026690 f   sqlite3:sqlite3.obj
 0001:000258b0       _finalDbSize               100268b0 f   sqlite3:sqlite3.obj
 0001:00025980       _sqlite3BtreeIncrVacuum    10026980 f   sqlite3:sqlite3.obj
 0001:00025a50       _autoVacuumCommit          10026a50 f   sqlite3:sqlite3.obj
 0001:00025bf0       _btreeEndTransaction       10026bf0 f   sqlite3:sqlite3.obj
 0001:00025ca0       _sqlite3BtreeCommit        10026ca0 f   sqlite3:sqlite3.obj
 0001:00025d40       _sqlite3BtreeTripAllCursors 10026d40 f   sqlite3:sqlite3.obj
 0001:00025e30       _sqlite3BtreeRollback      10026e30 f   sqlite3:sqlite3.obj
 0001:00025f30       _sqlite3BtreeSavepoint     10026f30 f   sqlite3:sqlite3.obj
 0001:00025fb0       _btreeCursor               10026fb0 f   sqlite3:sqlite3.obj
 0001:00026060       _sqlite3BtreeCloseCursor   10027060 f   sqlite3:sqlite3.obj
 0001:00026150       _getCellInfo               10027150 f   sqlite3:sqlite3.obj
 0001:00026190       _getOverflowPage           10027190 f   sqlite3:sqlite3.obj
 0001:00026310       _accessPayload             10027310 f   sqlite3:sqlite3.obj
 0001:00026670       _accessPayloadChecked      10027670 f   sqlite3:sqlite3.obj
 0001:000266b0       _sqlite3BtreePayloadChecked 100276b0 f   sqlite3:sqlite3.obj
 0001:000266f0       _moveToChild               100276f0 f   sqlite3:sqlite3.obj
 0001:00026780       _moveToRoot                10027780 f   sqlite3:sqlite3.obj
 0001:000268e0       _moveToLeftmost            100278e0 f   sqlite3:sqlite3.obj
 0001:000269a0       _moveToRightmost           100279a0 f   sqlite3:sqlite3.obj
 0001:00026a60       _sqlite3BtreeMovetoUnpacked 10027a60 f   sqlite3:sqlite3.obj
 0001:00027040       _sqlite3BtreeRowCountEst   10028040 f   sqlite3:sqlite3.obj
 0001:000270b0       _btreeNext                 100280b0 f   sqlite3:sqlite3.obj
 0001:000271d0       _sqlite3BtreeNext          100281d0 f   sqlite3:sqlite3.obj
 0001:00027220       _btreePrevious             10028220 f   sqlite3:sqlite3.obj
 0001:00027330       _sqlite3BtreePrevious      10028330 f   sqlite3:sqlite3.obj
 0001:00027370       _allocateBtreePage         10028370 f   sqlite3:sqlite3.obj
 0001:000279d0       _freePage2                 100289d0 f   sqlite3:sqlite3.obj
 0001:00027c70       _freePage                  10028c70 f   sqlite3:sqlite3.obj
 0001:00027c90       _clearCell                 10028c90 f   sqlite3:sqlite3.obj
 0001:00027e20       _fillInCell                10028e20 f   sqlite3:sqlite3.obj
 0001:00028160       _dropCell                  10029160 f   sqlite3:sqlite3.obj
 0001:00028280       _insertCell                10029280 f   sqlite3:sqlite3.obj
 0001:000283e0       _populateCellCache         100293e0 f   sqlite3:sqlite3.obj
 0001:00028440       _computeCellSize           10029440 f   sqlite3:sqlite3.obj
 0001:00028470       _rebuildPage               10029470 f   sqlite3:sqlite3.obj
 0001:00028650       _pageInsertArray           10029650 f   sqlite3:sqlite3.obj
 0001:000287c0       _pageFreeArray             100297c0 f   sqlite3:sqlite3.obj
 0001:000288a0       _editPage                  100298a0 f   sqlite3:sqlite3.obj
 0001:00028b20       _balance_quick             10029b20 f   sqlite3:sqlite3.obj
 0001:00028d50       _copyNodeContent           10029d50 f   sqlite3:sqlite3.obj
 0001:00028e20       _balance_nonroot           10029e20 f   sqlite3:sqlite3.obj
 0001:0002a180       _balance_deeper            1002b180 f   sqlite3:sqlite3.obj
 0001:0002a300       _balance                   1002b300 f   sqlite3:sqlite3.obj
 0001:0002a510       _btreeOverwriteContent     1002b510 f   sqlite3:sqlite3.obj
 0001:0002a680       _btreeOverwriteCell        1002b680 f   sqlite3:sqlite3.obj
 0001:0002a800       _sqlite3BtreeInsert        1002b800 f   sqlite3:sqlite3.obj
 0001:0002abf0       _sqlite3BtreeDelete        1002bbf0 f   sqlite3:sqlite3.obj
 0001:0002afa0       _btreeCreateTable          1002bfa0 f   sqlite3:sqlite3.obj
 0001:0002b260       _clearDatabasePage         1002c260 f   sqlite3:sqlite3.obj
 0001:0002b410       _sqlite3BtreeClearTable    1002c410 f   sqlite3:sqlite3.obj
 0001:0002b490       _btreeDropTable            1002c490 f   sqlite3:sqlite3.obj
 0001:0002b6d0       _sqlite3BtreeUpdateMeta    1002c6d0 f   sqlite3:sqlite3.obj
 0001:0002b770       _sqlite3BtreeCount         1002c770 f   sqlite3:sqlite3.obj
 0001:0002b890       _checkAppendMsg            1002c890 f   sqlite3:sqlite3.obj
 0001:0002b920       _checkRef                  1002c920 f   sqlite3:sqlite3.obj
 0001:0002b990       _checkPtrmap               1002c990 f   sqlite3:sqlite3.obj
 0001:0002ba20       _checkList                 1002ca20 f   sqlite3:sqlite3.obj
 0001:0002bc10       _btreeHeapPull             1002cc10 f   sqlite3:sqlite3.obj
 0001:0002bc70       _checkTreePage             1002cc70 f   sqlite3:sqlite3.obj
 0001:0002c2c0       _sqlite3BtreeIntegrityCheck 1002d2c0 f   sqlite3:sqlite3.obj
 0001:0002c6e0       _sqlite3BtreeGetFilename   1002d6e0 f   sqlite3:sqlite3.obj
 0001:0002c700       _sqlite3BtreePutData       1002d700 f   sqlite3:sqlite3.obj
 0001:0002c770       _sqlite3BtreeSetVersion    1002d770 f   sqlite3:sqlite3.obj
 0001:0002c7f0       _findBtree                 1002d7f0 f   sqlite3:sqlite3.obj
 0001:0002c8f0       _setDestPgsz               1002d8f0 f   sqlite3:sqlite3.obj
 0001:0002ca90       _backupOnePage             1002da90 f   sqlite3:sqlite3.obj
 0001:0002d4b0       _backupUpdate              1002e4b0 f   sqlite3:sqlite3.obj
 0001:0002d500       _sqlite3BtreeCopyFile      1002e500 f   sqlite3:sqlite3.obj
 0001:0002d610       _vdbeMemRenderNum          1002e610 f   sqlite3:sqlite3.obj
 0001:0002d6a0       _sqlite3VdbeChangeEncoding 1002e6a0 f   sqlite3:sqlite3.obj
 0001:0002d6c0       _sqlite3VdbeMemGrow        1002e6c0 f   sqlite3:sqlite3.obj
 0001:0002d7d0       _sqlite3VdbeMemClearAndResize 1002e7d0 f   sqlite3:sqlite3.obj
 0001:0002d7f0       _vdbeMemAddTerminator      1002e7f0 f   sqlite3:sqlite3.obj
 0001:0002d840       _sqlite3VdbeMemMakeWriteable 1002e840 f   sqlite3:sqlite3.obj
 0001:0002d890       _sqlite3VdbeMemExpandBlob  1002e890 f   sqlite3:sqlite3.obj
 0001:0002d8f0       _sqlite3VdbeMemNulTerminate 1002e8f0 f   sqlite3:sqlite3.obj
 0001:0002d910       _sqlite3VdbeMemStringify   1002e910 f   sqlite3:sqlite3.obj
 0001:0002d9b0       _sqlite3VdbeMemFinalize    1002e9b0 f   sqlite3:sqlite3.obj
 0001:0002da40       _vdbeMemClearExternAndSetNull 1002ea40 f   sqlite3:sqlite3.obj
 0001:0002da80       _vdbeMemClear              1002ea80 f   sqlite3:sqlite3.obj
 0001:0002dac0       _sqlite3VdbeMemRelease     1002eac0 f   sqlite3:sqlite3.obj
 0001:0002dae0       _doubleToInt64             1002eae0 f   sqlite3:sqlite3.obj
 0001:0002db40       _memIntValue               1002eb40 f   sqlite3:sqlite3.obj
 0001:0002db70       _sqlite3VdbeIntValue       1002eb70 f   sqlite3:sqlite3.obj
 0001:0002dbb0       _memRealValue              1002ebb0 f   sqlite3:sqlite3.obj
 0001:0002dbf0       _sqlite3VdbeRealValue      1002ebf0 f   sqlite3:sqlite3.obj
 0001:0002dc20       _sqlite3VdbeIntegerAffinity 1002ec20 f   sqlite3:sqlite3.obj
 0001:0002dc80       _sqlite3VdbeMemIntegerify  1002ec80 f   sqlite3:sqlite3.obj
 0001:0002dcf0       _sqlite3VdbeMemRealify     1002ecf0 f   sqlite3:sqlite3.obj
 0001:0002dd40       _sqlite3RealSameAsInt      1002ed40 f   sqlite3:sqlite3.obj
 0001:0002ddc0       _sqlite3VdbeMemNumerify    1002edc0 f   sqlite3:sqlite3.obj
 0001:0002de70       _sqlite3VdbeMemCast        1002ee70 f   sqlite3:sqlite3.obj
 0001:0002df30       $LN41                      1002ef30     sqlite3:sqlite3.obj
 0001:0002df50       _sqlite3VdbeMemSetNull     1002ef50 f   sqlite3:sqlite3.obj
 0001:0002df70       _vdbeReleaseAndSetInt64    1002ef70 f   sqlite3:sqlite3.obj
 0001:0002dfb0       _sqlite3VdbeMemSetInt64    1002efb0 f   sqlite3:sqlite3.obj
 0001:0002dff0       _sqlite3VdbeMemSetDouble   1002eff0 f   sqlite3:sqlite3.obj
 0001:0002e060       _sqlite3VdbeMemTooBig      1002f060 f   sqlite3:sqlite3.obj
 0001:0002e090       _vdbeClrCopy               1002f090 f   sqlite3:sqlite3.obj
 0001:0002e0b0       _sqlite3VdbeMemShallowCopy 1002f0b0 f   sqlite3:sqlite3.obj
 0001:0002e100       _sqlite3VdbeMemCopy        1002f100 f   sqlite3:sqlite3.obj
 0001:0002e170       _sqlite3VdbeMemSetStr      1002f170 f   sqlite3:sqlite3.obj
 0001:0002e3a0       _vdbeMemFromBtreeResize    1002f3a0 f   sqlite3:sqlite3.obj
 0001:0002e480       _valueToText               1002f480 f   sqlite3:sqlite3.obj
 0001:0002e520       _valueNew                  1002f520 f   sqlite3:sqlite3.obj
 0001:0002e630       _valueFromFunction         1002f630 f   sqlite3:sqlite3.obj
 0001:0002e860       _valueFromExpr             1002f860 f   sqlite3:sqlite3.obj
 0001:0002ed00       _sqlite3ValueFromExpr      1002fd00 f   sqlite3:sqlite3.obj
 0001:0002ed30       _recordFunc                1002fd30 f   sqlite3:sqlite3.obj
 0001:0002ee40       _stat4ValueFromExpr        1002fe40 f   sqlite3:sqlite3.obj
 0001:0002efe0       _sqlite3Stat4ProbeSetValue 1002ffe0 f   sqlite3:sqlite3.obj
 0001:0002f140       _sqlite3Stat4Column        10030140 f   sqlite3:sqlite3.obj
 0001:0002f2f0       _sqlite3Stat4ProbeFree     100302f0 f   sqlite3:sqlite3.obj
 0001:0002f360       _sqlite3ValueFree          10030360 f   sqlite3:sqlite3.obj
 0001:0002f390       _valueBytes                10030390 f   sqlite3:sqlite3.obj
 0001:0002f3b0       _sqlite3VdbeCreate         100303b0 f   sqlite3:sqlite3.obj
 0001:0002f480       _sqlite3VdbeError          10030480 f   sqlite3:sqlite3.obj
 0001:0002f4b0       _sqlite3VdbeSwap           100304b0 f   sqlite3:sqlite3.obj
 0001:0002f570       _growOpArray               10030570 f   sqlite3:sqlite3.obj
 0001:0002f670       _growOp3                   10030670 f   sqlite3:sqlite3.obj
 0001:0002f6b0       _sqlite3VdbeAddOp3         100306b0 f   sqlite3:sqlite3.obj
 0001:0002f720       _sqlite3VdbeAddOp0         10030720 f   sqlite3:sqlite3.obj
 0001:0002f780       _sqlite3VdbeAddOp1         10030780 f   sqlite3:sqlite3.obj
 0001:0002f7e0       _sqlite3VdbeAddOp2         100307e0 f   sqlite3:sqlite3.obj
 0001:0002f850       _sqlite3VdbeGoto           10030850 f   sqlite3:sqlite3.obj
 0001:0002f8c0       _sqlite3VdbeLoadString     100308c0 f   sqlite3:sqlite3.obj
 0001:0002f940       _sqlite3VdbeMultiLoad      10030940 f   sqlite3:sqlite3.obj
 0001:0002fad0       _sqlite3VdbeAddOp4         10030ad0 f   sqlite3:sqlite3.obj
 0001:0002fb50       _sqlite3VdbeExplain        10030b50 f   sqlite3:sqlite3.obj
 0001:0002fbb0       _sqlite3VdbeExplainPop     10030bb0 f   sqlite3:sqlite3.obj
 0001:0002fc00       _sqlite3VdbeAddParseSchemaOp 10030c00 f   sqlite3:sqlite3.obj
 0001:0002fcc0       _sqlite3VdbeAddOp4Int      10030cc0 f   sqlite3:sqlite3.obj
 0001:0002fd50       _sqlite3VdbeEndCoroutine   10030d50 f   sqlite3:sqlite3.obj
 0001:0002fdc0       _resizeResolveLabel        10030dc0 f   sqlite3:sqlite3.obj
 0001:0002fe10       _sqlite3VdbeResolveLabel   10030e10 f   sqlite3:sqlite3.obj
 0001:0002fe40       _resolveP2Values           10030e40 f   sqlite3:sqlite3.obj
 0001:0002ff3c       $LN30                      10030f3c     sqlite3:sqlite3.obj
 0001:0002ff70       _sqlite3VdbeAddOpList      10030f70 f   sqlite3:sqlite3.obj
 0001:00030010       _sqlite3VdbeChangeOpcode   10031010 f   sqlite3:sqlite3.obj
 0001:00030050       _sqlite3VdbeChangeP1       10031050 f   sqlite3:sqlite3.obj
 0001:00030080       _sqlite3VdbeChangeP3       10031080 f   sqlite3:sqlite3.obj
 0001:000300b0       _sqlite3VdbeChangeP5       100310b0 f   sqlite3:sqlite3.obj
 0001:000300d0       _sqlite3VdbeJumpHere       100310d0 f   sqlite3:sqlite3.obj
 0001:00030100       _freeP4Mem                 10031100 f   sqlite3:sqlite3.obj
 0001:00030130       _freeP4FuncCtx             10031130 f   sqlite3:sqlite3.obj
 0001:00030150       _freeP4                    10031150 f   sqlite3:sqlite3.obj
 0001:000301c4       $LN23                      100311c4     sqlite3:sqlite3.obj
 0001:000301f0       _sqlite3VdbeChangeToNoop   100311f0 f   sqlite3:sqlite3.obj
 0001:00030240       _vdbeChangeP4Full          10031240 f   sqlite3:sqlite3.obj
 0001:00030310       _sqlite3VdbeChangeP4       10031310 f   sqlite3:sqlite3.obj
 0001:000303a0       _sqlite3VdbeAppendP4       100313a0 f   sqlite3:sqlite3.obj
 0001:000303e0       _sqlite3VdbeSetP4KeyInfo   100313e0 f   sqlite3:sqlite3.obj
 0001:00030420       _sqlite3VdbeGetOp          10031420 f   sqlite3:sqlite3.obj
 0001:00030450       _displayP4                 10031450 f   sqlite3:sqlite3.obj
 0001:0003079c       $LN69                      1003179c     sqlite3:sqlite3.obj
 0001:000307e0       _sqlite3VdbeUsesBtree      100317e0 f   sqlite3:sqlite3.obj
 0001:00030820       _sqlite3VdbeEnter          10031820 f   sqlite3:sqlite3.obj
 0001:00030880       _releaseMemArray           10031880 f   sqlite3:sqlite3.obj
 0001:00030930       _sqlite3VdbeFrameMemDel    10031930 f   sqlite3:sqlite3.obj
 0001:00030950       _sqlite3VdbeFrameDelete    10031950 f   sqlite3:sqlite3.obj
 0001:000309d0       _sqlite3VdbeList           100319d0 f   sqlite3:sqlite3.obj
 0001:00030ee0       _allocSpace                10031ee0 f   sqlite3:sqlite3.obj
 0001:00030f30       _sqlite3VdbeMakeReady      10031f30 f   sqlite3:sqlite3.obj
 0001:00031300       _sqlite3VdbeFreeCursor     10032300 f   sqlite3:sqlite3.obj
 0001:000313c0       _sqlite3VdbeFrameRestore   100323c0 f   sqlite3:sqlite3.obj
 0001:00031490       _closeAllCursors           10032490 f   sqlite3:sqlite3.obj
 0001:00031580       _sqlite3VdbeSetNumCols     10032580 f   sqlite3:sqlite3.obj
 0001:00031610       _sqlite3VdbeSetColName     10032610 f   sqlite3:sqlite3.obj
 0001:00031660       _vdbeCommit                10032660 f   sqlite3:sqlite3.obj
 0001:00031cb0       _vdbeCloseStatement        10032cb0 f   sqlite3:sqlite3.obj
 0001:00031e70       _sqlite3VdbeCloseStatement 10032e70 f   sqlite3:sqlite3.obj
 0001:00031e90       _sqlite3VdbeCheckFk        10032e90 f   sqlite3:sqlite3.obj
 0001:00031ef0       _sqlite3VdbeHalt           10032ef0 f   sqlite3:sqlite3.obj
 0001:000321f0       _sqlite3VdbeTransferError  100331f0 f   sqlite3:sqlite3.obj
 0001:000322d0       _sqlite3VdbeReset          100332d0 f   sqlite3:sqlite3.obj
 0001:00032370       _sqlite3VdbeFinalize       10033370 f   sqlite3:sqlite3.obj
 0001:000323e0       _sqlite3VdbeDeleteAuxData  100333e0 f   sqlite3:sqlite3.obj
 0001:00032440       _sqlite3VdbeClearObject    10033440 f   sqlite3:sqlite3.obj
 0001:00032580       _sqlite3VdbeDelete         10033580 f   sqlite3:sqlite3.obj
 0001:000325d0       _handleDeferredMoveto      100335d0 f   sqlite3:sqlite3.obj
 0001:00032640       _handleMovedCursor         10033640 f   sqlite3:sqlite3.obj
 0001:00032680       _sqlite3VdbeSerialType     10033680 f   sqlite3:sqlite3.obj
 0001:00032840       _sqlite3VdbeSerialTypeLen  10033840 f   sqlite3:sqlite3.obj
 0001:00032860       _sqlite3VdbeSerialPut      10033860 f   sqlite3:sqlite3.obj
 0001:000328c0       _serialGet                 100338c0 f   sqlite3:sqlite3.obj
 0001:000329a0       _sqlite3VdbeSerialGet      100339a0 f   sqlite3:sqlite3.obj
 0001:00032b58       $LN17                      10033b58     sqlite3:sqlite3.obj
 0001:00032b90       _sqlite3VdbeAllocUnpackedRecord 10033b90 f   sqlite3:sqlite3.obj
 0001:00032bf0       _sqlite3VdbeRecordUnpack   10033bf0 f   sqlite3:sqlite3.obj
 0001:00032d70       _vdbeCompareMemString      10033d70 f   sqlite3:sqlite3.obj
 0001:00032f00       _isAllZero                 10033f00 f   sqlite3:sqlite3.obj
 0001:00032f20       _sqlite3BlobCompare        10033f20 f   sqlite3:sqlite3.obj
 0001:00033020       _sqlite3IntFloatCompare    10034020 f   sqlite3:sqlite3.obj
 0001:000330a0       _sqlite3MemCompare         100340a0 f   sqlite3:sqlite3.obj
 0001:00033210       _vdbeRecordDecodeInt       10034210 f   sqlite3:sqlite3.obj
 0001:00033354       $LN12                      10034354     sqlite3:sqlite3.obj
 0001:00033370       _sqlite3VdbeRecordCompareWithSkip 10034370 f   sqlite3:sqlite3.obj
 0001:000339a0       _sqlite3VdbeRecordCompare  100349a0 f   sqlite3:sqlite3.obj
 0001:000339c0       _vdbeRecordCompareInt      100349c0 f   sqlite3:sqlite3.obj
 0001:00033bc4       $LN31                      10034bc4     sqlite3:sqlite3.obj
 0001:00033bf0       _vdbeRecordCompareString   10034bf0 f   sqlite3:sqlite3.obj
 0001:00033d50       _sqlite3VdbeIdxRowid       10034d50 f   sqlite3:sqlite3.obj
 0001:00033eb0       _sqlite3VdbeIdxKeyCompare  10034eb0 f   sqlite3:sqlite3.obj
 0001:00033fc0       _sqlite3ExpirePreparedStatements 10034fc0 f   sqlite3:sqlite3.obj
 0001:00033ff0       _sqlite3VdbeGetBoundValue  10034ff0 f   sqlite3:sqlite3.obj
 0001:00034070       _sqlite3VdbeSetVarmask     10035070 f   sqlite3:sqlite3.obj
 0001:000340a0       _sqlite3NotPureFunc        100350a0 f   sqlite3:sqlite3.obj
 0001:000340e0       _sqlite3VtabImportErrmsg   100350e0 f   sqlite3:sqlite3.obj
 0001:00034190       _invokeProfileCallback     10035190 f   sqlite3:sqlite3.obj
 0001:00034e80       _doWalCallbacks            10035e80 f   sqlite3:sqlite3.obj
 0001:00034f00       _sqlite3Step               10035f00 f   sqlite3:sqlite3.obj
 0001:00035250       _sqlite3StmtCurrentTime    10036250 f   sqlite3:sqlite3.obj
 0001:000352f0       _createAggContext          100362f0 f   sqlite3:sqlite3.obj
 0001:00035fc0       _vdbeUnbind                10036fc0 f   sqlite3:sqlite3.obj
 0001:00036110       _bindText                  10037110 f   sqlite3:sqlite3.obj
 0001:00036580       $LN24                      10037580     sqlite3:sqlite3.obj
 0001:000366f0       _sqlite3TransferBindings   100376f0 f   sqlite3:sqlite3.obj
 0001:000368c0       _sqlite3VdbeExpandSql      100378c0 f   sqlite3:sqlite3.obj
 0001:00036e20       _allocateCursor            10037e20 f   sqlite3:sqlite3.obj
 0001:00036f20       _alsoAnInt                 10037f20 f   sqlite3:sqlite3.obj
 0001:00036fd0       _applyNumericAffinity      10037fd0 f   sqlite3:sqlite3.obj
 0001:00037060       _applyAffinity             10038060 f   sqlite3:sqlite3.obj
 0001:00037060       _sqlite3ValueApplyAffinity 10038060 f   sqlite3:sqlite3.obj
 0001:00037150       _computeNumericType        10038150 f   sqlite3:sqlite3.obj
 0001:000371e0       _out2PrereleaseWithClear   100381e0 f   sqlite3:sqlite3.obj
 0001:00037220       _sqlite3VdbeExec           10038220 f   sqlite3:sqlite3.obj
 0001:0003db3c       $LN2021                    1003eb3c     sqlite3:sqlite3.obj
 0001:0003dde0       $LN2022                    1003ede0     sqlite3:sqlite3.obj
 0001:0003ddf0       $LN2023                    1003edf0     sqlite3:sqlite3.obj
 0001:0003de00       _blobSeekToRow             1003ee00 f   sqlite3:sqlite3.obj
 0001:0003e610       _blobReadWrite             1003f610 f   sqlite3:sqlite3.obj
 0001:0003e840       _vdbePmaReaderClear        1003f840 f   sqlite3:sqlite3.obj
 0001:0003e910       _vdbePmaReadBlob           1003f910 f   sqlite3:sqlite3.obj
 0001:0003eab0       _vdbePmaReadVarint         1003fab0 f   sqlite3:sqlite3.obj
 0001:0003eb90       _vdbePmaReaderSeek         1003fb90 f   sqlite3:sqlite3.obj
 0001:0003ecf0       _vdbePmaReaderNext         1003fcf0 f   sqlite3:sqlite3.obj
 0001:0003edb0       _vdbeSorterCompare         1003fdb0 f   sqlite3:sqlite3.obj
 0001:0003ee00       _vdbeSorterCompareText     1003fe00 f   sqlite3:sqlite3.obj
 0001:0003ef40       _vdbeSorterCompareInt      1003ff40 f   sqlite3:sqlite3.obj
 0001:0003f070       _sqlite3VdbeSorterInit     10040070 f   sqlite3:sqlite3.obj
 0001:0003f220       _vdbeSortSubtaskCleanup    10040220 f   sqlite3:sqlite3.obj
 0001:0003f310       _vdbeMergeEngineNew        10040310 f   sqlite3:sqlite3.obj
 0001:0003f390       _vdbeMergeEngineFree       10040390 f   sqlite3:sqlite3.obj
 0001:0003f400       _sqlite3VdbeSorterReset    10040400 f   sqlite3:sqlite3.obj
 0001:0003f490       _vdbeSorterExtendFile      10040490 f   sqlite3:sqlite3.obj
 0001:0003f520       _vdbeSorterOpenTempFile    10040520 f   sqlite3:sqlite3.obj
 0001:0003f5c0       _vdbeSortAllocUnpacked     100405c0 f   sqlite3:sqlite3.obj
 0001:0003f640       _vdbeSorterMerge           10040640 f   sqlite3:sqlite3.obj
 0001:0003f6c0       _vdbeSorterSort            100406c0 f   sqlite3:sqlite3.obj
 0001:0003f830       _vdbePmaWriterInit         10040830 f   sqlite3:sqlite3.obj
 0001:0003f8e0       _vdbePmaWriteBlob          100408e0 f   sqlite3:sqlite3.obj
 0001:0003f9b0       _vdbePmaWriterFinish       100409b0 f   sqlite3:sqlite3.obj
 0001:0003fa60       _vdbeSorterListToPMA       10040a60 f   sqlite3:sqlite3.obj
 0001:0003fc50       _vdbeMergeEngineStep       10040c50 f   sqlite3:sqlite3.obj
 0001:0003fde0       _sqlite3VdbeSorterWrite    10040de0 f   sqlite3:sqlite3.obj
 0001:00040020       _vdbeIncrPopulate          10041020 f   sqlite3:sqlite3.obj
 0001:000401e0       _vdbeIncrMergerNew         100411e0 f   sqlite3:sqlite3.obj
 0001:00040290       _vdbeMergeEngineCompare    10041290 f   sqlite3:sqlite3.obj
 0001:00040330       _vdbeMergeEngineInit       10041330 f   sqlite3:sqlite3.obj
 0001:000403a0       _vdbePmaReaderIncrMergeInit 100413a0 f   sqlite3:sqlite3.obj
 0001:00040440       _vdbeMergeEngineLevel0     10041440 f   sqlite3:sqlite3.obj
 0001:000405c0       _vdbeSorterAddToTree       100415c0 f   sqlite3:sqlite3.obj
 0001:00040780       _vdbeSorterMergeTreeBuild  10041780 f   sqlite3:sqlite3.obj
 0001:00040a20       _sqlite3VdbeSorterRewind   10041a20 f   sqlite3:sqlite3.obj
 0001:00040ad0       _sqlite3VdbeSorterNext     10041ad0 f   sqlite3:sqlite3.obj
 0001:00040b50       _sqlite3VdbeSorterRowkey   10041b50 f   sqlite3:sqlite3.obj
 0001:00040be0       _sqlite3VdbeSorterCompare  10041be0 f   sqlite3:sqlite3.obj
 0001:00040cf0       _memjrnlRead               10041cf0 f   sqlite3:sqlite3.obj
 0001:00040e00       _memjrnlFreeChunks         10041e00 f   sqlite3:sqlite3.obj
 0001:00040e60       _memjrnlCreateFile         10041e60 f   sqlite3:sqlite3.obj
 0001:00041000       _memjrnlWrite              10042000 f   sqlite3:sqlite3.obj
 0001:00041130       _memjrnlTruncate           10042130 f   sqlite3:sqlite3.obj
 0001:00041180       _memjrnlClose              10042180 f   sqlite3:sqlite3.obj
 0001:00041190       _memjrnlFileSize           10042190 f   sqlite3:sqlite3.obj
 0001:000411b0       _sqlite3JournalOpen        100421b0 f   sqlite3:sqlite3.obj
 0001:00041220       _walkWindowList            10042220 f   sqlite3:sqlite3.obj
 0001:000412a0       _walkExpr                  100422a0 f   sqlite3:sqlite3.obj
 0001:00041370       _sqlite3WalkExpr           10042370 f   sqlite3:sqlite3.obj
 0001:00041380       _sqlite3WalkExprList       10042380 f   sqlite3:sqlite3.obj
 0001:000413c0       _sqlite3WalkSelectExpr     100423c0 f   sqlite3:sqlite3.obj
 0001:00041470       _sqlite3WalkSelectFrom     10042470 f   sqlite3:sqlite3.obj
 0001:000414f0       _sqlite3WalkSelect         100424f0 f   sqlite3:sqlite3.obj
 0001:00041550       _incrAggDepth              10042550 f   sqlite3:sqlite3.obj
 0001:00041570       _resolveAlias              10042570 f   sqlite3:sqlite3.obj
 0001:00041680       _nameInUsingClause         10042680 f   sqlite3:sqlite3.obj
 0001:000416f0       _sqlite3MatchSpanName      100426f0 f   sqlite3:sqlite3.obj
 0001:000417b0       _lookupName                100427b0 f   sqlite3:sqlite3.obj
 0001:00042240       _sqlite3CreateColumnExpr   10043240 f   sqlite3:sqlite3.obj
 0001:000422e0       _notValid                  100432e0 f   sqlite3:sqlite3.obj
 0001:00042330       _exprProbability           10043330 f   sqlite3:sqlite3.obj
 0001:000423b0       _resolveExprStep           100433b0 f   sqlite3:sqlite3.obj
 0001:00042984       $LN94                      10043984     sqlite3:sqlite3.obj
 0001:000429a4       $LN78                      100439a4     sqlite3:sqlite3.obj
 0001:00042a40       _resolveAsName             10043a40 f   sqlite3:sqlite3.obj
 0001:00042ac0       _resolveCompoundOrderBy    10043ac0 f   sqlite3:sqlite3.obj
 0001:00042e90       _sqlite3ResolveOrderGroupBy 10043e90 f   sqlite3:sqlite3.obj
 0001:00042f40       _resolveRemoveWindowsCb    10043f40 f   sqlite3:sqlite3.obj
 0001:00042f80       _resolveOrderGroupBy       10043f80 f   sqlite3:sqlite3.obj
 0001:00043160       _resolveSelectStep         10044160 f   sqlite3:sqlite3.obj
 0001:00043660       _sqlite3ResolveExprNames   10044660 f   sqlite3:sqlite3.obj
 0001:00043720       _sqlite3ResolveExprListNames 10044720 f   sqlite3:sqlite3.obj
 0001:00043760       _sqlite3ResolveSelectNames 10044760 f   sqlite3:sqlite3.obj
 0001:000437a0       _sqlite3ResolveSelfReference 100447a0 f   sqlite3:sqlite3.obj
 0001:00043850       _sqlite3ExprAffinity       10044850 f   sqlite3:sqlite3.obj
 0001:00043910       _sqlite3ExprAddCollateToken 10044910 f   sqlite3:sqlite3.obj
 0001:00043950       _sqlite3ExprAddCollateString 10044950 f   sqlite3:sqlite3.obj
 0001:000439b0       _sqlite3ExprSkipCollate    100449b0 f   sqlite3:sqlite3.obj
 0001:000439e0       _sqlite3ExprCollSeq        100449e0 f   sqlite3:sqlite3.obj
 0001:00043b60       _sqlite3ExprCollSeqMatch   10044b60 f   sqlite3:sqlite3.obj
 0001:00043ba0       _comparisonAffinity        10044ba0 f   sqlite3:sqlite3.obj
 0001:00043c30       _sqlite3BinaryCompareCollSeq 10044c30 f   sqlite3:sqlite3.obj
 0001:00043c80       _codeCompare               10044c80 f   sqlite3:sqlite3.obj
 0001:00043d40       _sqlite3ExprIsVector       10044d40 f   sqlite3:sqlite3.obj
 0001:00043d80       _sqlite3ExprVectorSize     10044d80 f   sqlite3:sqlite3.obj
 0001:00043db0       _sqlite3ExprForVectorField 10044db0 f   sqlite3:sqlite3.obj
 0001:00043e90       _exprVectorRegister        10044e90 f   sqlite3:sqlite3.obj
 0001:00043f60       _codeVectorCompare         10044f60 f   sqlite3:sqlite3.obj
 0001:00044210       _heightOfSelect            10045210 f   sqlite3:sqlite3.obj
 0001:000442e0       _exprSetHeight             100452e0 f   sqlite3:sqlite3.obj
 0001:00044390       _sqlite3ExprSetHeightAndFlags 10045390 f   sqlite3:sqlite3.obj
 0001:000443c0       _sqlite3SelectExprHeight   100453c0 f   sqlite3:sqlite3.obj
 0001:000443e0       _sqlite3ExprAlloc          100453e0 f   sqlite3:sqlite3.obj
 0001:000444f0       _sqlite3Expr               100454f0 f   sqlite3:sqlite3.obj
 0001:00044540       _sqlite3ExprAttachSubtrees 10045540 f   sqlite3:sqlite3.obj
 0001:000445b0       _sqlite3PExpr              100455b0 f   sqlite3:sqlite3.obj
 0001:00044650       _sqlite3PExprAddSelect     10045650 f   sqlite3:sqlite3.obj
 0001:000446c0       _sqlite3ExprAnd            100456c0 f   sqlite3:sqlite3.obj
 0001:00044750       _sqlite3ExprFunction       10045750 f   sqlite3:sqlite3.obj
 0001:000447f0       _sqlite3ExprAssignVarNumber 100457f0 f   sqlite3:sqlite3.obj
 0001:00044950       _sqlite3ExprDeleteNN       10045950 f   sqlite3:sqlite3.obj
 0001:00044a00       _sqlite3ExprDelete         10045a00 f   sqlite3:sqlite3.obj
 0001:00044a20       _sqlite3ExprUnmapAndDelete 10045a20 f   sqlite3:sqlite3.obj
 0001:00044a80       _exprNodeCopy              10045a80 f   sqlite3:sqlite3.obj
 0001:00044ad0       _dupedExprNodeSize         10045ad0 f   sqlite3:sqlite3.obj
 0001:00044b40       _dupedExprSize             10045b40 f   sqlite3:sqlite3.obj
 0001:00044b80       _exprDup                   10045b80 f   sqlite3:sqlite3.obj
 0001:00044e10       _withDup                   10045e10 f   sqlite3:sqlite3.obj
 0001:00044f20       _gatherSelectWindowsCallback 10045f20 f   sqlite3:sqlite3.obj
 0001:00044f50       _gatherSelectWindowsSelectCallback 10045f50 f   sqlite3:sqlite3.obj
 0001:00044f70       _sqlite3ExprDup            10045f70 f   sqlite3:sqlite3.obj
 0001:00044fa0       _sqlite3ExprListDup        10045fa0 f   sqlite3:sqlite3.obj
 0001:00045160       _sqlite3SrcListDup         10046160 f   sqlite3:sqlite3.obj
 0001:000453c0       _sqlite3IdListDup          100463c0 f   sqlite3:sqlite3.obj
 0001:000454b0       _sqlite3SelectDup          100464b0 f   sqlite3:sqlite3.obj
 0001:00045690       _sqlite3ExprListAppend     10046690 f   sqlite3:sqlite3.obj
 0001:00045750       _sqlite3ExprListAppendVector 10046750 f   sqlite3:sqlite3.obj
 0001:00045920       _sqlite3ExprListSetName    10046920 f   sqlite3:sqlite3.obj
 0001:000459e0       _sqlite3ExprListCheckLength 100469e0 f   sqlite3:sqlite3.obj
 0001:00045a10       _exprListDeleteNN          10046a10 f   sqlite3:sqlite3.obj
 0001:00045a60       _sqlite3SelectWalkFail     10046a60 f   sqlite3:sqlite3.obj
 0001:00045a70       _sqlite3ExprIdToTrueFalse  10046a70 f   sqlite3:sqlite3.obj
 0001:00045ad0       _sqlite3ExprTruthValue     10046ad0 f   sqlite3:sqlite3.obj
 0001:00045b00       _sqlite3ExprSimplifiedAndOr 10046b00 f   sqlite3:sqlite3.obj
 0001:00045b90       _exprNodeIsConstant        10046b90 f   sqlite3:sqlite3.obj
 0001:00045c28       $LN25                      10046c28     sqlite3:sqlite3.obj
 0001:00045c40       $LN21                      10046c40     sqlite3:sqlite3.obj
 0001:00045cc0       _sqlite3ExprIsConstant     10046cc0 f   sqlite3:sqlite3.obj
 0001:00045d00       _sqlite3ExprIsConstantNotJoin 10046d00 f   sqlite3:sqlite3.obj
 0001:00045d40       _sqlite3ExprIsTableConstant 10046d40 f   sqlite3:sqlite3.obj
 0001:00045d80       _exprNodeIsConstantOrGroupBy 10046d80 f   sqlite3:sqlite3.obj
 0001:00045e30       _sqlite3ExprIsInteger      10046e30 f   sqlite3:sqlite3.obj
 0001:00045ea0       _sqlite3ExprCanBeNull      10046ea0 f   sqlite3:sqlite3.obj
 0001:00045f04       $LN23                      10046f04     sqlite3:sqlite3.obj
 0001:00045f10       $LN20                      10046f10     sqlite3:sqlite3.obj
 0001:00045f50       _sqlite3ExprNeedsNoAffinityChange 10046f50 f   sqlite3:sqlite3.obj
 0001:00045fb4       $LN40                      10046fb4     sqlite3:sqlite3.obj
 0001:00045fcc       $LN31                      10046fcc     sqlite3:sqlite3.obj
 0001:00046010       _sqlite3IsRowid            10047010 f   sqlite3:sqlite3.obj
 0001:00046080       _isCandidateForInOpt       10047080 f   sqlite3:sqlite3.obj
 0001:000460f0       _sqlite3SetHasNullFlag     100470f0 f   sqlite3:sqlite3.obj
 0001:00046240       _sqlite3FindInIndex        10047240 f   sqlite3:sqlite3.obj
 0001:00046a30       _exprINAffinity            10047a30 f   sqlite3:sqlite3.obj
 0001:00046b70       _sqlite3VectorErrorMsg     10047b70 f   sqlite3:sqlite3.obj
 0001:00046ba0       _sqlite3CodeRhsOfIN        10047ba0 f   sqlite3:sqlite3.obj
 0001:00047230       _sqlite3CodeSubselect      10048230 f   sqlite3:sqlite3.obj
 0001:00047530       _sqlite3ExprCheckIN        10048530 f   sqlite3:sqlite3.obj
 0001:000475e0       _sqlite3ExprCodeIN         100485e0 f   sqlite3:sqlite3.obj
 0001:00048300       _codeReal                  10049300 f   sqlite3:sqlite3.obj
 0001:000483a0       _codeInteger               100493a0 f   sqlite3:sqlite3.obj
 0001:00048520       _sqlite3ExprCodeLoadIndexColumn 10049520 f   sqlite3:sqlite3.obj
 0001:000485c0       _sqlite3ExprCodeGetColumnOfTable 100495c0 f   sqlite3:sqlite3.obj
 0001:000486c0       _sqlite3ExprCodeMove       100496c0 f   sqlite3:sqlite3.obj
 0001:00048730       _exprToRegister            10049730 f   sqlite3:sqlite3.obj
 0001:00048770       _exprCodeVector            10049770 f   sqlite3:sqlite3.obj
 0001:00048880       _sqlite3ExprCodeTarget     10049880 f   sqlite3:sqlite3.obj
 0001:00049598       $LN201                     1004a598     sqlite3:sqlite3.obj
 0001:00049610       $LN178                     1004a610     sqlite3:sqlite3.obj
 0001:000496b0       _sqlite3ExprCodeAtInit     1004a6b0 f   sqlite3:sqlite3.obj
 0001:00049770       _sqlite3ExprCodeTemp       1004a770 f   sqlite3:sqlite3.obj
 0001:00049870       _sqlite3ExprCode           1004a870 f   sqlite3:sqlite3.obj
 0001:000498d0       _sqlite3ExprCodeAndCache   1004a8d0 f   sqlite3:sqlite3.obj
 0001:000499a0       _sqlite3ExprCodeExprList   1004a9a0 f   sqlite3:sqlite3.obj
 0001:00049bb0       _exprCodeBetween           1004abb0 f   sqlite3:sqlite3.obj
 0001:00049d20       _sqlite3ExprIfTrue         1004ad20 f   sqlite3:sqlite3.obj
 0001:0004a020       $LN44                      1004b020     sqlite3:sqlite3.obj
 0001:0004a044       $LN37                      1004b044     sqlite3:sqlite3.obj
 0001:0004a0e0       _sqlite3ExprIfFalse        1004b0e0 f   sqlite3:sqlite3.obj
 0001:0004a3f4       $LN45                      1004b3f4     sqlite3:sqlite3.obj
 0001:0004a418       $LN39                      1004b418     sqlite3:sqlite3.obj
 0001:0004a4b0       _exprCompareVariable       1004b4b0 f   sqlite3:sqlite3.obj
 0001:0004a5c0       _sqlite3ExprCompare        1004b5c0 f   sqlite3:sqlite3.obj
 0001:0004a840       _sqlite3ExprListCompare    1004b840 f   sqlite3:sqlite3.obj
 0001:0004a8d0       _sqlite3ExprCompareSkip    1004b8d0 f   sqlite3:sqlite3.obj
 0001:0004a940       _exprImpliesNotNull        1004b940 f   sqlite3:sqlite3.obj
 0001:0004aa34       $LN34                      1004ba34     sqlite3:sqlite3.obj
 0001:0004aa50       $LN32                      1004ba50     sqlite3:sqlite3.obj
 0001:0004aaf0       _sqlite3ExprImpliesExpr    1004baf0 f   sqlite3:sqlite3.obj
 0001:0004ab70       _impliesNotNullRow         1004bb70 f   sqlite3:sqlite3.obj
 0001:0004abd8       $LN16                      1004bbd8     sqlite3:sqlite3.obj
 0001:0004abe8       $LN14                      1004bbe8     sqlite3:sqlite3.obj
 0001:0004ac80       _sqlite3ExprImpliesNonNullRow 1004bc80 f   sqlite3:sqlite3.obj
 0001:0004ad30       _exprIdxCover              1004bd30 f   sqlite3:sqlite3.obj
 0001:0004ad90       _exprSrcCount              1004bd90 f   sqlite3:sqlite3.obj
 0001:0004ade0       _sqlite3FunctionUsesThisSrc 1004bde0 f   sqlite3:sqlite3.obj
 0001:0004ae60       _analyzeAggregate          1004be60 f   sqlite3:sqlite3.obj
 0001:0004b0f0       _analyzeAggregatesInSelect 1004c0f0 f   sqlite3:sqlite3.obj
 0001:0004b100       _analyzeAggregatesInSelectEnd 1004c100 f   sqlite3:sqlite3.obj
 0001:0004b110       _sqlite3ExprAnalyzeAggList 1004c110 f   sqlite3:sqlite3.obj
 0001:0004b180       _sqlite3GetTempReg         1004c180 f   sqlite3:sqlite3.obj
 0001:0004b1a0       _sqlite3ReleaseTempReg     1004c1a0 f   sqlite3:sqlite3.obj
 0001:0004b1c0       _sqlite3GetTempRange       1004c1c0 f   sqlite3:sqlite3.obj
 0001:0004b220       _sqlite3ReleaseTempRange   1004c220 f   sqlite3:sqlite3.obj
 0001:0004b250       _isAlterableTable          1004c250 f   sqlite3:sqlite3.obj
 0001:0004b2b0       _renameTestSchema          1004c2b0 f   sqlite3:sqlite3.obj
 0001:0004b2f0       _renameReloadSchema        1004c2f0 f   sqlite3:sqlite3.obj
 0001:0004b390       _sqlite3AlterRenameTable   1004c390 f   sqlite3:sqlite3.obj
 0001:0004b690       _sqlite3AlterFinishAddColumn 1004c690 f   sqlite3:sqlite3.obj
 0001:0004b940       _sqlite3AlterBeginAddColumn 1004c940 f   sqlite3:sqlite3.obj
 0001:0004bae0       _sqlite3AlterRenameColumn  1004cae0 f   sqlite3:sqlite3.obj
 0001:0004bd10       _sqlite3RenameTokenMap     1004cd10 f   sqlite3:sqlite3.obj
 0001:0004bd60       _sqlite3RenameTokenRemap   1004cd60 f   sqlite3:sqlite3.obj
 0001:0004bd80       _renameUnmapExprCb         1004cd80 f   sqlite3:sqlite3.obj
 0001:0004bdb0       _renameUnmapSelectCb       1004cdb0 f   sqlite3:sqlite3.obj
 0001:0004be50       _sqlite3RenameExprlistUnmap 1004ce50 f   sqlite3:sqlite3.obj
 0001:0004bef0       _renameTokenFree           1004cef0 f   sqlite3:sqlite3.obj
 0001:0004bf20       _renameTokenFind           1004cf20 f   sqlite3:sqlite3.obj
 0001:0004bf60       _renameWalkWith            1004cf60 f   sqlite3:sqlite3.obj
 0001:0004c050       _renameColumnSelectCb      1004d050 f   sqlite3:sqlite3.obj
 0001:0004c060       _renameColumnExprCb        1004d060 f   sqlite3:sqlite3.obj
 0001:0004c0c0       _renameColumnParseError    1004d0c0 f   sqlite3:sqlite3.obj
 0001:0004c1b0       _renameColumnElistNames    1004d1b0 f   sqlite3:sqlite3.obj
 0001:0004c260       _renameColumnIdlistNames   1004d260 f   sqlite3:sqlite3.obj
 0001:0004c2f0       _renameParseSql            1004d2f0 f   sqlite3:sqlite3.obj
 0001:0004c3d0       _renameEditSql             1004d3d0 f   sqlite3:sqlite3.obj
 0001:0004c640       _renameResolveTrigger      1004d640 f   sqlite3:sqlite3.obj
 0001:0004c880       _renameWalkTrigger         1004d880 f   sqlite3:sqlite3.obj
 0001:0004c980       _renameParseCleanup        1004d980 f   sqlite3:sqlite3.obj
 0001:0004caa0       _renameColumnFunc          1004daa0 f   sqlite3:sqlite3.obj
 0001:0004d180       _renameTableExprCb         1004e180 f   sqlite3:sqlite3.obj
 0001:0004d1d0       _renameTableSelectCb       1004e1d0 f   sqlite3:sqlite3.obj
 0001:0004d260       _renameTableFunc           1004e260 f   sqlite3:sqlite3.obj
 0001:0004d7b0       _renameTableTest           1004e7b0 f   sqlite3:sqlite3.obj
 0001:0004da20       _openStatTable             1004ea20 f   sqlite3:sqlite3.obj
 0001:0004dc50       _sampleCopy                1004ec50 f   sqlite3:sqlite3.obj
 0001:0004dd30       _stat4Destructor           1004ed30 f   sqlite3:sqlite3.obj
 0001:0004ddd0       _statInit                  1004edd0 f   sqlite3:sqlite3.obj
 0001:0004e050       _sampleIsBetter            1004f050 f   sqlite3:sqlite3.obj
 0001:0004e0c0       _sampleInsert              1004f0c0 f   sqlite3:sqlite3.obj
 0001:0004e290       _samplePushPrevious        1004f290 f   sqlite3:sqlite3.obj
 0001:0004e360       _statPush                  1004f360 f   sqlite3:sqlite3.obj
 0001:0004e720       _statGet                   1004f720 f   sqlite3:sqlite3.obj
 0001:0004e990       _callStatGet               1004f990 f   sqlite3:sqlite3.obj
 0001:0004ea70       _analyzeOneTable           1004fa70 f   sqlite3:sqlite3.obj
 0001:0004f730       _loadAnalysis              10050730 f   sqlite3:sqlite3.obj
 0001:0004f7c0       _analyzeDatabase           100507c0 f   sqlite3:sqlite3.obj
 0001:0004f880       _analyzeTable              10050880 f   sqlite3:sqlite3.obj
 0001:0004f960       _sqlite3Analyze            10050960 f   sqlite3:sqlite3.obj
 0001:0004fa90       _decodeIntArray            10050a90 f   sqlite3:sqlite3.obj
 0001:0004fbe0       _analysisLoader            10050be0 f   sqlite3:sqlite3.obj
 0001:0004fd10       _sqlite3DeleteIndexSamples 10050d10 f   sqlite3:sqlite3.obj
 0001:0004fd70       _initAvgEq                 10050d70 f   sqlite3:sqlite3.obj
 0001:0004ff20       _loadStatTbl               10050f20 f   sqlite3:sqlite3.obj
 0001:00050350       _sqlite3AnalysisLoad       10051350 f   sqlite3:sqlite3.obj
 0001:000505c0       _attachFunc                100515c0 f   sqlite3:sqlite3.obj
 0001:00050aa0       _detachFunc                10051aa0 f   sqlite3:sqlite3.obj
 0001:00050c10       _codeAttach                10051c10 f   sqlite3:sqlite3.obj
 0001:00050de0       _sqlite3FixInit            10051de0 f   sqlite3:sqlite3.obj
 0001:00050e20       _sqlite3FixSrcList         10051e20 f   sqlite3:sqlite3.obj
 0001:00050f30       _sqlite3FixSelect          10051f30 f   sqlite3:sqlite3.obj
 0001:00051070       _sqlite3FixExpr            10052070 f   sqlite3:sqlite3.obj
 0001:00051140       _sqlite3FixTriggerStep     10052140 f   sqlite3:sqlite3.obj
 0001:000512b0       _sqliteAuthBadReturnCode   100522b0 f   sqlite3:sqlite3.obj
 0001:000512d0       _sqlite3AuthReadCol        100522d0 f   sqlite3:sqlite3.obj
 0001:000513a0       _sqlite3AuthRead           100523a0 f   sqlite3:sqlite3.obj
 0001:00051470       _sqlite3AuthCheck          10052470 f   sqlite3:sqlite3.obj
 0001:000514f0       _sqlite3TableLock          100524f0 f   sqlite3:sqlite3.obj
 0001:00051600       _codeTableLocks            10052600 f   sqlite3:sqlite3.obj
 0001:000516e0       _sqlite3FinishCoding       100526e0 f   sqlite3:sqlite3.obj
 0001:00051960       _sqlite3NestedParse        10052960 f   sqlite3:sqlite3.obj
 0001:00051a70       _sqlite3FindTable          10052a70 f   sqlite3:sqlite3.obj
 0001:00051b80       _sqlite3LocateTable        10052b80 f   sqlite3:sqlite3.obj
 0001:00051cf0       _sqlite3LocateTableItem    10052cf0 f   sqlite3:sqlite3.obj
 0001:00051d50       _sqlite3FindIndex          10052d50 f   sqlite3:sqlite3.obj
 0001:00051e00       _sqlite3FreeIndex          10052e00 f   sqlite3:sqlite3.obj
 0001:00051ea0       _sqlite3UnlinkAndDeleteIndex 10052ea0 f   sqlite3:sqlite3.obj
 0001:00051f50       _sqlite3CollapseDatabaseArray 10052f50 f   sqlite3:sqlite3.obj
 0001:00052000       _sqlite3ResetOneSchema     10053000 f   sqlite3:sqlite3.obj
 0001:00052060       _sqlite3ResetAllSchemasOfConnection 10053060 f   sqlite3:sqlite3.obj
 0001:000520e0       _sqlite3DeleteColumnNames  100530e0 f   sqlite3:sqlite3.obj
 0001:00052150       _deleteTable               10053150 f   sqlite3:sqlite3.obj
 0001:00052200       _sqlite3DeleteTable        10053200 f   sqlite3:sqlite3.obj
 0001:00052220       _sqlite3NameFromToken      10053220 f   sqlite3:sqlite3.obj
 0001:00052280       _sqlite3OpenMasterTable    10053280 f   sqlite3:sqlite3.obj
 0001:000522f0       _sqlite3FindDbName         100532f0 f   sqlite3:sqlite3.obj
 0001:00052350       _sqlite3FindDb             10053350 f   sqlite3:sqlite3.obj
 0001:000523d0       _sqlite3TwoPartName        100533d0 f   sqlite3:sqlite3.obj
 0001:00052440       _sqlite3WritableSchema     10053440 f   sqlite3:sqlite3.obj
 0001:00052460       _sqlite3CheckObjectName    10053460 f   sqlite3:sqlite3.obj
 0001:000524c0       _sqlite3PrimaryKeyIndex    100534c0 f   sqlite3:sqlite3.obj
 0001:000524e0       _sqlite3ColumnOfIndex      100534e0 f   sqlite3:sqlite3.obj
 0001:00052510       _sqlite3StartTable         10053510 f   sqlite3:sqlite3.obj
 0001:00052970       _sqlite3AddColumn          10053970 f   sqlite3:sqlite3.obj
 0001:00052b30       _sqlite3AddNotNull         10053b30 f   sqlite3:sqlite3.obj
 0001:00052b90       _sqlite3AffinityType       10053b90 f   sqlite3:sqlite3.obj
 0001:00052cc0       _sqlite3AddDefaultValue    10053cc0 f   sqlite3:sqlite3.obj
 0001:00052e20       _sqlite3AddPrimaryKey      10053e20 f   sqlite3:sqlite3.obj
 0001:00053080       _sqlite3AddCheckConstraint 10054080 f   sqlite3:sqlite3.obj
 0001:00053100       _sqlite3AddCollateType     10054100 f   sqlite3:sqlite3.obj
 0001:000531a0       _sqlite3LocateCollSeq      100541a0 f   sqlite3:sqlite3.obj
 0001:00053200       _sqlite3ChangeCookie       10054200 f   sqlite3:sqlite3.obj
 0001:00053270       _identPut                  10054270 f   sqlite3:sqlite3.obj
 0001:00053330       _createTableStmt           10054330 f   sqlite3:sqlite3.obj
 0001:000535e0       _resizeIndexObject         100545e0 f   sqlite3:sqlite3.obj
 0001:00053680       _estimateTableWidth        10054680 f   sqlite3:sqlite3.obj
 0001:000536f0       _estimateIndexWidth        100546f0 f   sqlite3:sqlite3.obj
 0001:00053750       _isDupColumn               10054750 f   sqlite3:sqlite3.obj
 0001:000537f0       _recomputeColumnsNotIndexed 100547f0 f   sqlite3:sqlite3.obj
 0001:00053860       _convertToWithoutRowidTable 10054860 f   sqlite3:sqlite3.obj
 0001:00053cc0       _isShadowTableName         10054cc0 f   sqlite3:sqlite3.obj
 0001:00053d40       _sqlite3EndTable           10054d40 f   sqlite3:sqlite3.obj
 0001:000541f0       _sqlite3CreateView         100551f0 f   sqlite3:sqlite3.obj
 0001:000543d0       _sqlite3ViewGetColumnNames 100553d0 f   sqlite3:sqlite3.obj
 0001:00054580       _sqliteViewResetAll        10055580 f   sqlite3:sqlite3.obj
 0001:000545e0       _destroyRootPage           100555e0 f   sqlite3:sqlite3.obj
 0001:000546f0       _destroyTable              100556f0 f   sqlite3:sqlite3.obj
 0001:00054780       _sqlite3ClearStatTables    10055780 f   sqlite3:sqlite3.obj
 0001:00054810       _sqlite3CodeDropTable      10055810 f   sqlite3:sqlite3.obj
 0001:00054ab0       _sqlite3DropTable          10055ab0 f   sqlite3:sqlite3.obj
 0001:00054d40       _sqlite3CreateForeignKey   10055d40 f   sqlite3:sqlite3.obj
 0001:00055150       _sqlite3RefillIndex        10056150 f   sqlite3:sqlite3.obj
 0001:00055550       _sqlite3AllocateIndexObject 10056550 f   sqlite3:sqlite3.obj
 0001:000555e0       _sqlite3CreateIndex        100565e0 f   sqlite3:sqlite3.obj
 0001:00056180       _sqlite3DefaultRowEst      10057180 f   sqlite3:sqlite3.obj
 0001:00056230       _sqlite3DropIndex          10057230 f   sqlite3:sqlite3.obj
 0001:00056400       _sqlite3ArrayAllocate      10057400 f   sqlite3:sqlite3.obj
 0001:000564b0       _sqlite3IdListAppend       100574b0 f   sqlite3:sqlite3.obj
 0001:00056550       _sqlite3IdListDelete       10057550 f   sqlite3:sqlite3.obj
 0001:000565a0       _sqlite3IdListIndex        100575a0 f   sqlite3:sqlite3.obj
 0001:00056610       _sqlite3SrcListEnlarge     10057610 f   sqlite3:sqlite3.obj
 0001:00056770       _sqlite3SrcListAppend      10057770 f   sqlite3:sqlite3.obj
 0001:00056820       _sqlite3SrcListAssignCursors 10057820 f   sqlite3:sqlite3.obj
 0001:00056870       _sqlite3SrcListDelete      10057870 f   sqlite3:sqlite3.obj
 0001:000569a0       _sqlite3SrcListAppendFromTerm 100579a0 f   sqlite3:sqlite3.obj
 0001:00056a90       _sqlite3SrcListIndexedBy   10057a90 f   sqlite3:sqlite3.obj
 0001:00056ad0       _sqlite3SrcListFuncArgs    10057ad0 f   sqlite3:sqlite3.obj
 0001:00056b00       _sqlite3SrcListShiftJoinType 10057b00 f   sqlite3:sqlite3.obj
 0001:00056b30       _sqlite3BeginTransaction   10057b30 f   sqlite3:sqlite3.obj
 0001:00056ca0       _sqlite3EndTransaction     10057ca0 f   sqlite3:sqlite3.obj
 0001:00056d10       _sqlite3Savepoint          10057d10 f   sqlite3:sqlite3.obj
 0001:00056de0       _sqlite3OpenTempDatabase   10057de0 f   sqlite3:sqlite3.obj
 0001:00056ed0       _sqlite3CodeVerifySchema   10057ed0 f   sqlite3:sqlite3.obj
 0001:00056f10       _sqlite3CodeVerifyNamedSchema 10057f10 f   sqlite3:sqlite3.obj
 0001:00056fb0       _sqlite3BeginWriteOperation 10057fb0 f   sqlite3:sqlite3.obj
 0001:00057010       _sqlite3HaltConstraint     10058010 f   sqlite3:sqlite3.obj
 0001:00057090       _sqlite3UniqueConstraint   10058090 f   sqlite3:sqlite3.obj
 0001:00057270       _sqlite3RowidConstraint    10058270 f   sqlite3:sqlite3.obj
 0001:000572e0       _collationMatch            100582e0 f   sqlite3:sqlite3.obj
 0001:00057360       _reindexTable              10058360 f   sqlite3:sqlite3.obj
 0001:00057430       _reindexDatabases          10058430 f   sqlite3:sqlite3.obj
 0001:000574a0       _sqlite3Reindex            100584a0 f   sqlite3:sqlite3.obj
 0001:00057600       _sqlite3KeyInfoOfIndex     10058600 f   sqlite3:sqlite3.obj
 0001:000576c0       _sqlite3WithAdd            100586c0 f   sqlite3:sqlite3.obj
 0001:000578a0       _sqlite3WithDelete         100588a0 f   sqlite3:sqlite3.obj
 0001:00057900       _callCollNeeded            10058900 f   sqlite3:sqlite3.obj
 0001:00057a50       _synthCollSeq              10058a50 f   sqlite3:sqlite3.obj
 0001:00057ac0       _sqlite3GetCollSeq         10058ac0 f   sqlite3:sqlite3.obj
 0001:00057b90       _findCollSeqEntry          10058b90 f   sqlite3:sqlite3.obj
 0001:00057c70       _sqlite3FindCollSeq        10058c70 f   sqlite3:sqlite3.obj
 0001:00057cb0       _sqlite3FunctionSearch     10058cb0 f   sqlite3:sqlite3.obj
 0001:00057d10       _sqlite3InsertBuiltinFuncs 10058d10 f   sqlite3:sqlite3.obj
 0001:00057d90       _sqlite3FindFunction       10058d90 f   sqlite3:sqlite3.obj
 0001:00058030       _sqlite3SchemaClear        10059030 f   sqlite3:sqlite3.obj
 0001:00058170       _sqlite3SchemaGet          10059170 f   sqlite3:sqlite3.obj
 0001:000582b0       _sqlite3SrcListLookup      100592b0 f   sqlite3:sqlite3.obj
 0001:00058310       _tabIsReadOnly             10059310 f   sqlite3:sqlite3.obj
 0001:00058390       _sqlite3IsReadOnly         10059390 f   sqlite3:sqlite3.obj
 0001:000583e0       _sqlite3MaterializeView    100593e0 f   sqlite3:sqlite3.obj
 0001:000585c0       _sqlite3LimitWhere         100595c0 f   sqlite3:sqlite3.obj
 0001:00058950       _sqlite3DeleteFrom         10059950 f   sqlite3:sqlite3.obj
 0001:00059330       _sqlite3GenerateRowDelete  1005a330 f   sqlite3:sqlite3.obj
 0001:00059740       _sqlite3GenerateRowIndexDelete 1005a740 f   sqlite3:sqlite3.obj
 0001:000598c0       _sqlite3GenerateIndexKey   1005a8c0 f   sqlite3:sqlite3.obj
 0001:00059b60       _minmaxFunc                1005ab60 f   sqlite3:sqlite3.obj
 0001:00059c30       _typeofFunc                1005ac30 f   sqlite3:sqlite3.obj
 0001:00059c80       _lengthFunc                1005ac80 f   sqlite3:sqlite3.obj
 0001:00059d88       $LN45                      1005ad88     sqlite3:sqlite3.obj
 0001:00059da0       _absFunc                   1005ada0 f   sqlite3:sqlite3.obj
 0001:00059f00       _instrFunc                 1005af00 f   sqlite3:sqlite3.obj
 0001:0005a100       _printfFunc                1005b100 f   sqlite3:sqlite3.obj
 0001:0005a230       _substrFunc                1005b230 f   sqlite3:sqlite3.obj
 0001:0005a640       _roundFunc                 1005b640 f   sqlite3:sqlite3.obj
 0001:0005a7e0       _contextMalloc             1005b7e0 f   sqlite3:sqlite3.obj
 0001:0005a880       _upperFunc                 1005b880 f   sqlite3:sqlite3.obj
 0001:0005a990       _lowerFunc                 1005b990 f   sqlite3:sqlite3.obj
 0001:0005aaa0       _randomFunc                1005baa0 f   sqlite3:sqlite3.obj
 0001:0005ab10       _randomBlob                1005bb10 f   sqlite3:sqlite3.obj
 0001:0005abd0       _last_insert_rowid         1005bbd0 f   sqlite3:sqlite3.obj
 0001:0005ac20       _changes                   1005bc20 f   sqlite3:sqlite3.obj
 0001:0005ac70       _total_changes             1005bc70 f   sqlite3:sqlite3.obj
 0001:0005acc0       _patternCompare            1005bcc0 f   sqlite3:sqlite3.obj
 0001:0005b0b0       _likeFunc                  1005c0b0 f   sqlite3:sqlite3.obj
 0001:0005b2a0       _nullifFunc                1005c2a0 f   sqlite3:sqlite3.obj
 0001:0005b2e0       _versionFunc               1005c2e0 f   sqlite3:sqlite3.obj
 0001:0005b320       _sourceidFunc              1005c320 f   sqlite3:sqlite3.obj
 0001:0005b360       _errlogFunc                1005c360 f   sqlite3:sqlite3.obj
 0001:0005b400       _compileoptionusedFunc     1005c400 f   sqlite3:sqlite3.obj
 0001:0005b480       _compileoptiongetFunc      1005c480 f   sqlite3:sqlite3.obj
 0001:0005b510       _quoteFunc                 1005c510 f   sqlite3:sqlite3.obj
 0001:0005b7d0       $LN77                      1005c7d0     sqlite3:sqlite3.obj
 0001:0005b7e0       _unicodeFunc               1005c7e0 f   sqlite3:sqlite3.obj
 0001:0005b870       _charFunc                  1005c870 f   sqlite3:sqlite3.obj
 0001:0005bab0       _hexFunc                   1005cab0 f   sqlite3:sqlite3.obj
 0001:0005bba0       _zeroblobFunc              1005cba0 f   sqlite3:sqlite3.obj
 0001:0005bc20       _replaceFunc               1005cc20 f   sqlite3:sqlite3.obj
 0001:0005bfb0       _trimFunc                  1005cfb0 f   sqlite3:sqlite3.obj
 0001:0005c350       _soundexFunc               1005d350 f   sqlite3:sqlite3.obj
 0001:0005c500       _loadExt                   1005d500 f   sqlite3:sqlite3.obj
 0001:0005c630       _sumStep                   1005d630 f   sqlite3:sqlite3.obj
 0001:0005c6e0       _sumInverse                1005d6e0 f   sqlite3:sqlite3.obj
 0001:0005c780       _sumFinalize               1005d780 f   sqlite3:sqlite3.obj
 0001:0005c820       _avgFinalize               1005d820 f   sqlite3:sqlite3.obj
 0001:0005c890       _totalFinalize             1005d890 f   sqlite3:sqlite3.obj
 0001:0005c930       _countStep                 1005d930 f   sqlite3:sqlite3.obj
 0001:0005c980       _countFinalize             1005d980 f   sqlite3:sqlite3.obj
 0001:0005ca00       _countInverse              1005da00 f   sqlite3:sqlite3.obj
 0001:0005ca50       _minmaxStep                1005da50 f   sqlite3:sqlite3.obj
 0001:0005cb20       _minMaxValue               1005db20 f   sqlite3:sqlite3.obj
 0001:0005cb60       _minMaxFinalize            1005db60 f   sqlite3:sqlite3.obj
 0001:0005cbc0       _groupConcatStep           1005dbc0 f   sqlite3:sqlite3.obj
 0001:0005cce0       _groupConcatInverse        1005dce0 f   sqlite3:sqlite3.obj
 0001:0005cdb0       _groupConcatFinalize       1005ddb0 f   sqlite3:sqlite3.obj
 0001:0005ce50       _groupConcatValue          1005de50 f   sqlite3:sqlite3.obj
 0001:0005cee0       _sqlite3RegisterPerConnectionBuiltinFunctions 1005dee0 f   sqlite3:sqlite3.obj
 0001:0005cf80       _sqlite3RegisterLikeFunctions 1005df80 f   sqlite3:sqlite3.obj
 0001:0005d020       _sqlite3IsLikeFunction     1005e020 f   sqlite3:sqlite3.obj
 0001:0005d0b0       _sqlite3RegisterBuiltinFunctions 1005e0b0 f   sqlite3:sqlite3.obj
 0001:0005d100       _sqlite3FkLocateIndex      1005e100 f   sqlite3:sqlite3.obj
 0001:0005d340       _fkLookupParent            1005e340 f   sqlite3:sqlite3.obj
 0001:0005dc20       _exprTableRegister         1005ec20 f   sqlite3:sqlite3.obj
 0001:0005dcc0       _fkScanChildren            1005ecc0 f   sqlite3:sqlite3.obj
 0001:0005e130       _sqlite3FkDropTable        1005f130 f   sqlite3:sqlite3.obj
 0001:0005e330       _fkParentIsModified        1005f330 f   sqlite3:sqlite3.obj
 0001:0005e420       _sqlite3FkCheck            1005f420 f   sqlite3:sqlite3.obj
 0001:0005ea00       _sqlite3FkOldmask          1005fa00 f   sqlite3:sqlite3.obj
 0001:0005eaf0       _sqlite3FkRequired         1005faf0 f   sqlite3:sqlite3.obj
 0001:0005ec30       _fkActionTrigger           1005fc30 f   sqlite3:sqlite3.obj
 0001:0005f2a0       _sqlite3FkActions          100602a0 f   sqlite3:sqlite3.obj
 0001:0005f330       _sqlite3FkDelete           10060330 f   sqlite3:sqlite3.obj
 0001:0005f430       _sqlite3OpenTable          10060430 f   sqlite3:sqlite3.obj
 0001:0005f570       _sqlite3IndexAffinityStr   10060570 f   sqlite3:sqlite3.obj
 0001:0005f690       _sqlite3TableAffinity      10060690 f   sqlite3:sqlite3.obj
 0001:0005f7d0       _readsTable                100607d0 f   sqlite3:sqlite3.obj
 0001:0005f8c0       _autoIncBegin              100608c0 f   sqlite3:sqlite3.obj
 0001:0005f980       _sqlite3AutoincrementBegin 10060980 f   sqlite3:sqlite3.obj
 0001:0005fac0       _autoIncStep               10060ac0 f   sqlite3:sqlite3.obj
 0001:0005fb30       _autoIncrementEnd          10060b30 f   sqlite3:sqlite3.obj
 0001:0005fc80       _sqlite3Insert             10060c80 f   sqlite3:sqlite3.obj
 0001:00061040       _checkConstraintExprNode   10062040 f   sqlite3:sqlite3.obj
 0001:00061080       _sqlite3GenerateConstraintChecks 10062080 f   sqlite3:sqlite3.obj
 0001:000626c8       $LN456                     100636c8     sqlite3:sqlite3.obj
 0001:000626dc       $LN457                     100636dc     sqlite3:sqlite3.obj
 0001:000626f4       $LN458                     100636f4     sqlite3:sqlite3.obj
 0001:00062710       _sqlite3CompleteInsertion  10063710 f   sqlite3:sqlite3.obj
 0001:000629c0       _sqlite3OpenTableAndIndices 100639c0 f   sqlite3:sqlite3.obj
 0001:00062bf0       _xferCompatibleIndex       10063bf0 f   sqlite3:sqlite3.obj
 0001:00062cc0       _xferOptimization          10063cc0 f   sqlite3:sqlite3.obj
 0001:00063870       _sqlite3LoadExtension      10064870 f   sqlite3:sqlite3.obj
 0001:00063ef0       _sqlite3AutoLoadExtensions 10064ef0 f   sqlite3:sqlite3.obj
 0001:00063fb0       _getSafetyLevel            10064fb0 f   sqlite3:sqlite3.obj
 0001:00064060       _sqlite3GetBoolean         10065060 f   sqlite3:sqlite3.obj
 0001:00064080       _getLockingMode            10065080 f   sqlite3:sqlite3.obj
 0001:000640c0       _getAutoVacuum             100650c0 f   sqlite3:sqlite3.obj
 0001:00064170       _invalidateTempStorage     10065170 f   sqlite3:sqlite3.obj
 0001:000641c0       _changeTempStorage         100651c0 f   sqlite3:sqlite3.obj
 0001:00064260       _setPragmaResultColumnNames 10065260 f   sqlite3:sqlite3.obj
 0001:000642f0       _returnSingleInt           100652f0 f   sqlite3:sqlite3.obj
 0001:00064390       _returnSingleText          10065390 f   sqlite3:sqlite3.obj
 0001:00064410       _setAllPagerFlags          10065410 f   sqlite3:sqlite3.obj
 0001:00064460       _pragmaLocate              10065460 f   sqlite3:sqlite3.obj
 0001:000644d0       _integrityCheckResultRow   100654d0 f   sqlite3:sqlite3.obj
 0001:000645f0       _sqlite3Pragma             100655f0 f   sqlite3:sqlite3.obj
 0001:00066b64       $LN880                     10067b64     sqlite3:sqlite3.obj
 0001:00066c04       $LN881                     10067c04     sqlite3:sqlite3.obj
 0001:00066c14       $LN882                     10067c14     sqlite3:sqlite3.obj
 0001:00066c30       _pragmaVtabConnect         10067c30 f   sqlite3:sqlite3.obj
 0001:00066ea0       _fts5VocabDisconnectMethod 10067ea0 f   sqlite3:sqlite3.obj
 0001:00066ea0       _jsonEachDisconnect        10067ea0 f   sqlite3:sqlite3.obj
 0001:00066ea0       _simpleDestroy             10067ea0 f   sqlite3:sqlite3.obj
 0001:00066ea0       _fts5VocabDestroyMethod    10067ea0 f   sqlite3:sqlite3.obj
 0001:00066ea0       _porterDestroy             10067ea0 f   sqlite3:sqlite3.obj
 0001:00066ea0       _pragmaVtabDisconnect      10067ea0 f   sqlite3:sqlite3.obj
 0001:00066ee0       _pragmaVtabBestIndex       10067ee0 f   sqlite3:sqlite3.obj
 0001:00066fd0       _pragmaVtabOpen            10067fd0 f   sqlite3:sqlite3.obj
 0001:00067020       _pragmaVtabCursorClear     10068020 f   sqlite3:sqlite3.obj
 0001:00067090       _pragmaVtabClose           10068090 f   sqlite3:sqlite3.obj
 0001:000670e0       _pragmaVtabNext            100680e0 f   sqlite3:sqlite3.obj
 0001:00067130       _pragmaVtabFilter          10068130 f   sqlite3:sqlite3.obj
 0001:00067370       _pragmaVtabEof             10068370 f   sqlite3:sqlite3.obj
 0001:00067380       _pragmaVtabColumn          10068380 f   sqlite3:sqlite3.obj
 0001:000673f0       _pragmaVtabRowid           100683f0 f   sqlite3:sqlite3.obj
 0001:00067410       _corruptSchema             10068410 f   sqlite3:sqlite3.obj
 0001:000674d0       _sqlite3IndexHasDuplicateRootPage 100684d0 f   sqlite3:sqlite3.obj
 0001:00067500       _sqlite3InitCallback       10068500 f   sqlite3:sqlite3.obj
 0001:000676e0       _sqlite3InitOne            100686e0 f   sqlite3:sqlite3.obj
 0001:00067aa0       _sqlite3Init               10068aa0 f   sqlite3:sqlite3.obj
 0001:00067b30       _sqlite3ReadSchema         10068b30 f   sqlite3:sqlite3.obj
 0001:00067b80       _schemaIsValid             10068b80 f   sqlite3:sqlite3.obj
 0001:00067c80       _sqlite3SchemaToIndex      10068c80 f   sqlite3:sqlite3.obj
 0001:00067cb0       _sqlite3ParserReset        10068cb0 f   sqlite3:sqlite3.obj
 0001:00067cf0       _sqlite3Prepare            10068cf0 f   sqlite3:sqlite3.obj
 0001:00068170       _sqlite3LockAndPrepare     10069170 f   sqlite3:sqlite3.obj
 0001:00068270       _sqlite3Reprepare          10069270 f   sqlite3:sqlite3.obj
 0001:000683b0       _sqlite3Prepare16          100693b0 f   sqlite3:sqlite3.obj
 0001:00068540       _clearSelect               10069540 f   sqlite3:sqlite3.obj
 0001:00068640       _sqlite3SelectNew          10069640 f   sqlite3:sqlite3.obj
 0001:000687d0       _sqlite3SelectDelete       100697d0 f   sqlite3:sqlite3.obj
 0001:000687f0       _sqlite3JoinType           100697f0 f   sqlite3:sqlite3.obj
 0001:00068950       _columnIndex               10069950 f   sqlite3:sqlite3.obj
 0001:000689c0       _setJoinExpr               100699c0 f   sqlite3:sqlite3.obj
 0001:00068a20       _unsetJoinExpr             10069a20 f   sqlite3:sqlite3.obj
 0001:00068a90       _sqliteProcessJoin         10069a90 f   sqlite3:sqlite3.obj
 0001:00068db0       _makeSorterRecord          10069db0 f   sqlite3:sqlite3.obj
 0001:00068e40       _pushOntoSorter            10069e40 f   sqlite3:sqlite3.obj
 0001:00069330       _codeOffset                1006a330 f   sqlite3:sqlite3.obj
 0001:000693a0       _codeDistinct              1006a3a0 f   sqlite3:sqlite3.obj
 0001:00069490       _selectInnerLoop           1006a490 f   sqlite3:sqlite3.obj
 0001:0006a0e8       $LN254                     1006b0e8     sqlite3:sqlite3.obj
 0001:0006a120       _sqlite3KeyInfoAlloc       1006b120 f   sqlite3:sqlite3.obj
 0001:0006a1d0       _sqlite3KeyInfoUnref       1006b1d0 f   sqlite3:sqlite3.obj
 0001:0006a1f0       _sqlite3KeyInfoFromExprList 1006b1f0 f   sqlite3:sqlite3.obj
 0001:0006a280       _selectOpName              1006b280 f   sqlite3:sqlite3.obj
 0001:0006a2b0       _generateSortTail          1006b2b0 f   sqlite3:sqlite3.obj
 0001:0006ab98       $LN176                     1006bb98     sqlite3:sqlite3.obj
 0001:0006abb0       _columnTypeImpl            1006bbb0 f   sqlite3:sqlite3.obj
 0001:0006ada0       _generateColumnTypes       1006bda0 f   sqlite3:sqlite3.obj
 0001:0006aee0       _generateColumnNames       1006bee0 f   sqlite3:sqlite3.obj
 0001:0006b080       _sqlite3ColumnsFromExprList 1006c080 f   sqlite3:sqlite3.obj
 0001:0006b380       _sqlite3SelectAddColumnTypeAndCollation 1006c380 f   sqlite3:sqlite3.obj
 0001:0006b540       _sqlite3ResultSetOfSelect  1006c540 f   sqlite3:sqlite3.obj
 0001:0006b630       _sqlite3GetVdbe            1006c630 f   sqlite3:sqlite3.obj
 0001:0006b650       _computeLimitRegisters     1006c650 f   sqlite3:sqlite3.obj
 0001:0006b790       _multiSelectCollSeq        1006c790 f   sqlite3:sqlite3.obj
 0001:0006b7d0       _multiSelectOrderByKeyInfo 1006c7d0 f   sqlite3:sqlite3.obj
 0001:0006b930       _generateWithRecursiveQuery 1006c930 f   sqlite3:sqlite3.obj
 0001:0006bfc0       _multiSelectValues         1006cfc0 f   sqlite3:sqlite3.obj
 0001:0006c050       _multiSelect               1006d050 f   sqlite3:sqlite3.obj
 0001:0006c8b0       _sqlite3SelectWrongNumTermsError 1006d8b0 f   sqlite3:sqlite3.obj
 0001:0006c940       _generateOutputSubroutine  1006d940 f   sqlite3:sqlite3.obj
 0001:0006cd7c       $LN70                      1006dd7c     sqlite3:sqlite3.obj
 0001:0006cd90       _multiSelectOrderBy        1006dd90 f   sqlite3:sqlite3.obj
 0001:0006ddf0       _substExpr                 1006edf0 f   sqlite3:sqlite3.obj
 0001:0006df80       _substExprList             1006ef80 f   sqlite3:sqlite3.obj
 0001:0006dfc0       _substSelect               1006efc0 f   sqlite3:sqlite3.obj
 0001:0006e120       _flattenSubquery           1006f120 f   sqlite3:sqlite3.obj
 0001:0006e6d0       _constInsert               1006f6d0 f   sqlite3:sqlite3.obj
 0001:0006e7c0       _findConstInWhere          1006f7c0 f   sqlite3:sqlite3.obj
 0001:0006e890       _propagateConstantExprRewrite 1006f890 f   sqlite3:sqlite3.obj
 0001:0006e950       _propagateConstants        1006f950 f   sqlite3:sqlite3.obj
 0001:0006ea10       _pushDownWhereTerms        1006fa10 f   sqlite3:sqlite3.obj
 0001:0006eb40       _minMaxQuery               1006fb40 f   sqlite3:sqlite3.obj
 0001:0006ebc0       _sqlite3IndexedByLookup    1006fbc0 f   sqlite3:sqlite3.obj
 0001:0006ec50       _convertCompoundSelectToSubquery 1006fc50 f   sqlite3:sqlite3.obj
 0001:0006eeb0       _searchWith                1006feb0 f   sqlite3:sqlite3.obj
 0001:0006ef50       _withExpand                1006ff50 f   sqlite3:sqlite3.obj
 0001:0006f200       _selectPopWith             10070200 f   sqlite3:sqlite3.obj
 0001:0006f240       _sqlite3ExpandSubquery     10070240 f   sqlite3:sqlite3.obj
 0001:0006f330       _selectExpander            10070330 f   sqlite3:sqlite3.obj
 0001:0006fc50       _sqlite3SelectExpand       10070c50 f   sqlite3:sqlite3.obj
 0001:0006fcb0       _selectAddSubqueryTypeInfo 10070cb0 f   sqlite3:sqlite3.obj
 0001:0006fd20       _sqlite3SelectPrep         10070d20 f   sqlite3:sqlite3.obj
 0001:0006fda0       _resetAccumulator          10070da0 f   sqlite3:sqlite3.obj
 0001:0006fe90       _finalizeAggFunctions      10070e90 f   sqlite3:sqlite3.obj
 0001:0006ff60       _updateAccumulator         10070f60 f   sqlite3:sqlite3.obj
 0001:00070330       _havingToWhereExprCb       10071330 f   sqlite3:sqlite3.obj
 0001:00070400       _isSelfJoinView            10071400 f   sqlite3:sqlite3.obj
 0001:000704a0       _sqlite3Select             100714a0 f   sqlite3:sqlite3.obj
 0001:00072740       _sqlite3DeleteTriggerStep  10073740 f   sqlite3:sqlite3.obj
 0001:00072850       _sqlite3TriggerList        10073850 f   sqlite3:sqlite3.obj
 0001:000728c0       _sqlite3BeginTrigger       100738c0 f   sqlite3:sqlite3.obj
 0001:00072d00       _sqlite3FinishTrigger      10073d00 f   sqlite3:sqlite3.obj
 0001:00072fa0       _triggerSpanDup            10073fa0 f   sqlite3:sqlite3.obj
 0001:00072fe0       _sqlite3TriggerSelectStep  10073fe0 f   sqlite3:sqlite3.obj
 0001:00073050       _triggerStepAllocate       10074050 f   sqlite3:sqlite3.obj
 0001:00073120       _sqlite3TriggerInsertStep  10074120 f   sqlite3:sqlite3.obj
 0001:000731f0       _sqlite3TriggerUpdateStep  100741f0 f   sqlite3:sqlite3.obj
 0001:000732c0       _sqlite3TriggerDeleteStep  100742c0 f   sqlite3:sqlite3.obj
 0001:00073340       _sqlite3DropTrigger        10074340 f   sqlite3:sqlite3.obj
 0001:00073440       _sqlite3DropTriggerPtr     10074440 f   sqlite3:sqlite3.obj
 0001:00073560       _sqlite3UnlinkAndDeleteTrigger 10074560 f   sqlite3:sqlite3.obj
 0001:00073640       _sqlite3TriggersExist      10074640 f   sqlite3:sqlite3.obj
 0001:00073700       _targetSrcList             10074700 f   sqlite3:sqlite3.obj
 0001:00073850       _codeTriggerProgram        10074850 f   sqlite3:sqlite3.obj
 0001:00073b80       _codeRowTrigger            10074b80 f   sqlite3:sqlite3.obj
 0001:00073ed0       _getRowTrigger             10074ed0 f   sqlite3:sqlite3.obj
 0001:00073f20       _sqlite3CodeRowTriggerDirect 10074f20 f   sqlite3:sqlite3.obj
 0001:00074000       _sqlite3CodeRowTrigger     10075000 f   sqlite3:sqlite3.obj
 0001:00074090       _sqlite3TriggerColmask     10075090 f   sqlite3:sqlite3.obj
 0001:00074150       _sqlite3ColumnDefault      10075150 f   sqlite3:sqlite3.obj
 0001:00074240       _indexColumnIsBeingUpdated 10075240 f   sqlite3:sqlite3.obj
 0001:000742d0       _sqlite3Update             100752d0 f   sqlite3:sqlite3.obj
 0001:00075db0       _updateVirtualTable        10076db0 f   sqlite3:sqlite3.obj
 0001:000765e0       _sqlite3UpsertNew          100775e0 f   sqlite3:sqlite3.obj
 0001:000766a0       _sqlite3UpsertAnalyzeTarget 100776a0 f   sqlite3:sqlite3.obj
 0001:000768f0       _sqlite3UpsertDoUpdate     100778f0 f   sqlite3:sqlite3.obj
 0001:00076b90       _execSql                   10077b90 f   sqlite3:sqlite3.obj
 0001:00076c70       _execSqlF                  10077c70 f   sqlite3:sqlite3.obj
 0001:00076cc0       _sqlite3Vacuum             10077cc0 f   sqlite3:sqlite3.obj
 0001:00076da0       _sqlite3RunVacuum          10077da0 f   sqlite3:sqlite3.obj
 0001:00077280       _sqlite3VtabCreateModule   10078280 f   sqlite3:sqlite3.obj
 0001:000773f0       _createModule              100783f0 f   sqlite3:sqlite3.obj
 0001:00077520       _sqlite3VtabUnlock         10078520 f   sqlite3:sqlite3.obj
 0001:00077550       _vtabDisconnectAll         10078550 f   sqlite3:sqlite3.obj
 0001:000775a0       _sqlite3VtabUnlockList     100785a0 f   sqlite3:sqlite3.obj
 0001:00077610       _sqlite3VtabClear          10078610 f   sqlite3:sqlite3.obj
 0001:00077670       _addModuleArgument         10078670 f   sqlite3:sqlite3.obj
 0001:00077720       _sqlite3VtabBeginParse     10078720 f   sqlite3:sqlite3.obj
 0001:00077830       _addArgumentToVtab         10078830 f   sqlite3:sqlite3.obj
 0001:000778a0       _sqlite3VtabFinishParse    100788a0 f   sqlite3:sqlite3.obj
 0001:00077a30       _vtabCallConstructor       10078a30 f   sqlite3:sqlite3.obj
 0001:00077f20       _sqlite3VtabCallConnect    10078f20 f   sqlite3:sqlite3.obj
 0001:00077ff0       _sqlite3VtabCallCreate     10078ff0 f   sqlite3:sqlite3.obj
 0001:00078360       _sqlite3VtabCallDestroy    10079360 f   sqlite3:sqlite3.obj
 0001:00078430       _callFinaliser             10079430 f   sqlite3:sqlite3.obj
 0001:000784e0       _sqlite3VtabSync           100794e0 f   sqlite3:sqlite3.obj
 0001:00078550       _sqlite3VtabBegin          10079550 f   sqlite3:sqlite3.obj
 0001:00078670       _sqlite3VtabSavepoint      10079670 f   sqlite3:sqlite3.obj
 0001:00078740       _sqlite3VtabOverloadFunction 10079740 f   sqlite3:sqlite3.obj
 0001:00078830       _sqlite3VtabMakeWritable   10079830 f   sqlite3:sqlite3.obj
 0001:000788e0       _sqlite3VtabEponymousTableInit 100798e0 f   sqlite3:sqlite3.obj
 0001:00078a10       _sqlite3VtabEponymousTableClear 10079a10 f   sqlite3:sqlite3.obj
 0001:00078ac0       _explainAppendTerm         10079ac0 f   sqlite3:sqlite3.obj
 0001:00078c10       _explainIndexRange         10079c10 f   sqlite3:sqlite3.obj
 0001:00078d40       _sqlite3WhereExplainOneScan 10079d40 f   sqlite3:sqlite3.obj
 0001:00078ff0       _disableTerm               10079ff0 f   sqlite3:sqlite3.obj
 0001:00079060       _codeApplyAffinity         1007a060 f   sqlite3:sqlite3.obj
 0001:000790b0       _updateRangeAffinityStr    1007a0b0 f   sqlite3:sqlite3.obj
 0001:00079180       _removeUnindexableInClauseTerms 1007a180 f   sqlite3:sqlite3.obj
 0001:00079300       _codeEqualityTerm          1007a300 f   sqlite3:sqlite3.obj
 0001:00079870       _codeAllEqualityTerms      1007a870 f   sqlite3:sqlite3.obj
 0001:00079c80       _codeDeferredSeek          1007ac80 f   sqlite3:sqlite3.obj
 0001:00079de0       _codeExprOrVector          1007ade0 f   sqlite3:sqlite3.obj
 0001:00079e90       _whereIndexExprTransNode   1007ae90 f   sqlite3:sqlite3.obj
 0001:00079ee0       _whereIndexExprTrans       1007aee0 f   sqlite3:sqlite3.obj
 0001:00079ff0       _whereApplyPartialIndexConstraints 1007aff0 f   sqlite3:sqlite3.obj
 0001:0007a070       _sqlite3WhereCodeOneLoopStart 1007b070 f   sqlite3:sqlite3.obj
 0001:0007c0c0       _whereClauseInsert         1007d0c0 f   sqlite3:sqlite3.obj
 0001:0007c230       _exprCommute               1007d230 f   sqlite3:sqlite3.obj
 0001:0007c2a0       _operatorMask              1007d2a0 f   sqlite3:sqlite3.obj
 0001:0007c2d0       _isLikeOrGlob              1007d2d0 f   sqlite3:sqlite3.obj
 0001:0007c620       _isAuxiliaryVtabOperator   1007d620 f   sqlite3:sqlite3.obj
 0001:0007c7a0       _markTermAsChild           1007d7a0 f   sqlite3:sqlite3.obj
 0001:0007c7d0       _whereCombineDisjuncts     1007d7d0 f   sqlite3:sqlite3.obj
 0001:0007c8e0       _exprAnalyzeOrTerm         1007d8e0 f   sqlite3:sqlite3.obj
 0001:0007cfd0       _termIsEquivalence         1007dfd0 f   sqlite3:sqlite3.obj
 0001:0007d050       _exprSelectUsage           1007e050 f   sqlite3:sqlite3.obj
 0001:0007d170       _exprMightBeIndexed2       1007e170 f   sqlite3:sqlite3.obj
 0001:0007d220       _exprMightBeIndexed        1007e220 f   sqlite3:sqlite3.obj
 0001:0007d2a0       _exprAnalyze               1007e2a0 f   sqlite3:sqlite3.obj
 0001:0007dfb0       _sqlite3WhereSplit         1007efb0 f   sqlite3:sqlite3.obj
 0001:0007e020       _sqlite3WhereClauseClear   1007f020 f   sqlite3:sqlite3.obj
 0001:0007e0b0       _sqlite3WhereExprUsageNN   1007f0b0 f   sqlite3:sqlite3.obj
 0001:0007e1a0       _sqlite3WhereExprUsage     1007f1a0 f   sqlite3:sqlite3.obj
 0001:0007e1d0       _sqlite3WhereExprListUsage 1007f1d0 f   sqlite3:sqlite3.obj
 0001:0007e240       _sqlite3WhereExprAnalyze   1007f240 f   sqlite3:sqlite3.obj
 0001:0007e270       _sqlite3WhereTabFuncArgs   1007f270 f   sqlite3:sqlite3.obj
 0001:0007e3d0       _whereOrInsert             1007f3d0 f   sqlite3:sqlite3.obj
 0001:0007e4f0       _sqlite3WhereGetMask       1007f4f0 f   sqlite3:sqlite3.obj
 0001:0007e530       _whereScanNext             1007f530 f   sqlite3:sqlite3.obj
 0001:0007e7e0       _whereScanInitIndexExpr    1007f7e0 f   sqlite3:sqlite3.obj
 0001:0007e800       _whereScanInit             1007f800 f   sqlite3:sqlite3.obj
 0001:0007e8e0       _sqlite3WhereFindTerm      1007f8e0 f   sqlite3:sqlite3.obj
 0001:0007e980       _findIndexCol              1007f980 f   sqlite3:sqlite3.obj
 0001:0007ea60       _isDistinctRedundant       1007fa60 f   sqlite3:sqlite3.obj
 0001:0007eb80       _translateColumnToCopy     1007fb80 f   sqlite3:sqlite3.obj
 0001:0007ec20       _termCanDriveIndex         1007fc20 f   sqlite3:sqlite3.obj
 0001:0007ecb0       _constructAutomaticIndex   1007fcb0 f   sqlite3:sqlite3.obj
 0001:0007f780       _allocateIndexInfo         10080780 f   sqlite3:sqlite3.obj
 0001:0007fa10       _vtabBestIndex             10080a10 f   sqlite3:sqlite3.obj
 0001:0007fad0       _whereKeyStats             10080ad0 f   sqlite3:sqlite3.obj
 0001:0007fd10       _whereRangeSkipScanEst     10080d10 f   sqlite3:sqlite3.obj
 0001:0007ff90       _whereRangeScanEst         10080f90 f   sqlite3:sqlite3.obj
 0001:000802f0       _whereEqualScanEst         100812f0 f   sqlite3:sqlite3.obj
 0001:000803a0       _whereInScanEst            100813a0 f   sqlite3:sqlite3.obj
 0001:000804a0       _whereLoopInit             100814a0 f   sqlite3:sqlite3.obj
 0001:000804c0       _whereLoopClearUnion       100814c0 f   sqlite3:sqlite3.obj
 0001:00080530       _whereLoopResize           10081530 f   sqlite3:sqlite3.obj
 0001:000805a0       _whereLoopXfer             100815a0 f   sqlite3:sqlite3.obj
 0001:00080640       _whereInfoFree             10081640 f   sqlite3:sqlite3.obj
 0001:00080760       _whereLoopCheaperProperSubset 10081760 f   sqlite3:sqlite3.obj
 0001:00080810       _whereLoopAdjustCost       10081810 f   sqlite3:sqlite3.obj
 0001:00080880       _whereLoopFindLesser       10081880 f   sqlite3:sqlite3.obj
 0001:00080960       _whereLoopInsert           10081960 f   sqlite3:sqlite3.obj
 0001:00080ad0       _whereLoopOutputAdjust     10081ad0 f   sqlite3:sqlite3.obj
 0001:00080c10       _whereRangeVectorLen       10081c10 f   sqlite3:sqlite3.obj
 0001:00080db0       _whereLoopAddBtreeIndex    10081db0 f   sqlite3:sqlite3.obj
 0001:000815c0       _indexMightHelpWithOrderBy 100825c0 f   sqlite3:sqlite3.obj
 0001:000816e0       _whereUsablePartialIndex   100826e0 f   sqlite3:sqlite3.obj
 0001:00081790       _whereLoopAddBtree         10082790 f   sqlite3:sqlite3.obj
 0001:00081d30       _whereLoopAddVirtualOne    10082d30 f   sqlite3:sqlite3.obj
 0001:00082190       _whereLoopAddVirtual       10083190 f   sqlite3:sqlite3.obj
 0001:00082500       _whereLoopAddOr            10083500 f   sqlite3:sqlite3.obj
 0001:00082a20       _whereLoopAddAll           10083a20 f   sqlite3:sqlite3.obj
 0001:00082cd0       _wherePathSatisfiesOrderBy 10083cd0 f   sqlite3:sqlite3.obj
 0001:00083500       _wherePathSolver           10084500 f   sqlite3:sqlite3.obj
 0001:00083e60       _whereShortCut             10084e60 f   sqlite3:sqlite3.obj
 0001:00084010       _exprNodeIsDeterministic   10085010 f   sqlite3:sqlite3.obj
 0001:00084040       _sqlite3WhereBegin         10085040 f   sqlite3:sqlite3.obj
 0001:00084b40       _sqlite3WhereEnd           10085b40 f   sqlite3:sqlite3.obj
 0001:00085380       _row_numberStepFunc        10086380 f   sqlite3:sqlite3.obj
 0001:000853b0       _row_numberValueFunc       100863b0 f   sqlite3:sqlite3.obj
 0001:00085430       _dense_rankStepFunc        10086430 f   sqlite3:sqlite3.obj
 0001:00085470       _dense_rankValueFunc       10086470 f   sqlite3:sqlite3.obj
 0001:00085500       _nth_valueStepFunc         10086500 f   sqlite3:sqlite3.obj
 0001:00085600       _nth_valueFinalizeFunc     10086600 f   sqlite3:sqlite3.obj
 0001:00085670       _first_valueStepFunc       10086670 f   sqlite3:sqlite3.obj
 0001:000856d0       _first_valueFinalizeFunc   100866d0 f   sqlite3:sqlite3.obj
 0001:00085740       _rankStepFunc              10086740 f   sqlite3:sqlite3.obj
 0001:00085790       _rankValueFunc             10086790 f   sqlite3:sqlite3.obj
 0001:00085820       _cume_distStepFunc         10086820 f   sqlite3:sqlite3.obj
 0001:00085820       _percent_rankStepFunc      10086820 f   sqlite3:sqlite3.obj
 0001:00085850       _cume_distInvFunc          10086850 f   sqlite3:sqlite3.obj
 0001:00085850       _percent_rankInvFunc       10086850 f   sqlite3:sqlite3.obj
 0001:00085890       _percent_rankValueFunc     10086890 f   sqlite3:sqlite3.obj
 0001:00085940       _cume_distValueFunc        10086940 f   sqlite3:sqlite3.obj
 0001:000859b0       _ntileStepFunc             100869b0 f   sqlite3:sqlite3.obj
 0001:00085a70       _ntileInvFunc              10086a70 f   sqlite3:sqlite3.obj
 0001:00085ab0       _ntileValueFunc            10086ab0 f   sqlite3:sqlite3.obj
 0001:00085bd0       _last_valueStepFunc        10086bd0 f   sqlite3:sqlite3.obj
 0001:00085c50       _last_valueInvFunc         10086c50 f   sqlite3:sqlite3.obj
 0001:00085cb0       _last_valueValueFunc       10086cb0 f   sqlite3:sqlite3.obj
 0001:00085cf0       _last_valueFinalizeFunc    10086cf0 f   sqlite3:sqlite3.obj
 0001:00085d60       _windowFind                10086d60 f   sqlite3:sqlite3.obj
 0001:00085dc0       _sqlite3WindowUpdate       10086dc0 f   sqlite3:sqlite3.obj
 0001:000860c0       _selectWindowRewriteExprCb 100870c0 f   sqlite3:sqlite3.obj
 0001:000861c0       _selectWindowRewriteSelectCb 100871c0 f   sqlite3:sqlite3.obj
 0001:000861f0       _selectWindowRewriteEList  100871f0 f   sqlite3:sqlite3.obj
 0001:000862a0       _exprListAppendList        100872a0 f   sqlite3:sqlite3.obj
 0001:00086350       _sqlite3WindowRewrite      10087350 f   sqlite3:sqlite3.obj
 0001:000867b0       _sqlite3WindowDelete       100877b0 f   sqlite3:sqlite3.obj
 0001:00086820       _sqlite3WindowListDelete   10087820 f   sqlite3:sqlite3.obj
 0001:000868a0       _sqlite3WindowOffsetExpr   100878a0 f   sqlite3:sqlite3.obj
 0001:00086970       _sqlite3WindowAlloc        10087970 f   sqlite3:sqlite3.obj
 0001:00086a80       _sqlite3WindowAssemble     10087a80 f   sqlite3:sqlite3.obj
 0001:00086b20       _sqlite3WindowChain        10087b20 f   sqlite3:sqlite3.obj
 0001:00086bd0       _sqlite3WindowAttach       10087bd0 f   sqlite3:sqlite3.obj
 0001:00086c10       _sqlite3WindowCompare      10087c10 f   sqlite3:sqlite3.obj
 0001:00086ca0       _sqlite3WindowCodeInit     10087ca0 f   sqlite3:sqlite3.obj
 0001:000870a0       _windowCheckValue          100880a0 f   sqlite3:sqlite3.obj
 0001:00087380       _windowAggStep             10088380 f   sqlite3:sqlite3.obj
 0001:00087a40       _windowReadPeerValues      10088a40 f   sqlite3:sqlite3.obj
 0001:00087b10       _windowAggFinal            10088b10 f   sqlite3:sqlite3.obj
 0001:00087e70       _windowFullScan            10088e70 f   sqlite3:sqlite3.obj
 0001:000884f0       _windowReturnOneRow        100894f0 f   sqlite3:sqlite3.obj
 0001:00088a60       _windowInitAccum           10089a60 f   sqlite3:sqlite3.obj
 0001:00088cd0       _windowCacheFrame          10089cd0 f   sqlite3:sqlite3.obj
 0001:00088d20       _windowIfNewPeer           10089d20 f   sqlite3:sqlite3.obj
 0001:00088ef0       _windowCodeRangeTest       10089ef0 f   sqlite3:sqlite3.obj
 0001:000891d0       _windowCodeOp              1008a1d0 f   sqlite3:sqlite3.obj
 0001:00089590       _sqlite3WindowDup          1008a590 f   sqlite3:sqlite3.obj
 0001:000896c0       _windowExprGtZero          1008a6c0 f   sqlite3:sqlite3.obj
 0001:00089760       _sqlite3WindowCodeStep     1008a760 f   sqlite3:sqlite3.obj
 0001:0008ab90       _parserDoubleLinkSelect    1008bb90 f   sqlite3:sqlite3.obj
 0001:0008abe0       _tokenExpr                 1008bbe0 f   sqlite3:sqlite3.obj
 0001:0008acf0       _binaryToUnaryIfNull       1008bcf0 f   sqlite3:sqlite3.obj
 0001:0008ad40       _parserAddExprIdListTerm   1008bd40 f   sqlite3:sqlite3.obj
 0001:0008ada0       _yy_destructor             1008bda0 f   sqlite3:sqlite3.obj
 0001:0008ae90       $LN33                      1008be90     sqlite3:sqlite3.obj
 0001:0008aec0       $LN29                      1008bec0     sqlite3:sqlite3.obj
 0001:0008af30       _yy_find_shift_action      1008bf30 f   sqlite3:sqlite3.obj
 0001:0008afc0       _yyStackOverflow           1008bfc0 f   sqlite3:sqlite3.obj
 0001:0008b010       _yy_shift                  1008c010 f   sqlite3:sqlite3.obj
 0001:0008b060       _yy_reduce                 1008c060 f   sqlite3:sqlite3.obj
 0001:0008d338       $LN665                     1008e338     sqlite3:sqlite3.obj
 0001:0008d830       _yy_syntax_error           1008e830 f   sqlite3:sqlite3.obj
 0001:0008d870       _sqlite3Parser             1008e870 f   sqlite3:sqlite3.obj
 0001:0008d940       _keywordCode               1008e940 f   sqlite3:sqlite3.obj
 0001:0008da80       _analyzeWindowKeyword      1008ea80 f   sqlite3:sqlite3.obj
 0001:0008db30       _analyzeOverKeyword        1008eb30 f   sqlite3:sqlite3.obj
 0001:0008dba0       _analyzeFilterKeyword      1008eba0 f   sqlite3:sqlite3.obj
 0001:0008dc10       _sqlite3GetToken           1008ec10 f   sqlite3:sqlite3.obj
 0001:0008e198       $LN190                     1008f198     sqlite3:sqlite3.obj
 0001:0008e210       _sqlite3RunParser          1008f210 f   sqlite3:sqlite3.obj
 0001:0008e89c       $LN110                     1008f89c     sqlite3:sqlite3.obj
 0001:0008e8b8       $LN89                      1008f8b8     sqlite3:sqlite3.obj
 0001:0008e910       $LN111                     1008f910     sqlite3:sqlite3.obj
 0001:0008e920       $LN90                      1008f920     sqlite3:sqlite3.obj
 0001:0008edec       $LN52                      1008fdec     sqlite3:sqlite3.obj
 0001:0008ee50       _setupLookaside            1008fe50 f   sqlite3:sqlite3.obj
 0001:0008f000       _fts5VocabEofMethod        10090000 f   sqlite3:sqlite3.obj
 0001:0008f210       _binCollFunc               10090210 f   sqlite3:sqlite3.obj
 0001:0008f290       _rtrimCollFunc             10090290 f   sqlite3:sqlite3.obj
 0001:0008f2e0       _sqlite3IsBinary           100902e0 f   sqlite3:sqlite3.obj
 0001:0008f300       _nocaseCollatingFunc       10090300 f   sqlite3:sqlite3.obj
 0001:0008f380       _sqlite3CloseSavepoints    10090380 f   sqlite3:sqlite3.obj
 0001:0008f3d0       _functionDestroy           100903d0 f   sqlite3:sqlite3.obj
 0001:0008f400       _disconnectAllVtab         10090400 f   sqlite3:sqlite3.obj
 0001:0008f540       _connectionIsBusy          10090540 f   sqlite3:sqlite3.obj
 0001:0008f580       _sqlite3Close              10090580 f   sqlite3:sqlite3.obj
 0001:0008f670       _sqlite3LeaveMutexAndCloseZombie 10090670 f   sqlite3:sqlite3.obj
 0001:0008f910       _sqlite3RollbackAll        10090910 f   sqlite3:sqlite3.obj
 0001:0008fa50       _sqlite3ErrStr             10090a50 f   sqlite3:sqlite3.obj
 0001:0008fa90       _sqliteDefaultBusyCallback 10090a90 f   sqlite3:sqlite3.obj
 0001:0008fba0       _sqlite3CreateFunc         10090ba0 f   sqlite3:sqlite3.obj
 0001:0008fda0       _createFunctionApi         10090da0 f   sqlite3:sqlite3.obj
 0001:00090010       _sqlite3InvalidFunction    10091010 f   sqlite3:sqlite3.obj
 0001:00090180       _sqlite3WalDefaultHook     10091180 f   sqlite3:sqlite3.obj
 0001:000903b0       _sqlite3Checkpoint         100913b0 f   sqlite3:sqlite3.obj
 0001:00090750       _createCollation           10091750 f   sqlite3:sqlite3.obj
 0001:00090930       _sqlite3ParseUri           10091930 f   sqlite3:sqlite3.obj
 0001:00090fd0       _openDatabase              10091fd0 f   sqlite3:sqlite3.obj
 0001:00091710       _sqlite3CorruptError       10092710 f   sqlite3:sqlite3.obj
 0001:00091740       _sqlite3MisuseError        10092740 f   sqlite3:sqlite3.obj
 0001:00091770       _sqlite3CantopenError      10092770 f   sqlite3:sqlite3.obj
 0001:00091d54       $LN68                      10092d54     sqlite3:sqlite3.obj
 0001:00092020       _sqlite3Fts3GetVarint      10093020 f   sqlite3:sqlite3.obj
 0001:00092140       _sqlite3Fts3GetVarint32    10093140 f   sqlite3:sqlite3.obj
 0001:000921c0       _sqlite3Fts3VarintLen      100931c0 f   sqlite3:sqlite3.obj
 0001:000921e0       _sqlite3Fts3Dequote        100931e0 f   sqlite3:sqlite3.obj
 0001:00092270       _fts3DisconnectMethod      10093270 f   sqlite3:sqlite3.obj
 0001:000923e0       _sqlite3Fts3ErrMsg         100933e0 f   sqlite3:sqlite3.obj
 0001:00092440       _fts3DbExec                10093440 f   sqlite3:sqlite3.obj
 0001:000924c0       _fts3DestroyMethod         100934c0 f   sqlite3:sqlite3.obj
 0001:00092520       _fts3DeclareVtab           10093520 f   sqlite3:sqlite3.obj
 0001:00092630       _fts3CreateTables          10093630 f   sqlite3:sqlite3.obj
 0001:000927a0       _fts3DatabasePageSize      100937a0 f   sqlite3:sqlite3.obj
 0001:00092870       _fts3Appendf               10093870 f   sqlite3:sqlite3.obj
 0001:00092900       _fts3QuoteId               10093900 f   sqlite3:sqlite3.obj
 0001:000929b0       _fts3ReadExprList          100939b0 f   sqlite3:sqlite3.obj
 0001:00092b20       _fts3WriteExprList         10093b20 f   sqlite3:sqlite3.obj
 0001:00092be0       _fts3PrefixParameter       10093be0 f   sqlite3:sqlite3.obj
 0001:00092d30       _fts3ContentColumns        10093d30 f   sqlite3:sqlite3.obj
 0001:00093000       _fts3InitVtab              10094000 f   sqlite3:sqlite3.obj
 0001:00093dc8       $LN351                     10094dc8     sqlite3:sqlite3.obj
 0001:00093df0       _fts3ConnectMethod         10094df0 f   sqlite3:sqlite3.obj
 0001:00093e20       _fts3CreateMethod          10094e20 f   sqlite3:sqlite3.obj
 0001:00093e50       _fts3BestIndexMethod       10094e50 f   sqlite3:sqlite3.obj
 0001:0009403c       $LN52                      1009503c     sqlite3:sqlite3.obj
 0001:00094048       $LN44                      10095048     sqlite3:sqlite3.obj
 0001:00094070       _fts3OpenMethod            10095070 f   sqlite3:sqlite3.obj
 0001:000940d0       _fts3ClearCursor           100950d0 f   sqlite3:sqlite3.obj
 0001:00094190       _fts3CloseMethod           10095190 f   sqlite3:sqlite3.obj
 0001:000941e0       _fts3CursorSeekStmt        100951e0 f   sqlite3:sqlite3.obj
 0001:00094270       _fts3CursorSeek            10095270 f   sqlite3:sqlite3.obj
 0001:000942f0       _fts3ScanInteriorNode      100952f0 f   sqlite3:sqlite3.obj
 0001:000945d0       _fts3SelectLeaf            100955d0 f   sqlite3:sqlite3.obj
 0001:00094730       _fts3PoslistCopy           10095730 f   sqlite3:sqlite3.obj
 0001:00094790       _fts3PoslistMerge          10095790 f   sqlite3:sqlite3.obj
 0001:00094b90       _fts3PoslistPhraseMerge    10095b90 f   sqlite3:sqlite3.obj
 0001:00095020       _fts3PoslistNearMerge      10096020 f   sqlite3:sqlite3.obj
 0001:000950e0       _fts3PutDeltaVarint3       100960e0 f   sqlite3:sqlite3.obj
 0001:00095160       _fts3DoclistOrMerge        10096160 f   sqlite3:sqlite3.obj
 0001:00095610       _fts3DoclistPhraseMerge    10096610 f   sqlite3:sqlite3.obj
 0001:00095990       _sqlite3Fts3FirstFilter    10096990 f   sqlite3:sqlite3.obj
 0001:00095ae0       _fts3TermSelectFinishMerge 10096ae0 f   sqlite3:sqlite3.obj
 0001:00095c00       _fts3TermSelectMerge       10096c00 f   sqlite3:sqlite3.obj
 0001:00095da0       _fts3SegReaderCursorAppend 10096da0 f   sqlite3:sqlite3.obj
 0001:00095e10       _fts3SegReaderCursor       10096e10 f   sqlite3:sqlite3.obj
 0001:000960e0       _fts3TermSegReaderCursor   100970e0 f   sqlite3:sqlite3.obj
 0001:000962f0       _fts3TermSelect            100972f0 f   sqlite3:sqlite3.obj
 0001:000964a0       _fts3NextMethod            100974a0 f   sqlite3:sqlite3.obj
 0001:00096500       _fts3DocidRange            10097500 f   sqlite3:sqlite3.obj
 0001:00096500       _fts5GetRowidLimit         10097500 f   sqlite3:sqlite3.obj
 0001:00096580       _fts3FilterMethod          10097580 f   sqlite3:sqlite3.obj
 0001:00096840       _fts3EofMethod             10097840 f   sqlite3:sqlite3.obj
 0001:00096860       _fts3RowidMethod           10097860 f   sqlite3:sqlite3.obj
 0001:00096880       _fts3ColumnMethod          10097880 f   sqlite3:sqlite3.obj
 0001:00096a10       _fts3UpdateMethod          10097a10 f   sqlite3:sqlite3.obj
 0001:00096a30       _fts3SyncMethod            10097a30 f   sqlite3:sqlite3.obj
 0001:00096b00       _fts3SetHasStat            10097b00 f   sqlite3:sqlite3.obj
 0001:00096bb0       _fts3BeginMethod           10097bb0 f   sqlite3:sqlite3.obj
 0001:00096bc0       _fts3RollbackMethod        10097bc0 f   sqlite3:sqlite3.obj
 0001:00096bc0       _fts3RollbackToMethod      10097bc0 f   sqlite3:sqlite3.obj
 0001:00096bd0       _fts3ReversePoslist        10097bd0 f   sqlite3:sqlite3.obj
 0001:00096c30       _fts3FunctionArg           10097c30 f   sqlite3:sqlite3.obj
 0001:00096cc0       _fts3SnippetFunc           10097cc0 f   sqlite3:sqlite3.obj
 0001:00096e0c       $LN27                      10097e0c     sqlite3:sqlite3.obj
 0001:00096e20       _fts3OffsetsFunc           10097e20 f   sqlite3:sqlite3.obj
 0001:00096e70       _fts3OptimizeFunc          10097e70 f   sqlite3:sqlite3.obj
 0001:00096f00       _fts3MatchinfoFunc         10097f00 f   sqlite3:sqlite3.obj
 0001:00096fa0       _fts3FindFunctionMethod    10097fa0 f   sqlite3:sqlite3.obj
 0001:00097070       _fts3RenameMethod          10098070 f   sqlite3:sqlite3.obj
 0001:00097140       _fts3SavepointMethod       10098140 f   sqlite3:sqlite3.obj
 0001:00097160       _fts3ShadowName            10098160 f   sqlite3:sqlite3.obj
 0001:000971b0       _hashDestroy               100981b0 f   sqlite3:sqlite3.obj
 0001:00097200       _sqlite3Fts3Init           10098200 f   sqlite3:sqlite3.obj
 0001:00097400       _fts3EvalAllocateReaders   10098400 f   sqlite3:sqlite3.obj
 0001:000974c0       _fts3EvalPhraseMergeToken  100984c0 f   sqlite3:sqlite3.obj
 0001:000975b0       _fts3EvalPhraseLoad        100985b0 f   sqlite3:sqlite3.obj
 0001:00097620       _fts3EvalDeferredPhrase    10098620 f   sqlite3:sqlite3.obj
 0001:00097910       _fts3EvalPhraseStart       10098910 f   sqlite3:sqlite3.obj
 0001:00097a10       _sqlite3Fts3DoclistPrev    10098a10 f   sqlite3:sqlite3.obj
 0001:00097b90       _sqlite3Fts3DoclistNext    10098b90 f   sqlite3:sqlite3.obj
 0001:00097c40       _fts3EvalDlPhraseNext      10098c40 f   sqlite3:sqlite3.obj
 0001:00097d00       _fts3EvalIncrPhraseNext    10098d00 f   sqlite3:sqlite3.obj
 0001:00098220       _fts3EvalPhraseNext        10099220 f   sqlite3:sqlite3.obj
 0001:00098290       _fts3EvalStartReaders      10099290 f   sqlite3:sqlite3.obj
 0001:00098340       _fts3EvalTokenCosts        10099340 f   sqlite3:sqlite3.obj
 0001:00098420       _fts3EvalAverageDocsize    10099420 f   sqlite3:sqlite3.obj
 0001:00098530       _fts3EvalSelectDeferred    10099530 f   sqlite3:sqlite3.obj
 0001:000987d0       _fts3EvalStart             100997d0 f   sqlite3:sqlite3.obj
 0001:00098940       _fts3EvalInvalidatePoslist 10099940 f   sqlite3:sqlite3.obj
 0001:000989a0       _fts3EvalNextRow           100999a0 f   sqlite3:sqlite3.obj
 0001:00098dc8       $LN76                      10099dc8     sqlite3:sqlite3.obj
 0001:00098de0       _fts3EvalNearTest          10099de0 f   sqlite3:sqlite3.obj
 0001:00099070       _fts3EvalTestExpr          1009a070 f   sqlite3:sqlite3.obj
 0001:00099210       $LN37                      1009a210     sqlite3:sqlite3.obj
 0001:00099220       _fts3EvalNext              1009a220 f   sqlite3:sqlite3.obj
 0001:00099330       _fts3EvalRestart           1009a330 f   sqlite3:sqlite3.obj
 0001:00099400       _fts3EvalUpdateCounts      1009a400 f   sqlite3:sqlite3.obj
 0001:00099500       _fts3EvalGatherStats       1009a500 f   sqlite3:sqlite3.obj
 0001:00099790       _sqlite3Fts3EvalPhraseStats 1009a790 f   sqlite3:sqlite3.obj
 0001:00099820       _sqlite3Fts3EvalPhrasePoslist 1009a820 f   sqlite3:sqlite3.obj
 0001:00099ca0       _sqlite3Fts3EvalPhraseCleanup 1009aca0 f   sqlite3:sqlite3.obj
 0001:00099d50       _fts3auxConnectMethod      1009ad50 f   sqlite3:sqlite3.obj
 0001:00099eb0       _fts3auxDisconnectMethod   1009aeb0 f   sqlite3:sqlite3.obj
 0001:00099f40       _fts3auxBestIndexMethod    1009af40 f   sqlite3:sqlite3.obj
 0001:0009a0b0       _fts3auxOpenMethod         1009b0b0 f   sqlite3:sqlite3.obj
 0001:0009a100       _fts3auxCloseMethod        1009b100 f   sqlite3:sqlite3.obj
 0001:0009a200       _fts3auxNextMethod         1009b200 f   sqlite3:sqlite3.obj
 0001:0009a4d0       _fts3auxFilterMethod       1009b4d0 f   sqlite3:sqlite3.obj
 0001:0009a780       _fts3auxEofMethod          1009b780 f   sqlite3:sqlite3.obj
 0001:0009a790       _fts3auxColumnMethod       1009b790 f   sqlite3:sqlite3.obj
 0001:0009a888       $LN20                      1009b888     sqlite3:sqlite3.obj
 0001:0009a8a0       _fts3auxRowidMethod        1009b8a0 f   sqlite3:sqlite3.obj
 0001:0009a8c0       _fts3HashMalloc            1009b8c0 f   sqlite3:sqlite3.obj
 0001:0009a8c0       _fts3MallocZero            1009b8c0 f   sqlite3:sqlite3.obj
 0001:0009a940       _sqlite3Fts3OpenTokenizer  1009b940 f   sqlite3:sqlite3.obj
 0001:0009a9d0       _getNextToken              1009b9d0 f   sqlite3:sqlite3.obj
 0001:0009ab90       _fts3ReallocOrFree         1009bb90 f   sqlite3:sqlite3.obj
 0001:0009ac00       _getNextString             1009bc00 f   sqlite3:sqlite3.obj
 0001:0009af00       _getNextNode               1009bf00 f   sqlite3:sqlite3.obj
 0001:0009b240       _fts3ExprParse             1009c240 f   sqlite3:sqlite3.obj
 0001:0009b4a0       _fts3ExprCheckDepth        1009c4a0 f   sqlite3:sqlite3.obj
 0001:0009b4e0       _fts3ExprBalance           1009c4e0 f   sqlite3:sqlite3.obj
 0001:0009b850       _sqlite3Fts3ExprParse      1009c850 f   sqlite3:sqlite3.obj
 0001:0009b980       _sqlite3Fts3ExprFree       1009c980 f   sqlite3:sqlite3.obj
 0001:0009ba60       _fts3HashFree              1009ca60 f   sqlite3:sqlite3.obj
 0001:0009ba60       _fts5DataRelease           1009ca60 f   sqlite3:sqlite3.obj
 0001:0009baa0       _sqlite3Fts3HashClear      1009caa0 f   sqlite3:sqlite3.obj
 0001:0009bb90       _fts3StrHash               1009cb90 f   sqlite3:sqlite3.obj
 0001:0009bbe0       _fts3StrCompare            1009cbe0 f   sqlite3:sqlite3.obj
 0001:0009bc10       _fts3BinHash               1009cc10 f   sqlite3:sqlite3.obj
 0001:0009bc40       _fts3BinCompare            1009cc40 f   sqlite3:sqlite3.obj
 0001:0009bcb0       _fts3HashInsertElement     1009ccb0 f   sqlite3:sqlite3.obj
 0001:0009bd20       _fts3Rehash                1009cd20 f   sqlite3:sqlite3.obj
 0001:0009be30       _fts3FindElementByHash     1009ce30 f   sqlite3:sqlite3.obj
 0001:0009bea0       _fts3RemoveElementByHash   1009cea0 f   sqlite3:sqlite3.obj
 0001:0009bf70       _sqlite3Fts3HashFind       1009cf70 f   sqlite3:sqlite3.obj
 0001:0009bfc0       _sqlite3Fts3HashInsert     1009cfc0 f   sqlite3:sqlite3.obj
 0001:0009c140       _porterCreate              1009d140 f   sqlite3:sqlite3.obj
 0001:0009c180       _porterOpen                1009d180 f   sqlite3:sqlite3.obj
 0001:0009c180       _simpleOpen                1009d180 f   sqlite3:sqlite3.obj
 0001:0009c210       _simpleClose               1009d210 f   sqlite3:sqlite3.obj
 0001:0009c210       _porterClose               1009d210 f   sqlite3:sqlite3.obj
 0001:0009c210       _unicodeClose              1009d210 f   sqlite3:sqlite3.obj
 0001:0009c290       _isConsonant               1009d290 f   sqlite3:sqlite3.obj
 0001:0009c2e0       _isVowel                   1009d2e0 f   sqlite3:sqlite3.obj
 0001:0009c310       _m_gt_0                    1009d310 f   sqlite3:sqlite3.obj
 0001:0009c3a0       _m_eq_1                    1009d3a0 f   sqlite3:sqlite3.obj
 0001:0009c4b0       _m_gt_1                    1009d4b0 f   sqlite3:sqlite3.obj
 0001:0009c5c0       _hasVowel                  1009d5c0 f   sqlite3:sqlite3.obj
 0001:0009c620       _doubleConsonant           1009d620 f   sqlite3:sqlite3.obj
 0001:0009c680       _star_oh                   1009d680 f   sqlite3:sqlite3.obj
 0001:0009c710       _stem                      1009d710 f   sqlite3:sqlite3.obj
 0001:0009c770       _copy_stemmer              1009d770 f   sqlite3:sqlite3.obj
 0001:0009c810       _porter_stemmer            1009d810 f   sqlite3:sqlite3.obj
 0001:0009d0b4       $LN253                     1009e0b4     sqlite3:sqlite3.obj
 0001:0009d0d8       $LN234                     1009e0d8     sqlite3:sqlite3.obj
 0001:0009d0ec       $LN254                     1009e0ec     sqlite3:sqlite3.obj
 0001:0009d100       $LN235                     1009e100     sqlite3:sqlite3.obj
 0001:0009d110       $LN255                     1009e110     sqlite3:sqlite3.obj
 0001:0009d140       $LN236                     1009e140     sqlite3:sqlite3.obj
 0001:0009d160       _porterNext                1009e160 f   sqlite3:sqlite3.obj
 0001:0009d280       _fts3TokenizerFunc         1009e280 f   sqlite3:sqlite3.obj
 0001:0009d4f0       _sqlite3Fts3NextToken      1009e4f0 f   sqlite3:sqlite3.obj
 0001:0009d590       $LN55                      1009e590     sqlite3:sqlite3.obj
 0001:0009d5a0       $LN48                      1009e5a0     sqlite3:sqlite3.obj
 0001:0009d610       _sqlite3Fts3InitTokenizer  1009e610 f   sqlite3:sqlite3.obj
 0001:0009d810       _sqlite3Fts3InitHashTable  1009e810 f   sqlite3:sqlite3.obj
 0001:0009d8a0       _simpleCreate              1009e8a0 f   sqlite3:sqlite3.obj
 0001:0009d9d0       _simpleNext                1009e9d0 f   sqlite3:sqlite3.obj
 0001:0009db10       _fts3tokQueryTokenizer     1009eb10 f   sqlite3:sqlite3.obj
 0001:0009db90       _fts3tokDequoteArray       1009eb90 f   sqlite3:sqlite3.obj
 0001:0009dcc0       _fts3tokConnectMethod      1009ecc0 f   sqlite3:sqlite3.obj
 0001:0009de00       _fts3tokDisconnectMethod   1009ee00 f   sqlite3:sqlite3.obj
 0001:0009de50       _fts3tokBestIndexMethod    1009ee50 f   sqlite3:sqlite3.obj
 0001:0009dec0       _fts3tokOpenMethod         1009eec0 f   sqlite3:sqlite3.obj
 0001:0009df10       _fts3tokResetCursor        1009ef10 f   sqlite3:sqlite3.obj
 0001:0009dfa0       _fts3tokCloseMethod        1009efa0 f   sqlite3:sqlite3.obj
 0001:0009dff0       _fts3tokNextMethod         1009eff0 f   sqlite3:sqlite3.obj
 0001:0009e040       _fts3tokFilterMethod       1009f040 f   sqlite3:sqlite3.obj
 0001:0009e180       _fts3tokEofMethod          1009f180 f   sqlite3:sqlite3.obj
 0001:0009e190       _fts3tokColumnMethod       1009f190 f   sqlite3:sqlite3.obj
 0001:0009e250       $LN18                      1009f250     sqlite3:sqlite3.obj
 0001:0009e260       _fts3tokRowidMethod        1009f260 f   sqlite3:sqlite3.obj
 0001:0009e280       _fts3SqlStmt               1009f280 f   sqlite3:sqlite3.obj
 0001:0009e560       _fts3SelectDocsize         1009f560 f   sqlite3:sqlite3.obj
 0001:0009e5f0       _sqlite3Fts3SelectDoctotal 1009f5f0 f   sqlite3:sqlite3.obj
 0001:0009e6c0       _fts3SqlExec               1009f6c0 f   sqlite3:sqlite3.obj
 0001:0009e710       _fts3Writelock             1009f710 f   sqlite3:sqlite3.obj
 0001:0009e770       _sqlite3Fts3AllSegdirs     1009f770 f   sqlite3:sqlite3.obj
 0001:0009e8b0       _fts3PendingListAppendVarint 1009f8b0 f   sqlite3:sqlite3.obj
 0001:0009e9a0       _fts3PendingListAppend     1009f9a0 f   sqlite3:sqlite3.obj
 0001:0009eaf0       _fts3PendingTermsAddOne    1009faf0 f   sqlite3:sqlite3.obj
 0001:0009ec10       _fts3PendingTermsAdd       1009fc10 f   sqlite3:sqlite3.obj
 0001:0009ed80       _fts3PendingTermsDocid     1009fd80 f   sqlite3:sqlite3.obj
 0001:0009ee10       _sqlite3Fts3PendingTermsClear 1009fe10 f   sqlite3:sqlite3.obj
 0001:0009eed0       _fts3InsertTerms           1009fed0 f   sqlite3:sqlite3.obj
 0001:0009efd0       _fts3InsertData            1009ffd0 f   sqlite3:sqlite3.obj
 0001:0009f170       _fts3DeleteAll             100a0170 f   sqlite3:sqlite3.obj
 0001:0009f2a0       _fts3DeleteTerms           100a02a0 f   sqlite3:sqlite3.obj
 0001:0009f3f0       _fts3AllocateSegdirIdx     100a03f0 f   sqlite3:sqlite3.obj
 0001:0009f4c0       _sqlite3Fts3ReadBlock      100a04c0 f   sqlite3:sqlite3.obj
 0001:0009f620       _sqlite3Fts3SegmentsClose  100a0620 f   sqlite3:sqlite3.obj
 0001:0009f660       _fts3SegReaderIncrRead     100a0660 f   sqlite3:sqlite3.obj
 0001:0009f6f0       _fts3SegReaderNext         100a06f0 f   sqlite3:sqlite3.obj
 0001:0009fa30       _fts3SegReaderFirstDocid   100a0a30 f   sqlite3:sqlite3.obj
 0001:0009fad0       _fts3SegReaderNextDocid    100a0ad0 f   sqlite3:sqlite3.obj
 0001:0009fc40       _sqlite3Fts3MsrOvfl        100a0c40 f   sqlite3:sqlite3.obj
 0001:0009fd10       _sqlite3Fts3SegReaderFree  100a0d10 f   sqlite3:sqlite3.obj
 0001:0009fde0       _sqlite3Fts3SegReaderNew   100a0de0 f   sqlite3:sqlite3.obj
 0001:0009ff00       _fts3CompareElemByTerm     100a0f00 f   sqlite3:sqlite3.obj
 0001:0009ff80       _sqlite3Fts3SegReaderPending 100a0f80 f   sqlite3:sqlite3.obj
 0001:000a0230       _fts3SegReaderCmp          100a1230 f   sqlite3:sqlite3.obj
 0001:000a0340       _fts3SegReaderDoclistCmp   100a1340 f   sqlite3:sqlite3.obj
 0001:000a03a0       _fts3SegReaderDoclistCmpRev 100a13a0 f   sqlite3:sqlite3.obj
 0001:000a0400       _fts3SegReaderTermCmp      100a1400 f   sqlite3:sqlite3.obj
 0001:000a04a0       _fts3SegReaderSort         100a14a0 f   sqlite3:sqlite3.obj
 0001:000a0510       _fts3WriteSegment          100a1510 f   sqlite3:sqlite3.obj
 0001:000a0580       _sqlite3Fts3MaxLevel       100a1580 f   sqlite3:sqlite3.obj
 0001:000a05e0       _fts3WriteSegdir           100a15e0 f   sqlite3:sqlite3.obj
 0001:000a0720       _fts3NodeAddTerm           100a1720 f   sqlite3:sqlite3.obj
 0001:000a0a30       _fts3TreeFinishNode        100a1a30 f   sqlite3:sqlite3.obj
 0001:000a0ab0       _fts3NodeWrite             100a1ab0 f   sqlite3:sqlite3.obj
 0001:000a0bd0       _fts3NodeFree              100a1bd0 f   sqlite3:sqlite3.obj
 0001:000a0ca0       _fts3SegWriterAdd          100a1ca0 f   sqlite3:sqlite3.obj
 0001:000a1090       _fts3SegWriterFlush        100a2090 f   sqlite3:sqlite3.obj
 0001:000a1170       _fts3SegWriterFree         100a2170 f   sqlite3:sqlite3.obj
 0001:000a1230       _fts3IsEmpty               100a2230 f   sqlite3:sqlite3.obj
 0001:000a12a0       _fts3SegmentMaxLevel       100a22a0 f   sqlite3:sqlite3.obj
 0001:000a1360       _fts3SegmentIsMaxLevel     100a2360 f   sqlite3:sqlite3.obj
 0001:000a1400       _fts3DeleteSegdir          100a2400 f   sqlite3:sqlite3.obj
 0001:000a1640       _fts3ColumnFilter          100a2640 f   sqlite3:sqlite3.obj
 0001:000a1710       _sqlite3Fts3MsrIncrNext    100a2710 f   sqlite3:sqlite3.obj
 0001:000a18c0       _fts3SegReaderStart        100a28c0 f   sqlite3:sqlite3.obj
 0001:000a1a20       _sqlite3Fts3MsrIncrStart   100a2a20 f   sqlite3:sqlite3.obj
 0001:000a1ae0       _sqlite3Fts3MsrIncrRestart 100a2ae0 f   sqlite3:sqlite3.obj
 0001:000a1b40       _sqlite3Fts3SegReaderStep  100a2b40 f   sqlite3:sqlite3.obj
 0001:000a21f0       _sqlite3Fts3SegReaderFinish 100a31f0 f   sqlite3:sqlite3.obj
 0001:000a2290       _fts3ReadEndBlockField     100a3290 f   sqlite3:sqlite3.obj
 0001:000a23a0       _fts3PromoteSegments       100a33a0 f   sqlite3:sqlite3.obj
 0001:000a26a0       _fts3SegmentMerge          100a36a0 f   sqlite3:sqlite3.obj
 0001:000a2920       _sqlite3Fts3PendingTermsFlush 100a3920 f   sqlite3:sqlite3.obj
 0001:000a2a20       _fts3EncodeIntArray        100a3a20 f   sqlite3:sqlite3.obj
 0001:000a2a90       _fts3DecodeIntArray        100a3a90 f   sqlite3:sqlite3.obj
 0001:000a2b00       _fts3InsertDocsize         100a3b00 f   sqlite3:sqlite3.obj
 0001:000a2bd0       _fts3UpdateDocTotals       100a3bd0 f   sqlite3:sqlite3.obj
 0001:000a2df0       _fts3DoOptimize            100a3df0 f   sqlite3:sqlite3.obj
 0001:000a2fb0       _fts3DoRebuild             100a3fb0 f   sqlite3:sqlite3.obj
 0001:000a3260       _fts3IncrmergeCsr          100a4260 f   sqlite3:sqlite3.obj
 0001:000a33d0       _blobGrowBuffer            100a43d0 f   sqlite3:sqlite3.obj
 0001:000a3430       _nodeReaderNext            100a4430 f   sqlite3:sqlite3.obj
 0001:000a3590       _fts3IncrmergePush         100a4590 f   sqlite3:sqlite3.obj
 0001:000a38f0       _fts3AppendToNode          100a48f0 f   sqlite3:sqlite3.obj
 0001:000a3a80       _fts3IncrmergeAppend       100a4a80 f   sqlite3:sqlite3.obj
 0001:000a3ca0       _fts3IncrmergeRelease      100a4ca0 f   sqlite3:sqlite3.obj
 0001:000a3fc0       _fts3IncrmergeLoad         100a4fc0 f   sqlite3:sqlite3.obj
 0001:000a4650       _fts3IncrmergeWriter       100a5650 f   sqlite3:sqlite3.obj
 0001:000a47f0       _fts3RemoveSegdirEntry     100a57f0 f   sqlite3:sqlite3.obj
 0001:000a4890       _fts3RepackSegdirLevel     100a5890 f   sqlite3:sqlite3.obj
 0001:000a4ae0       _fts3TruncateNode          100a5ae0 f   sqlite3:sqlite3.obj
 0001:000a4dc0       _fts3TruncateSegment       100a5dc0 f   sqlite3:sqlite3.obj
 0001:000a51c0       _fts3IncrmergeChomp        100a61c0 f   sqlite3:sqlite3.obj
 0001:000a5310       _fts3IncrmergeHintStore    100a6310 f   sqlite3:sqlite3.obj
 0001:000a53c0       _fts3IncrmergeHintLoad     100a63c0 f   sqlite3:sqlite3.obj
 0001:000a54c0       _fts3IncrmergeHintPush     100a64c0 f   sqlite3:sqlite3.obj
 0001:000a55a0       _sqlite3Fts3Incrmerge      100a65a0 f   sqlite3:sqlite3.obj
 0001:000a5b70       _fts3Getint                100a6b70 f   sqlite3:sqlite3.obj
 0001:000a5bb0       _fts3DoIncrmerge           100a6bb0 f   sqlite3:sqlite3.obj
 0001:000a5ca0       _fts3DoAutoincrmerge       100a6ca0 f   sqlite3:sqlite3.obj
 0001:000a5d80       _fts3ChecksumEntry         100a6d80 f   sqlite3:sqlite3.obj
 0001:000a5e30       _fts3ChecksumIndex         100a6e30 f   sqlite3:sqlite3.obj
 0001:000a6040       _fts3IntegrityCheck        100a7040 f   sqlite3:sqlite3.obj
 0001:000a6480       _fts3SpecialInsert         100a7480 f   sqlite3:sqlite3.obj
 0001:000a6600       _sqlite3Fts3FreeDeferredDoclists 100a7600 f   sqlite3:sqlite3.obj
 0001:000a6660       _sqlite3Fts3FreeDeferredTokens 100a7660 f   sqlite3:sqlite3.obj
 0001:000a66f0       _sqlite3Fts3CacheDeferredDoclists 100a76f0 f   sqlite3:sqlite3.obj
 0001:000a6940       _fts3DeleteByRowid         100a7940 f   sqlite3:sqlite3.obj
 0001:000a6a50       _sqlite3Fts3UpdateMethod   100a7a50 f   sqlite3:sqlite3.obj
 0001:000a6db0       _sqlite3Fts3Optimize       100a7db0 f   sqlite3:sqlite3.obj
 0001:000a6e70       _fts3MIBufferNew           100a7e70 f   sqlite3:sqlite3.obj
 0001:000a6f60       _fts3MIBufferFree          100a7f60 f   sqlite3:sqlite3.obj
 0001:000a6fa0       _fts3MIBufferAlloc         100a7fa0 f   sqlite3:sqlite3.obj
 0001:000a7030       _fts3ExprIterate2          100a8030 f   sqlite3:sqlite3.obj
 0001:000a7090       _fts3ExprIterate           100a8090 f   sqlite3:sqlite3.obj
 0001:000a70f0       _fts3ExprLoadDoclistsCb    100a80f0 f   sqlite3:sqlite3.obj
 0001:000a7110       _fts3ExprPhraseCountCb     100a8110 f   sqlite3:sqlite3.obj
 0001:000a7130       _fts3ExprPhraseCount       100a8130 f   sqlite3:sqlite3.obj
 0001:000a71b0       _fts3SnippetAdvance        100a81b0 f   sqlite3:sqlite3.obj
 0001:000a7230       _fts3SnippetNextCandidate  100a8230 f   sqlite3:sqlite3.obj
 0001:000a7310       _fts3SnippetDetails        100a8310 f   sqlite3:sqlite3.obj
 0001:000a7500       _fts3SnippetFindPositions  100a8500 f   sqlite3:sqlite3.obj
 0001:000a7590       _fts3BestSnippet           100a8590 f   sqlite3:sqlite3.obj
 0001:000a77b0       _fts3StringAppend          100a87b0 f   sqlite3:sqlite3.obj
 0001:000a7870       _fts3SnippetShift          100a8870 f   sqlite3:sqlite3.obj
 0001:000a7a20       _fts3SnippetText           100a8a20 f   sqlite3:sqlite3.obj
 0001:000a7f50       _fts3ExprLHits             100a8f50 f   sqlite3:sqlite3.obj
 0001:000a8060       _fts3ExprLHitGather        100a9060 f   sqlite3:sqlite3.obj
 0001:000a80b0       _fts3ExprGlobalHitsCb      100a90b0 f   sqlite3:sqlite3.obj
 0001:000a80e0       _fts3ExprLocalHitsCb       100a90e0 f   sqlite3:sqlite3.obj
 0001:000a8190       _fts3MatchinfoSize         100a9190 f   sqlite3:sqlite3.obj
 0001:000a81dc       $LN12                      100a91dc     sqlite3:sqlite3.obj
 0001:000a81f0       $LN10                      100a91f0     sqlite3:sqlite3.obj
 0001:000a8210       _fts3MatchinfoLcsCb        100a9210 f   sqlite3:sqlite3.obj
 0001:000a8230       _fts3MatchinfoLcs          100a9230 f   sqlite3:sqlite3.obj
 0001:000a84c0       _fts3MatchinfoValues       100a94c0 f   sqlite3:sqlite3.obj
 0001:000a89d0       $LN110                     100a99d0     sqlite3:sqlite3.obj
 0001:000a89f0       $LN99                      100a99f0     sqlite3:sqlite3.obj
 0001:000a8a10       _fts3GetMatchinfo          100a9a10 f   sqlite3:sqlite3.obj
 0001:000a8cf0       _sqlite3Fts3Snippet        100a9cf0 f   sqlite3:sqlite3.obj
 0001:000a9010       _fts3ExprTermOffsetInit    100aa010 f   sqlite3:sqlite3.obj
 0001:000a90b0       _sqlite3Fts3Offsets        100aa0b0 f   sqlite3:sqlite3.obj
 0001:000a9670       _sqlite3Fts3Matchinfo      100aa670 f   sqlite3:sqlite3.obj
 0001:000a9700       _unicodeDestroy            100aa700 f   sqlite3:sqlite3.obj
 0001:000a9780       _unicodeAddExceptions      100aa780 f   sqlite3:sqlite3.obj
 0001:000a99c0       _unicodeIsAlnum            100aa9c0 f   sqlite3:sqlite3.obj
 0001:000a9a20       _unicodeCreate             100aaa20 f   sqlite3:sqlite3.obj
 0001:000a9c50       _unicodeOpen               100aac50 f   sqlite3:sqlite3.obj
 0001:000a9ce0       _unicodeNext               100aace0 f   sqlite3:sqlite3.obj
 0001:000aa010       _sqlite3FtsUnicodeIsalnum  100ab010 f   sqlite3:sqlite3.obj
 0001:000aa0a0       _fts5_remove_diacritic     100ab0a0 f   sqlite3:sqlite3.obj
 0001:000aa0a0       _remove_diacritic          100ab0a0 f   sqlite3:sqlite3.obj
 0001:000aa510       _sqlite3FtsUnicodeFold     100ab510 f   sqlite3:sqlite3.obj
 0001:000aa5e0       _jsonInit                  100ab5e0 f   sqlite3:sqlite3.obj
 0001:000aa610       _jsonReset                 100ab610 f   sqlite3:sqlite3.obj
 0001:000aa680       _jsonGrow                  100ab680 f   sqlite3:sqlite3.obj
 0001:000aa750       _jsonAppendRaw             100ab750 f   sqlite3:sqlite3.obj
 0001:000aa7a0       _jsonPrintf                100ab7a0 f   sqlite3:sqlite3.obj
 0001:000aa810       _jsonAppendChar            100ab810 f   sqlite3:sqlite3.obj
 0001:000aa850       _jsonAppendString          100ab850 f   sqlite3:sqlite3.obj
 0001:000aaa10       _jsonAppendValue           100aba10 f   sqlite3:sqlite3.obj
 0001:000aaad0       $LN26                      100abad0     sqlite3:sqlite3.obj
 0001:000aaaf0       _jsonResult                100abaf0 f   sqlite3:sqlite3.obj
 0001:000aab90       _jsonParseReset            100abb90 f   sqlite3:sqlite3.obj
 0001:000aac30       _jsonParseFree             100abc30 f   sqlite3:sqlite3.obj
 0001:000aac80       _jsonRenderNode            100abc80 f   sqlite3:sqlite3.obj
 0001:000aaf44       $LN81                      100abf44     sqlite3:sqlite3.obj
 0001:000aaf60       _jsonReturnJson            100abf60 f   sqlite3:sqlite3.obj
 0001:000aaff0       _jsonReturn                100abff0 f   sqlite3:sqlite3.obj
 0001:000ab36c       $LN123                     100ac36c     sqlite3:sqlite3.obj
 0001:000ab390       _jsonParseAddNodeExpand    100ac390 f   sqlite3:sqlite3.obj
 0001:000ab410       _jsonParseAddNode          100ac410 f   sqlite3:sqlite3.obj
 0001:000ab460       _jsonParseValue            100ac460 f   sqlite3:sqlite3.obj
 0001:000ab990       _jsonParse                 100ac990 f   sqlite3:sqlite3.obj
 0001:000aba50       _jsonParseFillInParentage  100aca50 f   sqlite3:sqlite3.obj
 0001:000abb00       _jsonParseFindParents      100acb00 f   sqlite3:sqlite3.obj
 0001:000abb90       _jsonParseCached           100acb90 f   sqlite3:sqlite3.obj
 0001:000abe80       _jsonLookupStep            100ace80 f   sqlite3:sqlite3.obj
 0001:000ac250       _jsonLookupAppend          100ad250 f   sqlite3:sqlite3.obj
 0001:000ac350       _jsonLookup                100ad350 f   sqlite3:sqlite3.obj
 0001:000ac3e0       _jsonWrongNumArgs          100ad3e0 f   sqlite3:sqlite3.obj
 0001:000ac440       _jsonRemoveAllNulls        100ad440 f   sqlite3:sqlite3.obj
 0001:000ac4a0       _jsonQuoteFunc             100ad4a0 f   sqlite3:sqlite3.obj
 0001:000ac530       _jsonArrayFunc             100ad530 f   sqlite3:sqlite3.obj
 0001:000ac650       _jsonArrayLengthFunc       100ad650 f   sqlite3:sqlite3.obj
 0001:000ac760       _jsonExtractFunc           100ad760 f   sqlite3:sqlite3.obj
 0001:000ac940       _jsonMergePatch            100ad940 f   sqlite3:sqlite3.obj
 0001:000acbe0       _jsonPatchFunc             100adbe0 f   sqlite3:sqlite3.obj
 0001:000accd0       _jsonObjectFunc            100adcd0 f   sqlite3:sqlite3.obj
 0001:000acf40       _jsonRemoveFunc            100adf40 f   sqlite3:sqlite3.obj
 0001:000ad0c0       _jsonReplaceFunc           100ae0c0 f   sqlite3:sqlite3.obj
 0001:000ad270       _jsonSetFunc               100ae270 f   sqlite3:sqlite3.obj
 0001:000ad470       _jsonTypeFunc              100ae470 f   sqlite3:sqlite3.obj
 0001:000ad560       _jsonValidFunc             100ae560 f   sqlite3:sqlite3.obj
 0001:000ad5c0       _jsonArrayStep             100ae5c0 f   sqlite3:sqlite3.obj
 0001:000ad690       _jsonArrayCompute          100ae690 f   sqlite3:sqlite3.obj
 0001:000ad7d0       _jsonArrayValue            100ae7d0 f   sqlite3:sqlite3.obj
 0001:000ad7e0       _jsonArrayFinal            100ae7e0 f   sqlite3:sqlite3.obj
 0001:000ad7f0       _jsonGroupInverse          100ae7f0 f   sqlite3:sqlite3.obj
 0001:000ad870       _jsonObjectStep            100ae870 f   sqlite3:sqlite3.obj
 0001:000ad9e0       _jsonObjectCompute         100ae9e0 f   sqlite3:sqlite3.obj
 0001:000adb20       _jsonObjectValue           100aeb20 f   sqlite3:sqlite3.obj
 0001:000adb30       _jsonObjectFinal           100aeb30 f   sqlite3:sqlite3.obj
 0001:000adb40       _jsonEachConnect           100aeb40 f   sqlite3:sqlite3.obj
 0001:000adbb0       _jsonEachOpenEach          100aebb0 f   sqlite3:sqlite3.obj
 0001:000adc00       _jsonEachOpenTree          100aec00 f   sqlite3:sqlite3.obj
 0001:000adc50       _jsonEachCursorReset       100aec50 f   sqlite3:sqlite3.obj
 0001:000add00       _jsonEachClose             100aed00 f   sqlite3:sqlite3.obj
 0001:000add50       _jsonEachEof               100aed50 f   sqlite3:sqlite3.obj
 0001:000add60       _jsonEachNext              100aed60 f   sqlite3:sqlite3.obj
 0001:000ade50       _jsonEachComputePath       100aee50 f   sqlite3:sqlite3.obj
 0001:000adf00       _jsonEachColumn            100aef00 f   sqlite3:sqlite3.obj
 0001:000ae26c       $LN48                      100af26c     sqlite3:sqlite3.obj
 0001:000ae290       _jsonEachRowid             100af290 f   sqlite3:sqlite3.obj
 0001:000ae2b0       _jsonEachBestIndex         100af2b0 f   sqlite3:sqlite3.obj
 0001:000ae390       _jsonEachFilter            100af390 f   sqlite3:sqlite3.obj
 0001:000ae650       _sqlite3Json1Init          100af650 f   sqlite3:sqlite3.obj
 0001:000ae790       _nodeHashDelete            100af790 f   sqlite3:sqlite3.obj
 0001:000ae7d0       _nodeNew                   100af7d0 f   sqlite3:sqlite3.obj
 0001:000ae890       _nodeBlobReset             100af890 f   sqlite3:sqlite3.obj
 0001:000ae8d0       _nodeAcquire               100af8d0 f   sqlite3:sqlite3.obj
 0001:000aeb70       _nodeOverwriteCell         100afb70 f   sqlite3:sqlite3.obj
 0001:000aebd0       _nodeDeleteCell            100afbd0 f   sqlite3:sqlite3.obj
 0001:000aec40       _nodeWrite                 100afc40 f   sqlite3:sqlite3.obj
 0001:000aed00       _nodeRelease               100afd00 f   sqlite3:sqlite3.obj
 0001:000aed90       _nodeGetCell               100afd90 f   sqlite3:sqlite3.obj
 0001:000aee10       _rtreeCreate               100afe10 f   sqlite3:sqlite3.obj
 0001:000aee40       _rtreeConnect              100afe40 f   sqlite3:sqlite3.obj
 0001:000aee70       _rtreeRelease              100afe70 f   sqlite3:sqlite3.obj
 0001:000aef80       _rtreeDisconnect           100aff80 f   sqlite3:sqlite3.obj
 0001:000aef90       _rtreeDestroy              100aff90 f   sqlite3:sqlite3.obj
 0001:000af050       _rtreeOpen                 100b0050 f   sqlite3:sqlite3.obj
 0001:000af0e0       _freeCursorConstraints     100b00e0 f   sqlite3:sqlite3.obj
 0001:000af1b0       _rtreeClose                100b01b0 f   sqlite3:sqlite3.obj
 0001:000af2a0       _rtreeEof                  100b02a0 f   sqlite3:sqlite3.obj
 0001:000af2b0       _rtreeCallbackConstraint   100b02b0 f   sqlite3:sqlite3.obj
 0001:000af59c       $LN71                      100b059c     sqlite3:sqlite3.obj
 0001:000af5b8       $LN72                      100b05b8     sqlite3:sqlite3.obj
 0001:000af5e0       _rtreeLeafConstraint       100b05e0 f   sqlite3:sqlite3.obj
 0001:000af688       $LN18                      100b0688     sqlite3:sqlite3.obj
 0001:000af6a0       _nodeRowidIndex            100b06a0 f   sqlite3:sqlite3.obj
 0001:000af710       _nodeParentIndex           100b0710 f   sqlite3:sqlite3.obj
 0001:000af740       _rtreeSearchPointFirst     100b0740 f   sqlite3:sqlite3.obj
 0001:000af760       _rtreeEnqueue              100b0760 f   sqlite3:sqlite3.obj
 0001:000af8c0       _rtreeSearchPointNew       100b08c0 f   sqlite3:sqlite3.obj
 0001:000af9b0       _rtreeSearchPointPop       100b09b0 f   sqlite3:sqlite3.obj
 0001:000afc00       _rtreeStepToLeaf           100b0c00 f   sqlite3:sqlite3.obj
 0001:000aff00       _rtreeNext                 100b0f00 f   sqlite3:sqlite3.obj
 0001:000aff30       _rtreeRowid                100b0f30 f   sqlite3:sqlite3.obj
 0001:000affe0       _rtreeColumn               100b0fe0 f   sqlite3:sqlite3.obj
 0001:000b01e0       _findLeafNode              100b11e0 f   sqlite3:sqlite3.obj
 0001:000b02a0       _deserializeGeometry       100b12a0 f   sqlite3:sqlite3.obj
 0001:000b0340       _rtreeFilter               100b1340 f   sqlite3:sqlite3.obj
 0001:000b0610       _rtreeBestIndex            100b1610 f   sqlite3:sqlite3.obj
 0001:000b081c       $LN49                      100b181c     sqlite3:sqlite3.obj
 0001:000b0838       $LN43                      100b1838     sqlite3:sqlite3.obj
 0001:000b0880       _cellArea                  100b1880 f   sqlite3:sqlite3.obj
 0001:000b09c8       $LN20                      100b19c8     sqlite3:sqlite3.obj
 0001:000b09d8       $LN21                      100b19d8     sqlite3:sqlite3.obj
 0001:000b09f0       _cellUnion                 100b19f0 f   sqlite3:sqlite3.obj
 0001:000b0a80       _cellOverlap               100b1a80 f   sqlite3:sqlite3.obj
 0001:000b0b90       _ChooseLeaf                100b1b90 f   sqlite3:sqlite3.obj
 0001:000b0d80       _AdjustTree                100b1d80 f   sqlite3:sqlite3.obj
 0001:000b0f10       _rowidWrite                100b1f10 f   sqlite3:sqlite3.obj
 0001:000b0fd0       _parentWrite               100b1fd0 f   sqlite3:sqlite3.obj
 0001:000b1090       _SortByDistance            100b2090 f   sqlite3:sqlite3.obj
 0001:000b1170       _SortByDimension           100b2170 f   sqlite3:sqlite3.obj
 0001:000b1300       _splitNodeStartree         100b2300 f   sqlite3:sqlite3.obj
 0001:000b1920       _updateMapping             100b2920 f   sqlite3:sqlite3.obj
 0001:000b19c0       _SplitNode                 100b29c0 f   sqlite3:sqlite3.obj
 0001:000b1e80       _fixLeafParent             100b2e80 f   sqlite3:sqlite3.obj
 0001:000b1f90       _removeNode                100b2f90 f   sqlite3:sqlite3.obj
 0001:000b20a0       _fixBoundingBox            100b30a0 f   sqlite3:sqlite3.obj
 0001:000b21c0       _deleteCell                100b31c0 f   sqlite3:sqlite3.obj
 0001:000b2240       _Reinsert                  100b3240 f   sqlite3:sqlite3.obj
 0001:000b2780       _rtreeInsertCell           100b3780 f   sqlite3:sqlite3.obj
 0001:000b28e0       _reinsertNodeContent       100b38e0 f   sqlite3:sqlite3.obj
 0001:000b2990       _rtreeNewRowid             100b3990 f   sqlite3:sqlite3.obj
 0001:000b29e0       _rtreeDeleteRowid          100b39e0 f   sqlite3:sqlite3.obj
 0001:000b2bd0       _rtreeConstraintError      100b3bd0 f   sqlite3:sqlite3.obj
 0001:000b2d00       _rtreeUpdate               100b3d00 f   sqlite3:sqlite3.obj
 0001:000b3240       _rtreeBeginTransaction     100b4240 f   sqlite3:sqlite3.obj
 0001:000b3250       _rtreeEndTransaction       100b4250 f   sqlite3:sqlite3.obj
 0001:000b3290       _rtreeRename               100b4290 f   sqlite3:sqlite3.obj
 0001:000b3350       _rtreeSavepoint            100b4350 f   sqlite3:sqlite3.obj
 0001:000b33a0       _rtreeQueryStat1           100b43a0 f   sqlite3:sqlite3.obj
 0001:000b3510       _rtreeShadowName           100b4510 f   sqlite3:sqlite3.obj
 0001:000b3560       _rtreeSqlInit              100b4560 f   sqlite3:sqlite3.obj
 0001:000b39e0       _getIntFromStmt            100b49e0 f   sqlite3:sqlite3.obj
 0001:000b3a50       _getNodeSize               100b4a50 f   sqlite3:sqlite3.obj
 0001:000b3b40       _rtreeInit                 100b4b40 f   sqlite3:sqlite3.obj
 0001:000b3e70       _rtreenode                 100b4e70 f   sqlite3:sqlite3.obj
 0001:000b4130       _rtreedepth                100b5130 f   sqlite3:sqlite3.obj
 0001:000b4200       _rtreeCheckPrepare         100b5200 f   sqlite3:sqlite3.obj
 0001:000b42a0       _rtreeCheckAppendMsg       100b52a0 f   sqlite3:sqlite3.obj
 0001:000b4300       _rtreeCheckGetNode         100b5300 f   sqlite3:sqlite3.obj
 0001:000b43f0       _rtreeCheckMapping         100b53f0 f   sqlite3:sqlite3.obj
 0001:000b4500       _rtreeCheckCellCoord       100b5500 f   sqlite3:sqlite3.obj
 0001:000b4620       _rtreeCheckNode            100b5620 f   sqlite3:sqlite3.obj
 0001:000b47d0       _rtreeCheckCount           100b57d0 f   sqlite3:sqlite3.obj
 0001:000b4850       _rtreeCheckTable           100b5850 f   sqlite3:sqlite3.obj
 0001:000b4a40       _rtreecheck                100b5a40 f   sqlite3:sqlite3.obj
 0001:000b4ba0       _sqlite3RtreeInit          100b5ba0 f   sqlite3:sqlite3.obj
 0001:000b4ca0       _sqlite3Fts5ParserFinalize 100b5ca0 f   sqlite3:sqlite3.obj
 0001:000b4cfc       $LN23                      100b5cfc     sqlite3:sqlite3.obj
 0001:000b4d20       _fts5yyStackOverflow       100b5d20 f   sqlite3:sqlite3.obj
 0001:000b4d8c       $LN23                      100b5d8c     sqlite3:sqlite3.obj
 0001:000b4dc0       _fts5yy_reduce             100b5dc0 f   sqlite3:sqlite3.obj
 0001:000b508c       $LN47                      100b608c     sqlite3:sqlite3.obj
 0001:000b5100       _sqlite3Fts5Parser         100b6100 f   sqlite3:sqlite3.obj
 0001:000b523c       $LN47                      100b623c     sqlite3:sqlite3.obj
 0001:000b5260       _fts5CInstIterNext         100b6260 f   sqlite3:sqlite3.obj
 0001:000b52f0       _fts5CInstIterInit         100b62f0 f   sqlite3:sqlite3.obj
 0001:000b5330       _fts5HighlightAppend       100b6330 f   sqlite3:sqlite3.obj
 0001:000b5380       _fts5HighlightCb           100b6380 f   sqlite3:sqlite3.obj
 0001:000b5560       _fts5HighlightFunction     100b6560 f   sqlite3:sqlite3.obj
 0001:000b5790       _fts5SentenceFinderAdd     100b6790 f   sqlite3:sqlite3.obj
 0001:000b5800       _fts5SentenceFinderCb      100b6800 f   sqlite3:sqlite3.obj
 0001:000b5880       _fts5SnippetScore          100b6880 f   sqlite3:sqlite3.obj
 0001:000b5a10       _fts5ValueToText           100b6a10 f   sqlite3:sqlite3.obj
 0001:000b5a70       _fts5SnippetFunction       100b6a70 f   sqlite3:sqlite3.obj
 0001:000b61b0       _fts5CountCb               100b71b0 f   sqlite3:sqlite3.obj
 0001:000b61c0       _fts5Bm25GetData           100b71c0 f   sqlite3:sqlite3.obj
 0001:000b63e0       _fts5Bm25Function          100b73e0 f   sqlite3:sqlite3.obj
 0001:000b6620       _sqlite3Fts5AuxInit        100b7620 f   sqlite3:sqlite3.obj
 0001:000b66e0       _sqlite3Fts5BufferSize     100b76e0 f   sqlite3:sqlite3.obj
 0001:000b6770       _sqlite3Fts5BufferAppendVarint 100b7770 f   sqlite3:sqlite3.obj
 0001:000b67b0       _sqlite3Fts5BufferAppendBlob 100b77b0 f   sqlite3:sqlite3.obj
 0001:000b67f0       _sqlite3Fts5BufferAppendString 100b77f0 f   sqlite3:sqlite3.obj
 0001:000b6850       _sqlite3Fts5BufferAppendPrintf 100b7850 f   sqlite3:sqlite3.obj
 0001:000b68c0       _sqlite3Fts5Mprintf        100b78c0 f   sqlite3:sqlite3.obj
 0001:000b68f0       _sqlite3Fts5BufferFree     100b78f0 f   sqlite3:sqlite3.obj
 0001:000b6950       _sqlite3Fts5BufferSet      100b7950 f   sqlite3:sqlite3.obj
 0001:000b6990       _sqlite3Fts5PoslistNext64  100b7990 f   sqlite3:sqlite3.obj
 0001:000b6ab0       _sqlite3Fts5PoslistSafeAppend 100b7ab0 f   sqlite3:sqlite3.obj
 0001:000b6ba0       _sqlite3Fts5MallocZero     100b7ba0 f   sqlite3:sqlite3.obj
 0001:000b6bf0       _sqlite3Fts5Strndup        100b7bf0 f   sqlite3:sqlite3.obj
 0001:000b6c80       _sqlite3Fts5IsBareword     100b7c80 f   sqlite3:sqlite3.obj
 0001:000b6de0       _sqlite3Fts5TermsetAdd     100b7de0 f   sqlite3:sqlite3.obj
 0001:000b6f30       _sqlite3Fts5TermsetFree    100b7f30 f   sqlite3:sqlite3.obj
 0001:000b6fd0       _fts5ConfigSkipWhitespace  100b7fd0 f   sqlite3:sqlite3.obj
 0001:000b6ff0       _fts5ConfigSkipBareword    100b7ff0 f   sqlite3:sqlite3.obj
 0001:000b7020       _fts5ConfigSkipLiteral     100b8020 f   sqlite3:sqlite3.obj
 0001:000b7108       $LN89                      100b8108     sqlite3:sqlite3.obj
 0001:000b7118       $LN75                      100b8118     sqlite3:sqlite3.obj
 0001:000b7170       _fts5Dequote               100b8170 f   sqlite3:sqlite3.obj
 0001:000b71d0       _sqlite3Fts5Dequote        100b81d0 f   sqlite3:sqlite3.obj
 0001:000b71f0       _fts5ConfigSetEnum         100b81f0 f   sqlite3:sqlite3.obj
 0001:000b7270       _fts5ConfigParseSpecial    100b8270 f   sqlite3:sqlite3.obj
 0001:000b7790       _fts5ConfigGobbleWord      100b8790 f   sqlite3:sqlite3.obj
 0001:000b78e0       _fts5ConfigParseColumn     100b88e0 f   sqlite3:sqlite3.obj
 0001:000b7980       _fts5ConfigMakeExprlist    100b8980 f   sqlite3:sqlite3.obj
 0001:000b7a20       _sqlite3Fts5ConfigParse    100b8a20 f   sqlite3:sqlite3.obj
 0001:000b7ee0       _sqlite3Fts5ConfigFree     100b8ee0 f   sqlite3:sqlite3.obj
 0001:000b8180       _sqlite3Fts5ConfigDeclareVtab 100b9180 f   sqlite3:sqlite3.obj
 0001:000b8250       _fts5ConfigSkipArgs        100b9250 f   sqlite3:sqlite3.obj
 0001:000b82a0       _sqlite3Fts5ConfigParseRank 100b92a0 f   sqlite3:sqlite3.obj
 0001:000b8410       _sqlite3Fts5ConfigSetValue 100b9410 f   sqlite3:sqlite3.obj
 0001:000b8650       _sqlite3Fts5ConfigLoad     100b9650 f   sqlite3:sqlite3.obj
 0001:000b8890       _sqlite3Fts5ParseError     100b9890 f   sqlite3:sqlite3.obj
 0001:000b88c0       _fts5ExprGetToken          100b98c0 f   sqlite3:sqlite3.obj
 0001:000b8acc       $LN60                      100b9acc     sqlite3:sqlite3.obj
 0001:000b8b00       $LN53                      100b9b00     sqlite3:sqlite3.obj
 0001:000b8b80       _sqlite3Fts5ExprNew        100b9b80 f   sqlite3:sqlite3.obj
 0001:000b8dc0       _sqlite3Fts5ParseNodeFree  100b9dc0 f   sqlite3:sqlite3.obj
 0001:000b8e30       _sqlite3Fts5ExprFree       100b9e30 f   sqlite3:sqlite3.obj
 0001:000b8eb0       _fts5ExprSynonymRowid      100b9eb0 f   sqlite3:sqlite3.obj
 0001:000b8f30       _fts5ExprSynonymList       100b9f30 f   sqlite3:sqlite3.obj
 0001:000b9240       _fts5ExprPhraseIsMatch     100ba240 f   sqlite3:sqlite3.obj
 0001:000b9660       _fts5LookaheadReaderInit   100ba660 f   sqlite3:sqlite3.obj
 0001:000b96f0       _fts5ExprNearIsMatch       100ba6f0 f   sqlite3:sqlite3.obj
 0001:000b9a70       _fts5ExprSynonymAdvanceto  100baa70 f   sqlite3:sqlite3.obj
 0001:000b9b40       _fts5ExprNearTest          100bab40 f   sqlite3:sqlite3.obj
 0001:000b9c50       _fts5ExprNearInitAll       100bac50 f   sqlite3:sqlite3.obj
 0001:000b9de0       _fts5ExprSetEof            100bade0 f   sqlite3:sqlite3.obj
 0001:000b9e20       _fts5ExprNodeZeroPoslist   100bae20 f   sqlite3:sqlite3.obj
 0001:000b9e80       _fts5NodeCompare           100bae80 f   sqlite3:sqlite3.obj
 0001:000b9ef0       _fts5ExprNodeTest_STRING   100baef0 f   sqlite3:sqlite3.obj
 0001:000ba170       _fts5ExprNodeNext_STRING   100bb170 f   sqlite3:sqlite3.obj
 0001:000ba2f0       _fts5ExprNodeTest_TERM     100bb2f0 f   sqlite3:sqlite3.obj
 0001:000ba330       _fts5ExprNodeNext_TERM     100bb330 f   sqlite3:sqlite3.obj
 0001:000ba3e0       _fts5ExprNodeTest_OR       100bb3e0 f   sqlite3:sqlite3.obj
 0001:000ba4b0       _fts5ExprNodeNext_OR       100bb4b0 f   sqlite3:sqlite3.obj
 0001:000ba560       _fts5ExprNodeTest_AND      100bb560 f   sqlite3:sqlite3.obj
 0001:000ba710       _fts5ExprNodeNext_AND      100bb710 f   sqlite3:sqlite3.obj
 0001:000ba760       _fts5ExprNodeTest_NOT      100bb760 f   sqlite3:sqlite3.obj
 0001:000ba800       _fts5ExprNodeNext_NOT      100bb800 f   sqlite3:sqlite3.obj
 0001:000ba850       _fts5ExprNodeTest          100bb850 f   sqlite3:sqlite3.obj
 0001:000ba88c       $LN13                      100bb88c     sqlite3:sqlite3.obj
 0001:000ba8b0       _fts5ExprNodeFirst         100bb8b0 f   sqlite3:sqlite3.obj
 0001:000ba9a0       _sqlite3Fts5ExprFirst      100bb9a0 f   sqlite3:sqlite3.obj
 0001:000baa30       _sqlite3Fts5ExprNext       100bba30 f   sqlite3:sqlite3.obj
 0001:000baaa0       _fts5ExprPhraseFree        100bbaa0 f   sqlite3:sqlite3.obj
 0001:000bac80       _sqlite3Fts5ParseNearset   100bbc80 f   sqlite3:sqlite3.obj
 0001:000bad70       _fts5ParseTokenize         100bbd70 f   sqlite3:sqlite3.obj
 0001:000baed0       _sqlite3Fts5ParseNearsetFree 100bbed0 f   sqlite3:sqlite3.obj
 0001:000baf50       _sqlite3Fts5ParseTerm      100bbf50 f   sqlite3:sqlite3.obj
 0001:000bb130       _sqlite3Fts5ExprClonePhrase 100bc130 f   sqlite3:sqlite3.obj
 0001:000bb420       _sqlite3Fts5ParseSetDistance 100bc420 f   sqlite3:sqlite3.obj
 0001:000bb4a0       _fts5ParseColset           100bc4a0 f   sqlite3:sqlite3.obj
 0001:000bb550       _sqlite3Fts5ParseColsetInvert 100bc550 f   sqlite3:sqlite3.obj
 0001:000bb600       _sqlite3Fts5ParseColset    100bc600 f   sqlite3:sqlite3.obj
 0001:000bb720       _fts5CloneColset           100bc720 f   sqlite3:sqlite3.obj
 0001:000bb7a0       _fts5MergeColset           100bc7a0 f   sqlite3:sqlite3.obj
 0001:000bb820       _fts5ParseSetColset        100bc820 f   sqlite3:sqlite3.obj
 0001:000bb8e0       _sqlite3Fts5ParseSetColset 100bc8e0 f   sqlite3:sqlite3.obj
 0001:000bb950       _fts5ExprAddChildren       100bc950 f   sqlite3:sqlite3.obj
 0001:000bb9d0       _sqlite3Fts5ParseNode      100bc9d0 f   sqlite3:sqlite3.obj
 0001:000bbbb0       _sqlite3Fts5ParseImplicitAnd 100bcbb0 f   sqlite3:sqlite3.obj
 0001:000bbc80       _fts5ExprTermPrint         100bcc80 f   sqlite3:sqlite3.obj
 0001:000bbd90       _fts5PrintfAppend          100bcd90 f   sqlite3:sqlite3.obj
 0001:000bbe20       _fts5ExprPrintTcl          100bce20 f   sqlite3:sqlite3.obj
 0001:000bc090       _fts5ExprPrint             100bd090 f   sqlite3:sqlite3.obj
 0001:000bc360       _fts5ExprFunction          100bd360 f   sqlite3:sqlite3.obj
 0001:000bc670       _fts5ExprFunctionHr        100bd670 f   sqlite3:sqlite3.obj
 0001:000bc690       _fts5ExprFunctionTcl       100bd690 f   sqlite3:sqlite3.obj
 0001:000bc6b0       _fts5ExprIsAlnum           100bd6b0 f   sqlite3:sqlite3.obj
 0001:000bc7c0       _fts5ExprFold              100bd7c0 f   sqlite3:sqlite3.obj
 0001:000bc8d0       _sqlite3Fts5ExprInit       100bd8d0 f   sqlite3:sqlite3.obj
 0001:000bc990       _sqlite3Fts5ExprClearPoslists 100bd990 f   sqlite3:sqlite3.obj
 0001:000bca80       _fts5ExprPopulatePoslistsCb 100bda80 f   sqlite3:sqlite3.obj
 0001:000bcbf0       _sqlite3Fts5ExprPopulatePoslists 100bdbf0 f   sqlite3:sqlite3.obj
 0001:000bccc0       _fts5ExprClearPoslists     100bdcc0 f   sqlite3:sqlite3.obj
 0001:000bcd10       _fts5ExprCheckPoslists     100bdd10 f   sqlite3:sqlite3.obj
 0001:000bce18       $LN30                      100bde18     sqlite3:sqlite3.obj
 0001:000bce28       $LN28                      100bde28     sqlite3:sqlite3.obj
 0001:000bce40       _sqlite3Fts5ExprPhraseCollist 100bde40 f   sqlite3:sqlite3.obj
 0001:000bced0       _sqlite3Fts5HashNew        100bded0 f   sqlite3:sqlite3.obj
 0001:000bcf80       _sqlite3Fts5HashFree       100bdf80 f   sqlite3:sqlite3.obj
 0001:000bd000       _sqlite3Fts5HashClear      100be000 f   sqlite3:sqlite3.obj
 0001:000bd080       _fts5HashKey2              100be080 f   sqlite3:sqlite3.obj
 0001:000bd0d0       _fts5HashResize            100be0d0 f   sqlite3:sqlite3.obj
 0001:000bd250       _fts5HashAddPoslistSize    100be250 f   sqlite3:sqlite3.obj
 0001:000bd330       _sqlite3Fts5HashWrite      100be330 f   sqlite3:sqlite3.obj
 0001:000bd850       _fts5HashEntryMerge        100be850 f   sqlite3:sqlite3.obj
 0001:000bd8f0       _fts5HashEntrySort         100be8f0 f   sqlite3:sqlite3.obj
 0001:000bdac0       _sqlite3Fts5HashQuery      100beac0 f   sqlite3:sqlite3.obj
 0001:000bdc50       _sqlite3Fts5HashScanEntry  100bec50 f   sqlite3:sqlite3.obj
 0001:000bdcc0       _fts5BufferCompare         100becc0 f   sqlite3:sqlite3.obj
 0001:000bdd40       _fts5DataRead              100bed40 f   sqlite3:sqlite3.obj
 0001:000bde90       _fts5LeafRead              100bee90 f   sqlite3:sqlite3.obj
 0001:000bdef0       _fts5IndexPrepareStmt      100beef0 f   sqlite3:sqlite3.obj
 0001:000bdf60       _fts5DataWrite             100bef60 f   sqlite3:sqlite3.obj
 0001:000bdff0       _fts5DataRemoveSegment     100beff0 f   sqlite3:sqlite3.obj
 0001:000be130       _fts5StructureRelease      100bf130 f   sqlite3:sqlite3.obj
 0001:000be1d0       _fts5StructureDecode       100bf1d0 f   sqlite3:sqlite3.obj
 0001:000be480       _fts5StructureAddLevel     100bf480 f   sqlite3:sqlite3.obj
 0001:000be4f0       _fts5StructureExtendLevel  100bf4f0 f   sqlite3:sqlite3.obj
 0001:000be5b0       _fts5StructureReadUncached 100bf5b0 f   sqlite3:sqlite3.obj
 0001:000be670       _fts5IndexDataVersion      100bf670 f   sqlite3:sqlite3.obj
 0001:000be740       _fts5StructureWrite        100bf740 f   sqlite3:sqlite3.obj
 0001:000bea30       _fts5StructurePromoteTo    100bfa30 f   sqlite3:sqlite3.obj
 0001:000beb80       _fts5StructurePromote      100bfb80 f   sqlite3:sqlite3.obj
 0001:000bec50       _fts5DlidxLvlNext          100bfc50 f   sqlite3:sqlite3.obj
 0001:000bed00       _fts5DlidxIterNextR        100bfd00 f   sqlite3:sqlite3.obj
 0001:000bedb0       _fts5DlidxIterEof          100bfdb0 f   sqlite3:sqlite3.obj
 0001:000bedd0       _fts5DlidxIterLast         100bfdd0 f   sqlite3:sqlite3.obj
 0001:000beec0       _fts5DlidxLvlPrev          100bfec0 f   sqlite3:sqlite3.obj
 0001:000bef90       _fts5DlidxIterPrevR        100bff90 f   sqlite3:sqlite3.obj
 0001:000bf040       _fts5DlidxIterFree         100c0040 f   sqlite3:sqlite3.obj
 0001:000bf0d0       _fts5DlidxIterInit         100c00d0 f   sqlite3:sqlite3.obj
 0001:000bf220       _fts5SegIterNextPage       100c0220 f   sqlite3:sqlite3.obj
 0001:000bf2e0       _fts5SegIterLoadNPos       100c02e0 f   sqlite3:sqlite3.obj
 0001:000bf390       _fts5SegIterLoadRowid      100c0390 f   sqlite3:sqlite3.obj
 0001:000bf3e0       _fts5SegIterLoadTerm       100c03e0 f   sqlite3:sqlite3.obj
 0001:000bf4b0       _fts5SegIterInit           100c04b0 f   sqlite3:sqlite3.obj
 0001:000bf540       _fts5SegIterReverseInitPage 100c0540 f   sqlite3:sqlite3.obj
 0001:000bf6a0       _fts5SegIterReverseNewPage 100c06a0 f   sqlite3:sqlite3.obj
 0001:000bf7c0       _fts5MultiIterIsEmpty      100c07c0 f   sqlite3:sqlite3.obj
 0001:000bf7f0       _fts5SegIterNext_Reverse   100c07f0 f   sqlite3:sqlite3.obj
 0001:000bf870       _fts5SegIterNext_None      100c0870 f   sqlite3:sqlite3.obj
 0001:000bfa40       _fts5SegIterNext           100c0a40 f   sqlite3:sqlite3.obj
 0001:000bfcf0       _fts5SegIterReverse        100c0cf0 f   sqlite3:sqlite3.obj
 0001:000bfee0       _fts5LeafSeek              100c0ee0 f   sqlite3:sqlite3.obj
 0001:000c02a0       _fts5SegIterSeekInit       100c12a0 f   sqlite3:sqlite3.obj
 0001:000c04b0       _fts5SegIterHashInit       100c14b0 f   sqlite3:sqlite3.obj
 0001:000c06c0       _fts5SegIterClear          100c16c0 f   sqlite3:sqlite3.obj
 0001:000c07a0       _fts5MultiIterDoCompare    100c17a0 f   sqlite3:sqlite3.obj
 0001:000c08a0       _fts5SegIterGotoPage       100c18a0 f   sqlite3:sqlite3.obj
 0001:000c0950       _fts5SegIterNextFrom       100c1950 f   sqlite3:sqlite3.obj
 0001:000c0a90       _fts5MultiIterFree         100c1a90 f   sqlite3:sqlite3.obj
 0001:000c0b40       _fts5MultiIterAdvanced     100c1b40 f   sqlite3:sqlite3.obj
 0001:000c0bb0       _fts5MultiIterAdvanceRowid 100c1bb0 f   sqlite3:sqlite3.obj
 0001:000c0d10       _fts5MultiIterNext         100c1d10 f   sqlite3:sqlite3.obj
 0001:000c0e20       _fts5MultiIterNext2        100c1e20 f   sqlite3:sqlite3.obj
 0001:000c0ef0       _fts5MultiIterAlloc        100c1ef0 f   sqlite3:sqlite3.obj
 0001:000c0f70       _fts5PoslistCallback       100c1f70 f   sqlite3:sqlite3.obj
 0001:000c0fa0       _fts5IndexColsetTest       100c1fa0 f   sqlite3:sqlite3.obj
 0001:000c0fd0       _fts5PoslistOffsetsCallback 100c1fd0 f   sqlite3:sqlite3.obj
 0001:000c10c0       _fts5PoslistFilterCallback 100c20c0 f   sqlite3:sqlite3.obj
 0001:000c1270       _fts5ChunkIterate          100c2270 f   sqlite3:sqlite3.obj
 0001:000c13a0       _fts5SegiterPoslist        100c23a0 f   sqlite3:sqlite3.obj
 0001:000c1470       _fts5IndexExtractCol       100c2470 f   sqlite3:sqlite3.obj
 0001:000c1500       _fts5IndexExtractColset    100c2500 f   sqlite3:sqlite3.obj
 0001:000c15a0       _fts5IterSetOutputs_None   100c25a0 f   sqlite3:sqlite3.obj
 0001:000c15c0       _fts5IterSetOutputs_Nocolset 100c25c0 f   sqlite3:sqlite3.obj
 0001:000c1660       _fts5IterSetOutputs_ZeroColset 100c2660 f   sqlite3:sqlite3.obj
 0001:000c1670       _fts5IterSetOutputs_Col    100c2670 f   sqlite3:sqlite3.obj
 0001:000c16b0       _fts5IterSetOutputs_Col100 100c26b0 f   sqlite3:sqlite3.obj
 0001:000c17a0       _fts5IterSetOutputs_Full   100c27a0 f   sqlite3:sqlite3.obj
 0001:000c1860       _fts5IterSetOutputCb       100c2860 f   sqlite3:sqlite3.obj
 0001:000c18e0       _fts5MultiIterNew          100c28e0 f   sqlite3:sqlite3.obj
 0001:000c1bb0       _fts5MultiIterNew2         100c2bb0 f   sqlite3:sqlite3.obj
 0001:000c1c90       _fts5MultiIterEof          100c2c90 f   sqlite3:sqlite3.obj
 0001:000c1cb0       _fts5MultiIterNextFrom     100c2cb0 f   sqlite3:sqlite3.obj
 0001:000c1d40       _fts5AllocateSegid         100c2d40 f   sqlite3:sqlite3.obj
 0001:000c1e60       _fts5WriteDlidxClear       100c2e60 f   sqlite3:sqlite3.obj
 0001:000c1ef0       _fts5WriteDlidxGrow        100c2ef0 f   sqlite3:sqlite3.obj
 0001:000c1f80       _fts5WriteFlushBtree       100c2f80 f   sqlite3:sqlite3.obj
 0001:000c2030       _fts5WriteDlidxAppend      100c3030 f   sqlite3:sqlite3.obj
 0001:000c2310       _fts5WriteFlushLeaf        100c3310 f   sqlite3:sqlite3.obj
 0001:000c2440       _fts5WriteAppendTerm       100c3440 f   sqlite3:sqlite3.obj
 0001:000c26d0       _fts5WriteAppendRowid      100c36d0 f   sqlite3:sqlite3.obj
 0001:000c27b0       _fts5WriteAppendPoslistData 100c37b0 f   sqlite3:sqlite3.obj
 0001:000c28c0       _fts5WriteFinish           100c38c0 f   sqlite3:sqlite3.obj
 0001:000c29c0       _fts5WriteInit             100c39c0 f   sqlite3:sqlite3.obj
 0001:000c2ac0       _fts5TrimSegments          100c3ac0 f   sqlite3:sqlite3.obj
 0001:000c2ee0       _fts5MergeChunkCallback    100c3ee0 f   sqlite3:sqlite3.obj
 0001:000c2f00       _fts5IndexMergeLevel       100c3f00 f   sqlite3:sqlite3.obj
 0001:000c34a0       _fts5IndexMerge            100c44a0 f   sqlite3:sqlite3.obj
 0001:000c35a0       _fts5IndexAutomerge        100c45a0 f   sqlite3:sqlite3.obj
 0001:000c3640       _fts5IndexCrisismerge      100c4640 f   sqlite3:sqlite3.obj
 0001:000c36b0       _fts5FlushOneHash          100c46b0 f   sqlite3:sqlite3.obj
 0001:000c3c60       _fts5IndexOptimizeStruct   100c4c60 f   sqlite3:sqlite3.obj
 0001:000c3e70       _sqlite3Fts5IndexOptimize  100c4e70 f   sqlite3:sqlite3.obj
 0001:000c3f60       _sqlite3Fts5IndexMerge     100c4f60 f   sqlite3:sqlite3.obj
 0001:000c4020       _fts5AppendRowid           100c5020 f   sqlite3:sqlite3.obj
 0001:000c4070       _fts5AppendPoslist         100c5070 f   sqlite3:sqlite3.obj
 0001:000c4100       _fts5DoclistIterNext       100c5100 f   sqlite3:sqlite3.obj
 0001:000c4180       _fts5MergeRowidLists       100c5180 f   sqlite3:sqlite3.obj
 0001:000c4470       _fts5MergePrefixLists      100c5470 f   sqlite3:sqlite3.obj
 0001:000c4b80       _fts5SetupPrefixIter       100c5b80 f   sqlite3:sqlite3.obj
 0001:000c4fb0       _sqlite3Fts5IndexBeginWrite 100c5fb0 f   sqlite3:sqlite3.obj
 0001:000c5030       _sqlite3Fts5IndexRollback  100c6030 f   sqlite3:sqlite3.obj
 0001:000c5090       _sqlite3Fts5IndexReinit    100c6090 f   sqlite3:sqlite3.obj
 0001:000c5110       _sqlite3Fts5IndexOpen      100c6110 f   sqlite3:sqlite3.obj
 0001:000c51f0       _sqlite3Fts5IndexClose     100c61f0 f   sqlite3:sqlite3.obj
 0001:000c52c0       _fts5IndexCharlen          100c62c0 f   sqlite3:sqlite3.obj
 0001:000c5300       _sqlite3Fts5IndexWrite     100c6300 f   sqlite3:sqlite3.obj
 0001:000c53f0       _sqlite3Fts5IndexQuery     100c63f0 f   sqlite3:sqlite3.obj
 0001:000c5620       _sqlite3Fts5IndexGetAverages 100c6620 f   sqlite3:sqlite3.obj
 0001:000c5700       _sqlite3Fts5IndexSetCookie 100c6700 f   sqlite3:sqlite3.obj
 0001:000c57a0       _sqlite3Fts5IndexLoadConfig 100c67a0 f   sqlite3:sqlite3.obj
 0001:000c5800       _sqlite3Fts5IndexEntryCksum 100c6800 f   sqlite3:sqlite3.obj
 0001:000c5890       _fts5IndexIntegrityCheckEmpty 100c6890 f   sqlite3:sqlite3.obj
 0001:000c5960       _fts5IntegrityCheckPgidx   100c6960 f   sqlite3:sqlite3.obj
 0001:000c5c40       _fts5IndexIntegrityCheckSegment 100c6c40 f   sqlite3:sqlite3.obj
 0001:000c6030       _sqlite3Fts5IndexIntegrityCheck 100c7030 f   sqlite3:sqlite3.obj
 0001:000c6400       _fts5DebugRowid            100c7400 f   sqlite3:sqlite3.obj
 0001:000c64b0       _fts5DebugStructure        100c74b0 f   sqlite3:sqlite3.obj
 0001:000c6560       _fts5DecodeAverages        100c7560 f   sqlite3:sqlite3.obj
 0001:000c65c0       _fts5DecodePoslist         100c75c0 f   sqlite3:sqlite3.obj
 0001:000c6670       _fts5DecodeDoclist         100c7670 f   sqlite3:sqlite3.obj
 0001:000c67b0       _fts5DecodeRowidList       100c77b0 f   sqlite3:sqlite3.obj
 0001:000c6870       _fts5DecodeFunction        100c7870 f   sqlite3:sqlite3.obj
 0001:000c6fb0       _fts5RowidFunction         100c7fb0 f   sqlite3:sqlite3.obj
 0001:000c7080       _sqlite3Fts5IndexInit      100c8080 f   sqlite3:sqlite3.obj
 0001:000c7150       _fts5DisconnectMethod      100c8150 f   sqlite3:sqlite3.obj
 0001:000c71a0       _fts5DestroyMethod         100c81a0 f   sqlite3:sqlite3.obj
 0001:000c7200       _fts5InitVtab              100c8200 f   sqlite3:sqlite3.obj
 0001:000c7350       _fts5ConnectMethod         100c8350 f   sqlite3:sqlite3.obj
 0001:000c7380       _fts5CreateMethod          100c8380 f   sqlite3:sqlite3.obj
 0001:000c73b0       _fts5BestIndexMethod       100c83b0 f   sqlite3:sqlite3.obj
 0001:000c7620       _fts5NewTransaction        100c8620 f   sqlite3:sqlite3.obj
 0001:000c7680       _fts5OpenMethod            100c8680 f   sqlite3:sqlite3.obj
 0001:000c7720       _fts5FreeCursorComponents  100c8720 f   sqlite3:sqlite3.obj
 0001:000c7910       _fts5CloseMethod           100c8910 f   sqlite3:sqlite3.obj
 0001:000c7970       _fts5SorterNext            100c8970 f   sqlite3:sqlite3.obj
 0001:000c7a40       _fts5CursorReseek          100c8a40 f   sqlite3:sqlite3.obj
 0001:000c7ac0       _fts5NextMethod            100c8ac0 f   sqlite3:sqlite3.obj
 0001:000c7b60       _fts5PrepareStatement      100c8b60 f   sqlite3:sqlite3.obj
 0001:000c7c10       _fts5CursorFirstSorted     100c8c10 f   sqlite3:sqlite3.obj
 0001:000c7d90       _fts5CursorFirst           100c8d90 f   sqlite3:sqlite3.obj
 0001:000c7dd0       _fts5SpecialMatch          100c8dd0 f   sqlite3:sqlite3.obj
 0001:000c7e70       _fts5FindAuxiliary         100c8e70 f   sqlite3:sqlite3.obj
 0001:000c7eb0       _fts5FindRankFunction      100c8eb0 f   sqlite3:sqlite3.obj
 0001:000c8030       _fts5CursorParseRank       100c9030 f   sqlite3:sqlite3.obj
 0001:000c8130       _fts5FilterMethod          100c9130 f   sqlite3:sqlite3.obj
 0001:000c84a0       _fts5EofMethod             100c94a0 f   sqlite3:sqlite3.obj
 0001:000c84b0       _fts5RowidMethod           100c94b0 f   sqlite3:sqlite3.obj
 0001:000c8524       $LN16                      100c9524     sqlite3:sqlite3.obj
 0001:000c8540       _fts5SeekCursor            100c9540 f   sqlite3:sqlite3.obj
 0001:000c8600       _fts5SetVtabError          100c9600 f   sqlite3:sqlite3.obj
 0001:000c8620       _fts5SpecialInsert         100c9620 f   sqlite3:sqlite3.obj
 0001:000c8770       _fts5SpecialDelete         100c9770 f   sqlite3:sqlite3.obj
 0001:000c87f0       _fts5StorageInsert         100c97f0 f   sqlite3:sqlite3.obj
 0001:000c8830       _fts5UpdateMethod          100c9830 f   sqlite3:sqlite3.obj
 0001:000c8bc0       _fts5SyncMethod            100c9bc0 f   sqlite3:sqlite3.obj
 0001:000c8c10       _fts5BeginMethod           100c9c10 f   sqlite3:sqlite3.obj
 0001:000c8c20       _fts5RollbackMethod        100c9c20 f   sqlite3:sqlite3.obj
 0001:000c8c30       _fts5ApiUserData           100c9c30 f   sqlite3:sqlite3.obj
 0001:000c8c40       _fts5ApiColumnCount        100c9c40 f   sqlite3:sqlite3.obj
 0001:000c8c50       _fts5ApiColumnTotalSize    100c9c50 f   sqlite3:sqlite3.obj
 0001:000c8c70       _fts5ApiRowCount           100c9c70 f   sqlite3:sqlite3.obj
 0001:000c8cd0       _fts5ApiTokenize           100c9cd0 f   sqlite3:sqlite3.obj
 0001:000c8d10       _fts5ApiPhraseCount        100c9d10 f   sqlite3:sqlite3.obj
 0001:000c8d30       _fts5ApiPhraseSize         100c9d30 f   sqlite3:sqlite3.obj
 0001:000c8d60       _fts5ApiColumnText         100c9d60 f   sqlite3:sqlite3.obj
 0001:000c8dd0       _fts5CsrPoslist            100c9dd0 f   sqlite3:sqlite3.obj
 0001:000c8fb0       _fts5CacheInstArray        100c9fb0 f   sqlite3:sqlite3.obj
 0001:000c9220       _fts5ApiInstCount          100ca220 f   sqlite3:sqlite3.obj
 0001:000c9250       _fts5ApiInst               100ca250 f   sqlite3:sqlite3.obj
 0001:000c92b0       _fts5ApiRowid              100ca2b0 f   sqlite3:sqlite3.obj
 0001:000c92d0       _fts5ColumnSizeCb          100ca2d0 f   sqlite3:sqlite3.obj
 0001:000c92e0       _fts5ApiColumnSize         100ca2e0 f   sqlite3:sqlite3.obj
 0001:000c94a0       _fts5ApiSetAuxdata         100ca4a0 f   sqlite3:sqlite3.obj
 0001:000c9540       _fts5ApiGetAuxdata         100ca540 f   sqlite3:sqlite3.obj
 0001:000c9580       _fts5ApiPhraseNext         100ca580 f   sqlite3:sqlite3.obj
 0001:000c9600       _fts5ApiPhraseFirst        100ca600 f   sqlite3:sqlite3.obj
 0001:000c9650       _fts5ApiPhraseNextColumn   100ca650 f   sqlite3:sqlite3.obj
 0001:000c96d0       _fts5ApiPhraseFirstColumn  100ca6d0 f   sqlite3:sqlite3.obj
 0001:000c97d0       _fts5ApiQueryPhrase        100ca7d0 f   sqlite3:sqlite3.obj
 0001:000c9910       _fts5ApiInvoke             100ca910 f   sqlite3:sqlite3.obj
 0001:000c9940       _fts5ApiCallback           100ca940 f   sqlite3:sqlite3.obj
 0001:000c9a50       _fts5PoslistBlob           100caa50 f   sqlite3:sqlite3.obj
 0001:000c9d60       _fts5ColumnMethod          100cad60 f   sqlite3:sqlite3.obj
 0001:000c9ea0       _fts5FindFunctionMethod    100caea0 f   sqlite3:sqlite3.obj
 0001:000c9ed0       _fts5RenameMethod          100caed0 f   sqlite3:sqlite3.obj
 0001:000c9ef0       _sqlite3Fts5FlushToDisk    100caef0 f   sqlite3:sqlite3.obj
 0001:000c9f20       _fts5SavepointMethod       100caf20 f   sqlite3:sqlite3.obj
 0001:000c9f20       _fts5ReleaseMethod         100caf20 f   sqlite3:sqlite3.obj
 0001:000c9f50       _fts5RollbackToMethod      100caf50 f   sqlite3:sqlite3.obj
 0001:000c9f80       _fts5CreateAux             100caf80 f   sqlite3:sqlite3.obj
 0001:000ca030       _fts5CreateTokenizer       100cb030 f   sqlite3:sqlite3.obj
 0001:000ca120       _fts5FindTokenizer         100cb120 f   sqlite3:sqlite3.obj
 0001:000ca1a0       _sqlite3Fts5GetTokenizer   100cb1a0 f   sqlite3:sqlite3.obj
 0001:000ca260       _fts5ModuleDestroy         100cb260 f   sqlite3:sqlite3.obj
 0001:000ca340       _fts5Fts5Func              100cb340 f   sqlite3:sqlite3.obj
 0001:000ca370       _fts5SourceIdFunc          100cb370 f   sqlite3:sqlite3.obj
 0001:000ca3b0       _fts5ShadowName            100cb3b0 f   sqlite3:sqlite3.obj
 0001:000ca400       _fts5Init                  100cb400 f   sqlite3:sqlite3.obj
 0001:000ca560       _fts5StorageGetStmt        100cb560 f   sqlite3:sqlite3.obj
 0001:000ca76c       $LN41                      100cb76c     sqlite3:sqlite3.obj
 0001:000ca780       $LN37                      100cb780     sqlite3:sqlite3.obj
 0001:000ca790       _fts5ExecPrintf            100cb790 f   sqlite3:sqlite3.obj
 0001:000ca810       _sqlite3Fts5DropAll        100cb810 f   sqlite3:sqlite3.obj
 0001:000ca880       _sqlite3Fts5StorageRename  100cb880 f   sqlite3:sqlite3.obj
 0001:000ca960       _sqlite3Fts5CreateTable    100cb960 f   sqlite3:sqlite3.obj
 0001:000caa00       _sqlite3Fts5StorageOpen    100cba00 f   sqlite3:sqlite3.obj
 0001:000cac80       _sqlite3Fts5StorageClose   100cbc80 f   sqlite3:sqlite3.obj
 0001:000cace0       _fts5StorageInsertCallback 100cbce0 f   sqlite3:sqlite3.obj
 0001:000cad20       _fts5StorageDeleteFromIndex 100cbd20 f   sqlite3:sqlite3.obj
 0001:000caee0       _fts5StorageInsertDocsize  100cbee0 f   sqlite3:sqlite3.obj
 0001:000caf70       _fts5StorageSaveTotals     100cbf70 f   sqlite3:sqlite3.obj
 0001:000cb0b0       _sqlite3Fts5StorageDelete  100cc0b0 f   sqlite3:sqlite3.obj
 0001:000cb1a0       _sqlite3Fts5StorageDeleteAll 100cc1a0 f   sqlite3:sqlite3.obj
 0001:000cb260       _sqlite3Fts5StorageRebuild 100cc260 f   sqlite3:sqlite3.obj
 0001:000cb570       _fts5StorageNewRowid       100cc570 f   sqlite3:sqlite3.obj
 0001:000cb600       _sqlite3Fts5StorageContentInsert 100cc600 f   sqlite3:sqlite3.obj
 0001:000cb750       _sqlite3Fts5StorageIndexInsert 100cc750 f   sqlite3:sqlite3.obj
 0001:000cb990       _fts5StorageCount          100cc990 f   sqlite3:sqlite3.obj
 0001:000cba50       _fts5StorageIntegrityCallback 100cca50 f   sqlite3:sqlite3.obj
 0001:000cbbe0       _sqlite3Fts5StorageIntegrity 100ccbe0 f   sqlite3:sqlite3.obj
 0001:000cbfe0       _fts5StorageDecodeSizeArray 100ccfe0 f   sqlite3:sqlite3.obj
 0001:000cc040       _sqlite3Fts5StorageDocsize 100cd040 f   sqlite3:sqlite3.obj
 0001:000cc0e0       _sqlite3Fts5StorageSize    100cd0e0 f   sqlite3:sqlite3.obj
 0001:000cc170       _sqlite3Fts5StorageSync    100cd170 f   sqlite3:sqlite3.obj
 0001:000cc210       _sqlite3Fts5StorageRollback 100cd210 f   sqlite3:sqlite3.obj
 0001:000cc270       _sqlite3Fts5StorageConfigValue 100cd270 f   sqlite3:sqlite3.obj
 0001:000cc330       _fts5AsciiCreate           100cd330 f   sqlite3:sqlite3.obj
 0001:000cc4c0       _asciiFold                 100cd4c0 f   sqlite3:sqlite3.obj
 0001:000cc5d0       _fts5AsciiTokenize         100cd5d0 f   sqlite3:sqlite3.obj
 0001:000cc7f0       _fts5UnicodeAddExceptions  100cd7f0 f   sqlite3:sqlite3.obj
 0001:000cc9b0       _fts5UnicodeDelete         100cd9b0 f   sqlite3:sqlite3.obj
 0001:000cca70       _unicodeSetCategories      100cda70 f   sqlite3:sqlite3.obj
 0001:000ccae0       _fts5UnicodeCreate         100cdae0 f   sqlite3:sqlite3.obj
 0001:000cccf0       _fts5UnicodeIsAlnum        100cdcf0 f   sqlite3:sqlite3.obj
 0001:000ccd60       _fts5UnicodeTokenize       100cdd60 f   sqlite3:sqlite3.obj
 0001:000cd140       _fts5PorterDelete          100ce140 f   sqlite3:sqlite3.obj
 0001:000cd190       _fts5PorterCreate          100ce190 f   sqlite3:sqlite3.obj
 0001:000cd260       _fts5PorterGobbleVC        100ce260 f   sqlite3:sqlite3.obj
 0001:000cd2f0       _fts5Porter_MGt1           100ce2f0 f   sqlite3:sqlite3.obj
 0001:000cd330       _fts5Porter_MEq1           100ce330 f   sqlite3:sqlite3.obj
 0001:000cd370       _fts5Porter_Ostar          100ce370 f   sqlite3:sqlite3.obj
 0001:000cd3e0       _fts5Porter_MGt1_and_S_or_T 100ce3e0 f   sqlite3:sqlite3.obj
 0001:000cd430       _fts5Porter_Vowel          100ce430 f   sqlite3:sqlite3.obj
 0001:000cd470       _fts5PorterStep4           100ce470 f   sqlite3:sqlite3.obj
 0001:000cd6c4       $LN72                      100ce6c4     sqlite3:sqlite3.obj
 0001:000cd6f8       $LN62                      100ce6f8     sqlite3:sqlite3.obj
 0001:000cd720       _fts5PorterStep1B2         100ce720 f   sqlite3:sqlite3.obj
 0001:000cd7e0       _fts5PorterStep2           100ce7e0 f   sqlite3:sqlite3.obj
 0001:000cde14       $LN116                     100cee14     sqlite3:sqlite3.obj
 0001:000cde38       $LN110                     100cee38     sqlite3:sqlite3.obj
 0001:000cde50       _fts5PorterStep3           100cee50 f   sqlite3:sqlite3.obj
 0001:000ce010       $LN45                      100cf010     sqlite3:sqlite3.obj
 0001:000ce02c       $LN40                      100cf02c     sqlite3:sqlite3.obj
 0001:000ce050       _fts5PorterStep1B          100cf050 f   sqlite3:sqlite3.obj
 0001:000ce100       _fts5PorterStep1A          100cf100 f   sqlite3:sqlite3.obj
 0001:000ce150       _fts5PorterCb              100cf150 f   sqlite3:sqlite3.obj
 0001:000ce2d0       _fts5PorterTokenize        100cf2d0 f   sqlite3:sqlite3.obj
 0001:000ce310       _sqlite3Fts5TokenizerInit  100cf310 f   sqlite3:sqlite3.obj
 0001:000ce3d0       _sqlite3Fts5UnicodeFold    100cf3d0 f   sqlite3:sqlite3.obj
 0001:000ce4a0       _sqlite3Fts5UnicodeCatParse 100cf4a0 f   sqlite3:sqlite3.obj
 0001:000ce6a0       $LN80                      100cf6a0     sqlite3:sqlite3.obj
 0001:000ce6c0       $LN71                      100cf6c0     sqlite3:sqlite3.obj
 0001:000ce6d8       $LN81                      100cf6d8     sqlite3:sqlite3.obj
 0001:000ce6f4       $LN72                      100cf6f4     sqlite3:sqlite3.obj
 0001:000ce740       $LN82                      100cf740     sqlite3:sqlite3.obj
 0001:000ce760       $LN73                      100cf760     sqlite3:sqlite3.obj
 0001:000ce7ac       $LN83                      100cf7ac     sqlite3:sqlite3.obj
 0001:000ce7c0       $LN74                      100cf7c0     sqlite3:sqlite3.obj
 0001:000ce808       $LN84                      100cf808     sqlite3:sqlite3.obj
 0001:000ce81c       $LN75                      100cf81c     sqlite3:sqlite3.obj
 0001:000ce864       $LN85                      100cf864     sqlite3:sqlite3.obj
 0001:000ce888       $LN76                      100cf888     sqlite3:sqlite3.obj
 0001:000ce8d4       $LN86                      100cf8d4     sqlite3:sqlite3.obj
 0001:000ce8ec       $LN77                      100cf8ec     sqlite3:sqlite3.obj
 0001:000ce934       $LN87                      100cf934     sqlite3:sqlite3.obj
 0001:000ce948       $LN78                      100cf948     sqlite3:sqlite3.obj
 0001:000ce9a0       _sqlite3Fts5UnicodeCategory 100cf9a0 f   sqlite3:sqlite3.obj
 0001:000cea40       _sqlite3Fts5UnicodeAscii   100cfa40 f   sqlite3:sqlite3.obj
 0001:000cea90       _sqlite3Fts5GetVarint32    100cfa90 f   sqlite3:sqlite3.obj
 0001:000ceb20       _sqlite3Fts5GetVarint      100cfb20 f   sqlite3:sqlite3.obj
 0001:000ceca0       _fts5VocabTableType        100cfca0 f   sqlite3:sqlite3.obj
 0001:000cedd0       _fts5VocabInitVtab         100cfdd0 f   sqlite3:sqlite3.obj
 0001:000cefe0       _fts5VocabConnectMethod    100cffe0 f   sqlite3:sqlite3.obj
 0001:000cefe0       _fts5VocabCreateMethod     100cffe0 f   sqlite3:sqlite3.obj
 0001:000cf010       _fts5VocabBestIndexMethod  100d0010 f   sqlite3:sqlite3.obj
 0001:000cf110       _fts5VocabOpenMethod       100d0110 f   sqlite3:sqlite3.obj
 0001:000cf2d0       _fts5VocabResetCursor      100d02d0 f   sqlite3:sqlite3.obj
 0001:000cf370       _fts5VocabCloseMethod      100d0370 f   sqlite3:sqlite3.obj
 0001:000cf3c0       _fts5VocabInstanceNewTerm  100d03c0 f   sqlite3:sqlite3.obj
 0001:000cf4d0       _fts5VocabInstanceNext     100d04d0 f   sqlite3:sqlite3.obj
 0001:000cf5c0       _fts5VocabNextMethod       100d05c0 f   sqlite3:sqlite3.obj
 0001:000cfa80       _fts5VocabFilterMethod     100d0a80 f   sqlite3:sqlite3.obj
 0001:000cfd30       _fts5VocabColumnMethod     100d0d30 f   sqlite3:sqlite3.obj
 0001:000cfec0       _fts5VocabRowidMethod      100d0ec0 f   sqlite3:sqlite3.obj
 0001:000d03c5       ?find_pe_section@@YAPAU_IMAGE_SECTION_HEADER@@QAEI@Z 100d13c5 f   LIBCMT:utility.obj
 0001:000d070c       ?dllmain_crt_dispatch@@YGHQAUHINSTANCE__@@KQAX@Z 100d170c f   LIBCMT:dll_dllmain.obj
 0001:000d075f       ?dllmain_crt_process_attach@@YAHQAUHINSTANCE__@@QAX@Z 100d175f f   LIBCMT:dll_dllmain.obj
 0001:000d0871       ?dllmain_crt_process_detach@@YAH_N@Z 100d1871 f   LIBCMT:dll_dllmain.obj
 0001:000d08ee       ?dllmain_dispatch@@YAHQAUHINSTANCE__@@KQAX@Z 100d18ee f   LIBCMT:dll_dllmain.obj
 0001:000d09ea       ?dllmain_raw@@YGHQAUHINSTANCE__@@KQAX@Z 100d19ea f   LIBCMT:dll_dllmain.obj
 0001:000d0f90       $$000000                   100d1f90     LIBCMT:_sehprolg4_.obj
 0001:000d1130       $$000000                   100d2130     libvcruntime:memmove.obj
 0001:000d1394       TrailingUpVec              100d2394     libvcruntime:memmove.obj
 0001:000d1440       TrailingDownVec            100d2440     libvcruntime:memmove.obj
 0001:000d176b       ?CallCatchBlock@@YAPAXPAUEHExceptionRecord@@PAUEHRegistrationNode@@PAU_CONTEXT@@PBU_s_FuncInfo@@PAXHK@Z 100d276b f   libvcruntime:frame.obj
 0001:000d1927       ?CallUnexpected@@YAXPBU_s_ESTypeList@@@Z 100d2927 f   libvcruntime:frame.obj
 0001:000d1947       __catch$?CallUnexpected@@YAXPBU_s_ESTypeList@@@Z$0 100d2947 f   libvcruntime:frame.obj
 0001:000d1961       ?CatchIt@@YAXPAUEHExceptionRecord@@PAUEHRegistrationNode@@PAU_CONTEXT@@PAXPBU_s_FuncInfo@@PBU_s_HandlerType@@PBU_s_CatchableType@@PBU_s_TryBlockMapEntry@@H1E@Z 100d2961 f   libvcruntime:frame.obj
 0001:000d19dc       ?ExFilterRethrow@@YAHPAU_EXCEPTION_POINTERS@@@Z 100d29dc f   libvcruntime:frame.obj
 0001:000d1a26       ?FindHandler@@YAXPAUEHExceptionRecord@@PAUEHRegistrationNode@@PAU_CONTEXT@@PAXPBU_s_FuncInfo@@EH1@Z 100d2a26 f   libvcruntime:frame.obj
 0001:000d1d8e       ?FindHandlerForForeignException@@YAXPAUEHExceptionRecord@@PAUEHRegistrationNode@@PAU_CONTEXT@@PAXPBU_s_FuncInfo@@HH1@Z 100d2d8e f   libvcruntime:frame.obj
 0001:000d1ea9       ?IsInExceptionSpec@@YAEPAUEHExceptionRecord@@PBU_s_ESTypeList@@@Z 100d2ea9 f   libvcruntime:frame.obj
 0001:000d1f45       ?Is_bad_exception_allowed@@YAEPBU_s_ESTypeList@@@Z 100d2f45 f   libvcruntime:frame.obj
 0001:000d2410       $$000000                   100d3410     libvcruntime:strrchr.obj
 0001:000d26a0       _ValidateLocalCookies      100d36a0 f   libvcruntime:_chandler4_.obj
 0001:000d2850       $$000000                   100d3850     libvcruntime:memset.obj
 0001:000d2b70       $$000000                   100d3b70     libvcruntime:lowhelpr.obj
 0001:000d2ffd       ?try_get_function@@YAPAXW4function_id@?A0x89697e75@@QBDQBW4module_id@2@2@Z 100d3ffd f   libvcruntime:winapi_downlevel.obj
 0001:000d309d       ?try_get_module@@YAPAUHINSTANCE__@@W4module_id@?A0x89697e75@@@Z 100d409d f   libvcruntime:winapi_downlevel.obj
 0001:000d32e0       $$000000                   100d42e0     libvcruntime:_exsup4_.obj
 0001:000d3370       __unwind_handler4          100d4370 f   libvcruntime:_exsup4_.obj
 0001:000d3440       $$000000                   100d4440     libvcruntime:_exsup_.obj
 0001:000d3460       __unwind_handler           100d4460 f   libvcruntime:_exsup_.obj
 0001:000d398e       ??$common_localtime_s@_J@@YAHQAUtm@@QB_J@Z 100d498e f   libucrt:localtime.obj
 0001:000d3c30       $$000000                   100d4c30     libucrt:strcspn.obj
 0001:000d3c80       ?shortsort@@YAXPAD0IP6AHPBX1@Z@Z 100d4c80 f   libucrt:qsort.obj
 0001:000d3d20       ?swap@@YAXPAD0I@Z          100d4d20 f   libucrt:qsort.obj
 0001:000d4130       $$000000                   100d5130     libucrt:strncmp.obj
 0001:000d43f5       ?atexit_exception_filter@@YAHK@Z 100d53f5 f   libucrt:exit.obj
 0001:000d4408       ?common_exit@@YAXHW4_crt_exit_cleanup_mode@@W4_crt_exit_return_mode@@@Z 100d5408 f   libucrt:exit.obj
 0001:000d4521       ?exit_or_terminate_process@@YAXI@Z 100d5521 f   libucrt:exit.obj
 0001:000d4562       ?is_managed_app@@YA_NXZ    100d5562 f   libucrt:exit.obj
 0001:000d45a6       ?try_cor_exit_process@@YAXI@Z 100d55a6 f   libucrt:exit.obj
 0001:000d464a       ??$common_configure_argv@D@@YAHW4_crt_argv_mode@@@Z 100d564a f   libucrt:argv_parsing.obj
 0001:000d476e       ??$parse_command_line@D@@YAXPADPAPAD0PAI2@Z 100d576e f   libucrt:argv_parsing.obj
 0001:000d4943       ??$common_get_or_create_environment_nolock@D@@YAPAPADXZ 100d5943 f   libucrt:environment_initialization.obj
 0001:000d4972       ??$common_initialize_environment_nolock@D@@YAHXZ 100d5972 f   libucrt:environment_initialization.obj
 0001:000d49cb       ??$create_environment@D@@YAQAPADQAD@Z 100d59cb f   libucrt:environment_initialization.obj
 0001:000d4a9c       ??$free_environment@D@@YAXQAPAD@Z 100d5a9c f   libucrt:environment_initialization.obj
 0001:000d4a9c       ??$free_environment@_W@@YAXQAPA_W@Z 100d5a9c f   libucrt:environment_initialization.obj
 0001:000d4acb       ??$initialize_environment_by_cloning_nolock@D@@YAHXZ 100d5acb f   libucrt:environment_initialization.obj
 0001:000d4b8a       ??$uninitialize_environment_internal@D@@YAXAAPAPAD@Z 100d5b8a f   libucrt:environment_initialization.obj
 0001:000d4ba5       ??$uninitialize_environment_internal@_W@@YAXAAPAPA_W@Z 100d5ba5 f   libucrt:environment_initialization.obj
 0001:000d4d12       ??R<lambda_275893d493268fdec8709772e3fcec0e>@@QBEHXZ 100d5d12 f   libucrt:onexit.obj
 0001:000d4e32       ??R<lambda_4e60a939b0d047cfe11ddc22648dfba9>@@QBEHXZ 100d5e32 f   libucrt:onexit.obj
 0001:000d5007       _initialize_global_variables 100d6007 f   libucrt:initialization.obj
 0001:000d5019       _initialize_c              100d6019 f   libucrt:initialization.obj
 0001:000d5033       _uninitialize_environment  100d6033 f   libucrt:initialization.obj
 0001:000d503b       _report_memory_leaks       100d603b f   libucrt:initialization.obj
 0001:000d503b       _uninitialize_global_state_isolation 100d603b f   libucrt:initialization.obj
 0001:000d503b       _initialize_global_state_isolation 100d603b f   libucrt:initialization.obj
 0001:000d503b       _uninitialize_c            100d603b f   libucrt:initialization.obj
 0001:000d503b       _initialize_environment    100d603b f   libucrt:initialization.obj
 0001:000d503e       _initialize_pointers       100d603e f   libucrt:initialization.obj
 0001:000d507b       _uninitialize_vcruntime    100d607b f   libucrt:initialization.obj
 0001:000d5084       _uninitialize_allocated_memory 100d6084 f   libucrt:initialization.obj
 0001:000d59e7       ?construct_ptd@@YAXQAU__acrt_ptd@@QAPAU__crt_locale_data@@@Z 100d69e7 f   libucrt:per_thread_data.obj
 0001:000d5a60       ?destroy_fls@@YGXPAX@Z     100d6a60 f   libucrt:per_thread_data.obj
 0001:000d5a81       ?destroy_ptd@@YAXQAU__acrt_ptd@@@Z 100d6a81 f   libucrt:per_thread_data.obj
 0001:000d5b2a       ?replace_current_thread_locale_nolock@@YAXQAU__acrt_ptd@@QAU__crt_locale_data@@@Z 100d6b2a f   libucrt:per_thread_data.obj
 0001:000d5d7c       ??$common_tox_l@$1?internal_isupper_l@@YA_NHQAU__crt_locale_pointers@@@Z$1?internal_map_lower@@YAHH0@Z@@YAHHKQAU__crt_locale_pointers@@@Z 100d6d7c f   libucrt:tolower_toupper.obj
 0001:000d5ec6       ?internal_isupper_l@@YA_NHQAU__crt_locale_pointers@@@Z 100d6ec6 f   libucrt:tolower_toupper.obj
 0001:000d6104       ??$common_gmtime_s@_J@@YAHQAUtm@@QB_J@Z 100d7104 f   libucrt:gmtime.obj
 0001:000d6251       ?compute_year@@YAHAA_JAA_N@Z 100d7251 f   libucrt:gmtime.obj
 0001:000d6300       ?_isindst_nolock@@YAHQAUtm@@@Z 100d7300 f   libucrt:tzset.obj
 0001:000d64e7       ?cvtdate@@YAXW4transition_type@?A0xdb49773f@@W4date_type@2@HHHHHHHHH@Z 100d74e7 f   libucrt:tzset.obj
 0001:000d6637       ?tzset_from_environment_nolock@@YAXPAD@Z 100d7637 f   libucrt:tzset.obj
 0001:000d680c       ?tzset_from_system_nolock@@YAXXZ 100d780c f   libucrt:tzset.obj
 0001:000d6967       ?tzset_nolock@@YAXXZ       100d7967 f   libucrt:tzset.obj
 0001:000d6c06       ?try_get_CompareStringEx@@YAP6GHPB_WK0H0HPAU_nlsversioninfo@@PAXJ@ZXZ 100d7c06 f   libucrt:winapi_thunks.obj
 0001:000d6c20       ?try_get_function@@YAPAXW4function_id@?A0x352e5c4b@@QBDQBW4module_id@2@2@Z 100d7c20 f   libucrt:winapi_thunks.obj
 0001:000d6cbc       ?try_get_module@@YAPAUHINSTANCE__@@W4module_id@?A0x352e5c4b@@@Z 100d7cbc f   libucrt:winapi_thunks.obj
 0001:000d717d       ?<helper_func_cdecl>@<lambda_62bb7ecb46d0a77b591a051c43eb5ad1>@@CAHPBX0@Z 100d817d f   libucrt:argv_wildcards.obj
 0001:000d7195       ??$common_expand_argv_wildcards@D@@YAHQAPADQAPAPAD@Z 100d8195 f   libucrt:argv_wildcards.obj
 0001:000d7325       ??$copy_and_add_argument_to_buffer@D@@YAHQBD0IAAV?$argument_list@D@?A0xb0e4b824@@@Z 100d8325 f   libucrt:argv_wildcards.obj
 0001:000d73bb       ??$expand_argument_wildcards@D@@YAHQAD0AAV?$argument_list@D@?A0xb0e4b824@@@Z 100d83bb f   libucrt:argv_wildcards.obj
 0001:000d7696       ??R<lambda_ad1ced32f4ac17aa236e5ef05d6b3b7c>@@QBEXXZ 100d8696 f   libucrt:mbctype.obj
 0001:000d775a       ?CPtoLocaleName@@YAPB_WH@Z 100d875a f   libucrt:mbctype.obj
 0001:000d7798       ?getSystemCP@@YAHH@Z       100d8798 f   libucrt:mbctype.obj
 0001:000d780b       ?setSBCS@@YAXPAU__crt_multibyte_data@@@Z 100d880b f   libucrt:mbctype.obj
 0001:000d7870       ?setSBUpLow@@YAXPAU__crt_multibyte_data@@@Z 100d8870 f   libucrt:mbctype.obj
 0001:000d7a04       ?setmbcp_internal@@YAHH_N@Z 100d8a04 f   libucrt:mbctype.obj
 0001:000d7db6       _memcpy_s                  100d8db6 f   libucrt:mbctype.obj
 0001:000d7e37       ?x_ismbbtype_l@@YAHPAU__crt_locale_pointers@@IHH@Z 100d8e37 f   libucrt:ismbbyte.obj
 0001:000d7ec1       ?find_end_of_double_null_terminated_sequence@@YAPB_WQB_W@Z 100d8ec1 f   libucrt:get_environment_from_os.obj
 0001:000d7f7b       ??$common_set_variable_in_environment_nolock@D@@YAHQADH@Z 100d8f7b f   libucrt:setenv.obj
 0001:000d81b6       ??$copy_environment@D@@YAPAPADQAPAD@Z 100d91b6 f   libucrt:setenv.obj
 0001:000d8267       ??$find_in_environment_nolock@D@@YAHQBDI@Z 100d9267 f   libucrt:setenv.obj
 0001:000d833e       ?initialize_inherited_file_handles_nolock@@YAXXZ 100d933e f   libucrt:ioinit.obj
 0001:000d83f4       ?initialize_stdio_handles_nolock@@YAXXZ 100d93f4 f   libucrt:ioinit.obj
 0001:000d867e       ?get_global_action_nolock@@YAPAP6AXH@ZH@Z 100d967e f   libucrt:signal.obj
 0001:000d86c0       ?siglookup@@YAPAU__crt_signal_action_t@@HQAU1@@Z 100d96c0 f   libucrt:signal.obj
 0001:000d90ff       ?__acrt_LCMapStringA_stat@@YAHPAU__crt_locale_pointers@@PB_WKPBDHPADHHH@Z 100da0ff f   libucrt:lcmapstringa.obj
 0001:000d9515       ?free_crt_array_internal@@YAXQAPBXI@Z 100da515 f   libucrt:inittime.obj
 0001:000d9752       ??$common_getenv_nolock@D@@YAPADQBD@Z 100da752 f   libucrt:getenv.obj
 0001:000d97c2       ??$common_getenv_s@D@@YAHQAIQADIQBD@Z 100da7c2 f   libucrt:getenv.obj
 0001:000d9817       ??$common_getenv_s_nolock@D@@YAHQAIQADIQBD@Z 100da817 f   libucrt:getenv.obj
 0001:000d98ca       ??$common_tcsncpy_s@D@@YAHQADIQBDI@Z 100da8ca f   libucrt:strncpy_s.obj
 0001:000d9986       ?GetTableIndexFromLocaleName@@YAHPB_W@Z 100da986 f   libucrt:lcidtoname_downlevel.obj
 0001:000d9a70       $$000000                   100daa70     libucrt:strpbrk.obj
 0001:000d9b54       ?initialize_multibyte@@YAHXZ 100dab54 f   libucrt:multibyte_initializer.obj
 0001:000d9fea       _common_flush_all          100dafea f   libucrt:fflush.obj
 0001:000da2df       ?InternalCompareStringA@@YAHPAU__crt_locale_pointers@@PB_WKPBDH2HH@Z 100db2df f   libucrt:comparestringa.obj
 0001:000da704       ?write_double_translated_ansi_nolock@@YA?AUwrite_result@?A0x47fa6670@@HQBDI@Z 100db704 f   libucrt:write.obj
 0001:000da8b7       ?write_double_translated_unicode_nolock@@YA?AUwrite_result@?A0x47fa6670@@QBDI@Z 100db8b7 f   libucrt:write.obj
 0001:000da924       ?write_requires_double_translation_nolock@@YA_NH@Z 100db924 f   libucrt:write.obj
 0001:000da99a       ?write_text_ansi_nolock@@YA?AUwrite_result@?A0x47fa6670@@HQBDI@Z 100db99a f   libucrt:write.obj
 0001:000daa79       ?write_text_utf16le_nolock@@YA?AUwrite_result@?A0x47fa6670@@HQBDI@Z 100dba79 f   libucrt:write.obj
 0001:000dab67       ?write_text_utf8_nolock@@YA?AUwrite_result@?A0x47fa6670@@HQBDI@Z 100dbb67 f   libucrt:write.obj
 0001:000daf90       $$000000                   100dbf90     libucrt:log10.obj
 0001:000db0e0       $$000000                   100dc0e0     libucrt:ceil_pentium4.obj
 0001:000db1fd       ??$common_lseek_nolock@_J@@YA_JH_JH@Z 100dc1fd f   libucrt:lseek.obj
 0001:000db390       $$000000                   100dc390     libucrt:_strnicm.obj
 0001:000db450       $$000000                   100dc450     libucrt:log10_pentium4.obj
 0001:000db6e0       $$000000                   100dc6e0     libucrt:87tran.obj
 0001:000db8e0       $$000000                   100dc8e0     libucrt:87disp.obj
 0001:000dbae0       $$000000                   100dcae0     libucrt:common.obj
 0001:000dbc70       $$000000                   100dcc70     libucrt:genexcep.obj
 0001:000dd680       $$000000                   100de680     LIBCMT:ulldvrm.obj
 0001:000dd720       $$000000                   100de720     LIBCMT:lldiv.obj
 0001:000dd7d0       $$000000                   100de7d0     LIBCMT:llrem.obj
 0001:000dd890       $$000000                   100de890     LIBCMT:_sehprolg4gs_.obj
 0001:000dd8f0       $$000000                   100de8f0     LIBCMT:llmul.obj
 0001:000dd930       $$000000                   100de930     LIBCMT:lldvrm.obj
 0001:000dda10       $$000000                   100dea10     LIBCMT:ullshr.obj
 0001:000dda30       $$000000                   100dea30     LIBCMT:alloca16.obj
 0001:000dda60       $$000000                   100dea60     LIBCMT:llshl.obj
 0001:000dda80       $$000000                   100dea80     LIBCMT:_ftol2_.obj
 0001:000ddb40       $$000000                   100deb40     LIBCMT:chkstk.obj
 0001:000ddb70       $$000000                   100deb70     libvcruntime:memcpy.obj
 0001:000dddd4       TrailingUpVec              100dedd4     libvcruntime:memcpy.obj
 0001:000dde80       TrailingDownVec            100dee80     libvcruntime:memcpy.obj
 0001:000de0f0       $$000000                   100df0f0     libvcruntime:strchr.obj
 0001:000de220       $$000000                   100df220     LIBCMT:llshr.obj
 0001:000de250       $$000000                   100df250     LIBCMT:ulldiv.obj
 0001:000de2c0       $$000000                   100df2c0     LIBCMT:ullrem.obj
 0001:000de340       $$000000                   100df340     LIBCMT:_ftol3_.obj
 0001:000de6c0       $$000000                   100df6c0     libucrt:log_sse2_precise.obj
 0001:000de950       $$000000                   100df950     libucrt:log.obj
 0001:000deaa0       $$000000                   100dfaa0     libucrt:log_pentium4.obj
 0001:000ded10       __unwindfunclet$?NODE_SET_PROTOTYPE_METHOD@node@@YAXV?$Local@VFunctionTemplate@v8@@@v8@@PBDP6AXABV?$FunctionCallbackInfo@VValue@v8@@@3@@Z@Z$0 100dfd10 f   better_sqlite3.obj
 0001:000ded10       __unwindfunclet$?xValueBase@CustomAggregate@@CAXPAUsqlite3_context@@_N@Z$0 100dfd10 f   better_sqlite3.obj
 0001:000ded19       __ehhandler$?xValueBase@CustomAggregate@@CAXPAUsqlite3_context@@_N@Z 100dfd19 f   better_sqlite3.obj
 0001:000ded19       __ehhandler$?NODE_SET_PROTOTYPE_METHOD@node@@YAXV?$Local@VFunctionTemplate@v8@@@v8@@PBDP6AXABV?$FunctionCallbackInfo@VValue@v8@@@3@@Z@Z 100dfd19 f   better_sqlite3.obj
 0001:000ded40       __unwindfunclet$??1CustomFunction@@UAE@XZ$0 100dfd40 f   better_sqlite3.obj
 0001:000ded40       __unwindfunclet$??1ObjectWrap@node@@UAE@XZ$0 100dfd40 f   better_sqlite3.obj
 0001:000ded40       __unwindfunclet$??_GCustomFunction@@UAEPAXI@Z$1 100dfd40 f   better_sqlite3.obj
 0001:000ded46       __ehhandler$??1CustomFunction@@UAE@XZ 100dfd46 f   better_sqlite3.obj
 0001:000ded46       __ehhandler$??_GCustomFunction@@UAEPAXI@Z 100dfd46 f   better_sqlite3.obj
 0001:000ded46       __ehhandler$??1ObjectWrap@node@@UAE@XZ 100dfd46 f   better_sqlite3.obj
 0001:000ded70       __unwindfunclet$??1Backup@@UAE@XZ$0 100dfd70 f   better_sqlite3.obj
 0001:000ded70       __unwindfunclet$??1StatementIterator@@UAE@XZ$0 100dfd70 f   better_sqlite3.obj
 0001:000ded70       __unwindfunclet$??_GObjectWrap@node@@UAEPAXI@Z$0 100dfd70 f   better_sqlite3.obj
 0001:000ded76       __unwindfunclet$??1StatementIterator@@UAE@XZ$1 100dfd76 f   better_sqlite3.obj
 0001:000ded76       __unwindfunclet$??1Backup@@UAE@XZ$1 100dfd76 f   better_sqlite3.obj
 0001:000ded76       __unwindfunclet$??_GObjectWrap@node@@UAEPAXI@Z$1 100dfd76 f   better_sqlite3.obj
 0001:000ded7c       __ehhandler$??1StatementIterator@@UAE@XZ 100dfd7c f   better_sqlite3.obj
 0001:000ded7c       __ehhandler$??_GObjectWrap@node@@UAEPAXI@Z 100dfd7c f   better_sqlite3.obj
 0001:000ded7c       __ehhandler$??1Backup@@UAE@XZ 100dfd7c f   better_sqlite3.obj
 0001:000deda0       __unwindfunclet$?NODE_SET_PROTOTYPE_GETTER@@YAXV?$Local@VFunctionTemplate@v8@@@v8@@PBDP6AXV?$Local@VString@v8@@@2@ABV?$PropertyCallbackInfo@VValue@v8@@@2@@Z@Z$0 100dfda0 f   better_sqlite3.obj
 0001:000deda9       __ehhandler$?NODE_SET_PROTOTYPE_GETTER@@YAXV?$Local@VFunctionTemplate@v8@@@v8@@PBDP6AXV?$Local@VString@v8@@@2@ABV?$PropertyCallbackInfo@VValue@v8@@@2@@Z@Z 100dfda9 f   better_sqlite3.obj
 0001:000dedd0       __unwindfunclet$?NODE_SET_PROTOTYPE_SYMBOL_METHOD@@YAXV?$Local@VFunctionTemplate@v8@@@v8@@V?$Local@VSymbol@v8@@@2@P6AXABV?$FunctionCallbackInfo@VValue@v8@@@2@@Z@Z$0 100dfdd0 f   better_sqlite3.obj
 0001:000dedd9       __ehhandler$?NODE_SET_PROTOTYPE_SYMBOL_METHOD@@YAXV?$Local@VFunctionTemplate@v8@@@v8@@V?$Local@VSymbol@v8@@@2@P6AXABV?$FunctionCallbackInfo@VValue@v8@@@2@@Z@Z 100dfdd9 f   better_sqlite3.obj
 0001:000dee00       __unwindfunclet$?xStepBase@CustomAggregate@@CAXPAUsqlite3_context@@HPAPAUsqlite3_value@@PR1@V?$Persistent@VFunction@v8@@U?$CopyablePersistentTraits@VFunction@v8@@@2@@v8@@@Z$0 100dfe00 f   better_sqlite3.obj
 0001:000dee09       __ehhandler$?xStepBase@CustomAggregate@@CAXPAUsqlite3_context@@HPAPAUsqlite3_value@@PR1@V?$Persistent@VFunction@v8@@U?$CopyablePersistentTraits@VFunction@v8@@@2@@v8@@@Z 100dfe09 f   better_sqlite3.obj
 0001:000dee30       __unwindfunclet$?CONCAT@@YA?AV?$basic_string@DU?$char_traits@D@std@@V?$allocator@D@2@@std@@PBD00@Z$0 100dfe30 f   better_sqlite3.obj
 0001:000dee49       __ehhandler$?CONCAT@@YA?AV?$basic_string@DU?$char_traits@D@std@@V?$allocator@D@2@@std@@PBD00@Z 100dfe49 f   better_sqlite3.obj
 0001:000dee70       __unwindfunclet$?Code@CS@@SA?AV?$Local@VString@v8@@@v8@@PAVIsolate@3@H@Z$0 100dfe70 f   better_sqlite3.obj
 0001:000dee78       __unwindfunclet$?Code@CS@@SA?AV?$Local@VString@v8@@@v8@@PAVIsolate@3@H@Z$1 100dfe78 f   better_sqlite3.obj
 0001:000dee80       __ehhandler$?Code@CS@@SA?AV?$Local@VString@v8@@@v8@@PAVIsolate@3@H@Z 100dfe80 f   better_sqlite3.obj
 0001:000deeb0       __unwindfunclet$??__F?constructor@Integer@@0V?$Persistent@VFunction@v8@@V?$NonCopyablePersistentTraits@VFunction@v8@@@2@@v8@@A@@YAXXZ$0 100dfeb0 f   better_sqlite3.obj
 0001:000deeb0       __unwindfunclet$??__F?isInstance@Integer@@0V?$Persistent@VFunction@v8@@V?$NonCopyablePersistentTraits@VFunction@v8@@@2@@v8@@A@@YAXXZ$0 100dfeb0 f   better_sqlite3.obj
 0001:000deeb0       __unwindfunclet$??__F?column@CS@@2V?$Persistent@VString@v8@@V?$NonCopyablePersistentTraits@VString@v8@@@2@@v8@@A@@YAXXZ$0 100dfeb0 f   better_sqlite3.obj
 0001:000deeb0       __unwindfunclet$??__F?database@CS@@2V?$Persistent@VString@v8@@V?$NonCopyablePersistentTraits@VString@v8@@@2@@v8@@A@@YAXXZ$0 100dfeb0 f   better_sqlite3.obj
 0001:000deeb0       __unwindfunclet$??__F?reader@CS@@2V?$Persistent@VString@v8@@V?$NonCopyablePersistentTraits@VString@v8@@@2@@v8@@A@@YAXXZ$0 100dfeb0 f   better_sqlite3.obj
 0001:000deeb0       __unwindfunclet$??__F?source@CS@@2V?$Persistent@VString@v8@@V?$NonCopyablePersistentTraits@VString@v8@@@2@@v8@@A@@YAXXZ$0 100dfeb0 f   better_sqlite3.obj
 0001:000deeb0       __unwindfunclet$??__F?memory@CS@@2V?$Persistent@VString@v8@@V?$NonCopyablePersistentTraits@VString@v8@@@2@@v8@@A@@YAXXZ$0 100dfeb0 f   better_sqlite3.obj
 0001:000deeb0       __unwindfunclet$??__F?readonly@CS@@2V?$Persistent@VString@v8@@V?$NonCopyablePersistentTraits@VString@v8@@@2@@v8@@A@@YAXXZ$0 100dfeb0 f   better_sqlite3.obj
 0001:000deeb0       __unwindfunclet$??__F?name@CS@@2V?$Persistent@VString@v8@@V?$NonCopyablePersistentTraits@VString@v8@@@2@@v8@@A@@YAXXZ$0 100dfeb0 f   better_sqlite3.obj
 0001:000deeb0       __unwindfunclet$??__F?next@CS@@2V?$Persistent@VString@v8@@V?$NonCopyablePersistentTraits@VString@v8@@@2@@v8@@A@@YAXXZ$0 100dfeb0 f   better_sqlite3.obj
 0001:000deeb0       __unwindfunclet$??__F?length@CS@@2V?$Persistent@VString@v8@@V?$NonCopyablePersistentTraits@VString@v8@@@2@@v8@@A@@YAXXZ$0 100dfeb0 f   better_sqlite3.obj
 0001:000deeb0       __unwindfunclet$??__F?done@CS@@2V?$Persistent@VString@v8@@V?$NonCopyablePersistentTraits@VString@v8@@@2@@v8@@A@@YAXXZ$0 100dfeb0 f   better_sqlite3.obj
 0001:000deeb0       __unwindfunclet$??__F?value@CS@@2V?$Persistent@VString@v8@@V?$NonCopyablePersistentTraits@VString@v8@@@2@@v8@@A@@YAXXZ$0 100dfeb0 f   better_sqlite3.obj
 0001:000deeb0       __unwindfunclet$??__F?changes@CS@@2V?$Persistent@VString@v8@@V?$NonCopyablePersistentTraits@VString@v8@@@2@@v8@@A@@YAXXZ$0 100dfeb0 f   better_sqlite3.obj
 0001:000deeb0       __unwindfunclet$??__F?SqliteError@Database@@0V?$Persistent@VFunction@v8@@V?$NonCopyablePersistentTraits@VFunction@v8@@@2@@v8@@A@@YAXXZ$0 100dfeb0 f   better_sqlite3.obj
 0001:000deeb0       __unwindfunclet$??__F?constructor@Statement@@0V?$Persistent@VFunction@v8@@V?$NonCopyablePersistentTraits@VFunction@v8@@@2@@v8@@A@@YAXXZ$0 100dfeb0 f   better_sqlite3.obj
 0001:000deeb0       __unwindfunclet$??__F?remainingPages@CS@@2V?$Persistent@VString@v8@@V?$NonCopyablePersistentTraits@VString@v8@@@2@@v8@@A@@YAXXZ$0 100dfeb0 f   better_sqlite3.obj
 0001:000deeb0       __unwindfunclet$??__F?code@CS@@2V?$Persistent@VString@v8@@V?$NonCopyablePersistentTraits@VString@v8@@@2@@v8@@A@@YAXXZ$0 100dfeb0 f   better_sqlite3.obj
 0001:000deeb0       __unwindfunclet$??__F?constructor@StatementIterator@@0V?$Persistent@VFunction@v8@@V?$NonCopyablePersistentTraits@VFunction@v8@@@2@@v8@@A@@YAXXZ$0 100dfeb0 f   better_sqlite3.obj
 0001:000deeb0       __unwindfunclet$??__F?constructor@Backup@@0V?$Persistent@VFunction@v8@@V?$NonCopyablePersistentTraits@VFunction@v8@@@2@@v8@@A@@YAXXZ$0 100dfeb0 f   better_sqlite3.obj
 0001:000deeb0       __unwindfunclet$??__F?totalPages@CS@@2V?$Persistent@VString@v8@@V?$NonCopyablePersistentTraits@VString@v8@@@2@@v8@@A@@YAXXZ$0 100dfeb0 f   better_sqlite3.obj
 0001:000deeb0       __unwindfunclet$??__F?statement@CS@@2V?$Persistent@VString@v8@@V?$NonCopyablePersistentTraits@VString@v8@@@2@@v8@@A@@YAXXZ$0 100dfeb0 f   better_sqlite3.obj
 0001:000deeb0       __unwindfunclet$??__F?type@CS@@2V?$Persistent@VString@v8@@V?$NonCopyablePersistentTraits@VString@v8@@@2@@v8@@A@@YAXXZ$0 100dfeb0 f   better_sqlite3.obj
 0001:000deeb0       __unwindfunclet$??__F?lastInsertRowid@CS@@2V?$Persistent@VString@v8@@V?$NonCopyablePersistentTraits@VString@v8@@@2@@v8@@A@@YAXXZ$0 100dfeb0 f   better_sqlite3.obj
 0001:000deeb0       __unwindfunclet$??__F?table@CS@@2V?$Persistent@VString@v8@@V?$NonCopyablePersistentTraits@VString@v8@@@2@@v8@@A@@YAXXZ$0 100dfeb0 f   better_sqlite3.obj
 0001:000deeb6       __ehhandler$??__F?table@CS@@2V?$Persistent@VString@v8@@V?$NonCopyablePersistentTraits@VString@v8@@@2@@v8@@A@@YAXXZ 100dfeb6 f   better_sqlite3.obj
 0001:000deeb6       __ehhandler$??__F?type@CS@@2V?$Persistent@VString@v8@@V?$NonCopyablePersistentTraits@VString@v8@@@2@@v8@@A@@YAXXZ 100dfeb6 f   better_sqlite3.obj
 0001:000deeb6       __ehhandler$??__F?column@CS@@2V?$Persistent@VString@v8@@V?$NonCopyablePersistentTraits@VString@v8@@@2@@v8@@A@@YAXXZ 100dfeb6 f   better_sqlite3.obj
 0001:000deeb6       __ehhandler$??__F?totalPages@CS@@2V?$Persistent@VString@v8@@V?$NonCopyablePersistentTraits@VString@v8@@@2@@v8@@A@@YAXXZ 100dfeb6 f   better_sqlite3.obj
 0001:000deeb6       __ehhandler$??__F?remainingPages@CS@@2V?$Persistent@VString@v8@@V?$NonCopyablePersistentTraits@VString@v8@@@2@@v8@@A@@YAXXZ 100dfeb6 f   better_sqlite3.obj
 0001:000deeb6       __ehhandler$??__F?value@CS@@2V?$Persistent@VString@v8@@V?$NonCopyablePersistentTraits@VString@v8@@@2@@v8@@A@@YAXXZ 100dfeb6 f   better_sqlite3.obj
 0001:000deeb6       __ehhandler$??__F?length@CS@@2V?$Persistent@VString@v8@@V?$NonCopyablePersistentTraits@VString@v8@@@2@@v8@@A@@YAXXZ 100dfeb6 f   better_sqlite3.obj
 0001:000deeb6       __ehhandler$??__F?changes@CS@@2V?$Persistent@VString@v8@@V?$NonCopyablePersistentTraits@VString@v8@@@2@@v8@@A@@YAXXZ 100dfeb6 f   better_sqlite3.obj
 0001:000deeb6       __ehhandler$??__F?next@CS@@2V?$Persistent@VString@v8@@V?$NonCopyablePersistentTraits@VString@v8@@@2@@v8@@A@@YAXXZ 100dfeb6 f   better_sqlite3.obj
 0001:000deeb6       __ehhandler$??__F?SqliteError@Database@@0V?$Persistent@VFunction@v8@@V?$NonCopyablePersistentTraits@VFunction@v8@@@2@@v8@@A@@YAXXZ 100dfeb6 f   better_sqlite3.obj
 0001:000deeb6       __ehhandler$??__F?constructor@Integer@@0V?$Persistent@VFunction@v8@@V?$NonCopyablePersistentTraits@VFunction@v8@@@2@@v8@@A@@YAXXZ 100dfeb6 f   better_sqlite3.obj
 0001:000deeb6       __ehhandler$??__F?isInstance@Integer@@0V?$Persistent@VFunction@v8@@V?$NonCopyablePersistentTraits@VFunction@v8@@@2@@v8@@A@@YAXXZ 100dfeb6 f   better_sqlite3.obj
 0001:000deeb6       __ehhandler$??__F?name@CS@@2V?$Persistent@VString@v8@@V?$NonCopyablePersistentTraits@VString@v8@@@2@@v8@@A@@YAXXZ 100dfeb6 f   better_sqlite3.obj
 0001:000deeb6       __ehhandler$??__F?lastInsertRowid@CS@@2V?$Persistent@VString@v8@@V?$NonCopyablePersistentTraits@VString@v8@@@2@@v8@@A@@YAXXZ 100dfeb6 f   better_sqlite3.obj
 0001:000deeb6       __ehhandler$??__F?readonly@CS@@2V?$Persistent@VString@v8@@V?$NonCopyablePersistentTraits@VString@v8@@@2@@v8@@A@@YAXXZ 100dfeb6 f   better_sqlite3.obj
 0001:000deeb6       __ehhandler$??__F?constructor@Statement@@0V?$Persistent@VFunction@v8@@V?$NonCopyablePersistentTraits@VFunction@v8@@@2@@v8@@A@@YAXXZ 100dfeb6 f   better_sqlite3.obj
 0001:000deeb6       __ehhandler$??__F?memory@CS@@2V?$Persistent@VString@v8@@V?$NonCopyablePersistentTraits@VString@v8@@@2@@v8@@A@@YAXXZ 100dfeb6 f   better_sqlite3.obj
 0001:000deeb6       __ehhandler$??__F?code@CS@@2V?$Persistent@VString@v8@@V?$NonCopyablePersistentTraits@VString@v8@@@2@@v8@@A@@YAXXZ 100dfeb6 f   better_sqlite3.obj
 0001:000deeb6       __ehhandler$??__F?source@CS@@2V?$Persistent@VString@v8@@V?$NonCopyablePersistentTraits@VString@v8@@@2@@v8@@A@@YAXXZ 100dfeb6 f   better_sqlite3.obj
 0001:000deeb6       __ehhandler$??__F?reader@CS@@2V?$Persistent@VString@v8@@V?$NonCopyablePersistentTraits@VString@v8@@@2@@v8@@A@@YAXXZ 100dfeb6 f   better_sqlite3.obj
 0001:000deeb6       __ehhandler$??__F?done@CS@@2V?$Persistent@VString@v8@@V?$NonCopyablePersistentTraits@VString@v8@@@2@@v8@@A@@YAXXZ 100dfeb6 f   better_sqlite3.obj
 0001:000deeb6       __ehhandler$??__F?constructor@Backup@@0V?$Persistent@VFunction@v8@@V?$NonCopyablePersistentTraits@VFunction@v8@@@2@@v8@@A@@YAXXZ 100dfeb6 f   better_sqlite3.obj
 0001:000deeb6       __ehhandler$??__F?constructor@StatementIterator@@0V?$Persistent@VFunction@v8@@V?$NonCopyablePersistentTraits@VFunction@v8@@@2@@v8@@A@@YAXXZ 100dfeb6 f   better_sqlite3.obj
 0001:000deeb6       __ehhandler$??__F?statement@CS@@2V?$Persistent@VString@v8@@V?$NonCopyablePersistentTraits@VString@v8@@@2@@v8@@A@@YAXXZ 100dfeb6 f   better_sqlite3.obj
 0001:000deeb6       __ehhandler$??__F?database@CS@@2V?$Persistent@VString@v8@@V?$NonCopyablePersistentTraits@VString@v8@@@2@@v8@@A@@YAXXZ 100dfeb6 f   better_sqlite3.obj
 0001:000deee0       __unwindfunclet$??1BindMap@@QAE@XZ$2 100dfee0 f   better_sqlite3.obj
 0001:000deee6       __ehhandler$??1BindMap@@QAE@XZ 100dfee6 f   better_sqlite3.obj
 0001:000def10       __unwindfunclet$?Grow@BindMap@@AAEXPAVIsolate@v8@@@Z$0 100dff10 f   better_sqlite3.obj
 0001:000def15       __unwindfunclet$?Grow@BindMap@@AAEXPAVIsolate@v8@@@Z$4 100dff15 f   better_sqlite3.obj
 0001:000def1b       __ehhandler$?Grow@BindMap@@AAEXPAVIsolate@v8@@@Z 100dff1b f   better_sqlite3.obj
 0001:000def40       __unwindfunclet$??1Database@@UAE@XZ$2 100dff40 f   better_sqlite3.obj
 0001:000def46       __unwindfunclet$??1Database@@UAE@XZ$3 100dff46 f   better_sqlite3.obj
 0001:000def4c       __unwindfunclet$??1Database@@UAE@XZ$4 100dff4c f   better_sqlite3.obj
 0001:000def52       __ehhandler$??1Database@@UAE@XZ 100dff52 f   better_sqlite3.obj
 0001:000def70       __unwindfunclet$??0Database@@AAE@PAUsqlite3@@PAVIsolate@v8@@V?$Local@VValue@v8@@@3@@Z$0 100dff70 f   better_sqlite3.obj
 0001:000def78       __unwindfunclet$??0Database@@AAE@PAUsqlite3@@PAVIsolate@v8@@V?$Local@VValue@v8@@@3@@Z$1 100dff78 f   better_sqlite3.obj
 0001:000def83       __unwindfunclet$??0Database@@AAE@PAUsqlite3@@PAVIsolate@v8@@V?$Local@VValue@v8@@@3@@Z$2 100dff83 f   better_sqlite3.obj
 0001:000def8e       __unwindfunclet$??0Database@@AAE@PAUsqlite3@@PAVIsolate@v8@@V?$Local@VValue@v8@@@3@@Z$3 100dff8e f   better_sqlite3.obj
 0001:000def99       __ehhandler$??0Database@@AAE@PAUsqlite3@@PAVIsolate@v8@@V?$Local@VValue@v8@@@3@@Z 100dff99 f   better_sqlite3.obj
 0001:000defc0       __unwindfunclet$?JS_new@Database@@CAXABV?$FunctionCallbackInfo@VValue@v8@@@v8@@@Z$0 100dffc0 f   better_sqlite3.obj
 0001:000defc9       __unwindfunclet$?JS_new@Database@@CAXABV?$FunctionCallbackInfo@VValue@v8@@@v8@@@Z$1 100dffc9 f   better_sqlite3.obj
 0001:000defd8       __ehhandler$?JS_new@Database@@CAXABV?$FunctionCallbackInfo@VValue@v8@@@v8@@@Z 100dffd8 f   better_sqlite3.obj
 0001:000df000       __unwindfunclet$?JS_exec@Database@@CAXABV?$FunctionCallbackInfo@VValue@v8@@@v8@@@Z$0 100e0000 f   better_sqlite3.obj
 0001:000df009       __ehhandler$?JS_exec@Database@@CAXABV?$FunctionCallbackInfo@VValue@v8@@@v8@@@Z 100e0009 f   better_sqlite3.obj
 0001:000df030       __unwindfunclet$?JS_checkpoint@Database@@CAXABV?$FunctionCallbackInfo@VValue@v8@@@v8@@@Z$0 100e0030 f   better_sqlite3.obj
 0001:000df039       __unwindfunclet$?JS_checkpoint@Database@@CAXABV?$FunctionCallbackInfo@VValue@v8@@@v8@@@Z$1 100e0039 f   better_sqlite3.obj
 0001:000df041       __unwindfunclet$?JS_checkpoint@Database@@CAXABV?$FunctionCallbackInfo@VValue@v8@@@v8@@@Z$2 100e0041 f   better_sqlite3.obj
 0001:000df046       __ehhandler$?JS_checkpoint@Database@@CAXABV?$FunctionCallbackInfo@VValue@v8@@@v8@@@Z 100e0046 f   better_sqlite3.obj
 0001:000df070       __unwindfunclet$?JS_function@Database@@CAXABV?$FunctionCallbackInfo@VValue@v8@@@v8@@@Z$0 100e0070 f   better_sqlite3.obj
 0001:000df079       __unwindfunclet$?JS_function@Database@@CAXABV?$FunctionCallbackInfo@VValue@v8@@@v8@@@Z$1 100e0079 f   better_sqlite3.obj
 0001:000df088       __ehhandler$?JS_function@Database@@CAXABV?$FunctionCallbackInfo@VValue@v8@@@v8@@@Z 100e0088 f   better_sqlite3.obj
 0001:000df0b0       __unwindfunclet$?JS_aggregate@Database@@CAXABV?$FunctionCallbackInfo@VValue@v8@@@v8@@@Z$0 100e00b0 f   better_sqlite3.obj
 0001:000df0b9       __unwindfunclet$?JS_aggregate@Database@@CAXABV?$FunctionCallbackInfo@VValue@v8@@@v8@@@Z$1 100e00b9 f   better_sqlite3.obj
 0001:000df0c8       __ehhandler$?JS_aggregate@Database@@CAXABV?$FunctionCallbackInfo@VValue@v8@@@v8@@@Z 100e00c8 f   better_sqlite3.obj
 0001:000df0f0       __unwindfunclet$?JS_loadExtension@Database@@CAXABV?$FunctionCallbackInfo@VValue@v8@@@v8@@@Z$0 100e00f0 f   better_sqlite3.obj
 0001:000df0f9       __ehhandler$?JS_loadExtension@Database@@CAXABV?$FunctionCallbackInfo@VValue@v8@@@v8@@@Z 100e00f9 f   better_sqlite3.obj
 0001:000df120       __unwindfunclet$?GetBindMap@Statement@@QAEPAVBindMap@@PAVIsolate@v8@@@Z$0 100e0120 f   better_sqlite3.obj
 0001:000df125       __ehhandler$?GetBindMap@Statement@@QAEPAVBindMap@@PAVIsolate@v8@@@Z 100e0125 f   better_sqlite3.obj
 0001:000df140       __unwindfunclet$??1Statement@@UAE@XZ$2 100e0140 f   better_sqlite3.obj
 0001:000df146       __unwindfunclet$??1Statement@@UAE@XZ$3 100e0146 f   better_sqlite3.obj
 0001:000df14c       __ehhandler$??1Statement@@UAE@XZ 100e014c f   better_sqlite3.obj
 0001:000df170       __unwindfunclet$??0Statement@@AAE@PAVDatabase@@PAUsqlite3_stmt@@_N@Z$0 100e0170 f   better_sqlite3.obj
 0001:000df178       __ehhandler$??0Statement@@AAE@PAVDatabase@@PAUsqlite3_stmt@@_N@Z 100e0178 f   better_sqlite3.obj
 0001:000df1a0       __unwindfunclet$?JS_new@Statement@@CAXABV?$FunctionCallbackInfo@VValue@v8@@@v8@@@Z$0 100e01a0 f   better_sqlite3.obj
 0001:000df1a9       __unwindfunclet$?JS_new@Statement@@CAXABV?$FunctionCallbackInfo@VValue@v8@@@v8@@@Z$1 100e01a9 f   better_sqlite3.obj
 0001:000df1b8       __ehhandler$?JS_new@Statement@@CAXABV?$FunctionCallbackInfo@VValue@v8@@@v8@@@Z 100e01b8 f   better_sqlite3.obj
 0001:000df1e0       __unwindfunclet$?CloseHandles@Backup@@QAEXXZ$0 100e01e0 f   better_sqlite3.obj
 0001:000df1e8       __ehhandler$?CloseHandles@Backup@@QAEXXZ 100e01e8 f   better_sqlite3.obj
 0001:000df210       __unwindfunclet$??0Backup@@AAE@PAVDatabase@@PAUsqlite3@@PAUsqlite3_backup@@_N@Z$0 100e0210 f   better_sqlite3.obj
 0001:000df218       __ehhandler$??0Backup@@AAE@PAVDatabase@@PAUsqlite3@@PAUsqlite3_backup@@_N@Z 100e0218 f   better_sqlite3.obj
 0001:000df240       __unwindfunclet$?JS_new@Backup@@CAXABV?$FunctionCallbackInfo@VValue@v8@@@v8@@@Z$0 100e0240 f   better_sqlite3.obj
 0001:000df249       __unwindfunclet$?JS_new@Backup@@CAXABV?$FunctionCallbackInfo@VValue@v8@@@v8@@@Z$1 100e0249 f   better_sqlite3.obj
 0001:000df252       __unwindfunclet$?JS_new@Backup@@CAXABV?$FunctionCallbackInfo@VValue@v8@@@v8@@@Z$2 100e0252 f   better_sqlite3.obj
 0001:000df261       __ehhandler$?JS_new@Backup@@CAXABV?$FunctionCallbackInfo@VValue@v8@@@v8@@@Z 100e0261 f   better_sqlite3.obj
 0001:000df280       __unwindfunclet$?xFunc@CustomFunction@@SAXPAUsqlite3_context@@HPAPAUsqlite3_value@@@Z$0 100e0280 f   better_sqlite3.obj
 0001:000df289       __ehhandler$?xFunc@CustomFunction@@SAXPAUsqlite3_context@@HPAPAUsqlite3_value@@@Z 100e0289 f   better_sqlite3.obj
 0001:000df2b0       __unwindfunclet$?ThrowResultValueError@CustomFunction@@QAEXPAUsqlite3_context@@@Z$0 100e02b0 f   better_sqlite3.obj
 0001:000df2b8       __ehhandler$?ThrowResultValueError@CustomFunction@@QAEXPAUsqlite3_context@@@Z 100e02b8 f   better_sqlite3.obj
 0001:000df2e0       __unwindfunclet$??0CustomAggregate@@QAE@PAVIsolate@v8@@PAVDatabase@@V?$Local@VValue@v8@@@2@V?$Local@VFunction@v8@@@2@22PBD_N@Z$0 100e02e0 f   better_sqlite3.obj
 0001:000df2e8       __unwindfunclet$??0CustomAggregate@@QAE@PAVIsolate@v8@@PAVDatabase@@V?$Local@VValue@v8@@@2@V?$Local@VFunction@v8@@@2@22PBD_N@Z$1 100e02e8 f   better_sqlite3.obj
 0001:000df2f3       __unwindfunclet$??0CustomAggregate@@QAE@PAVIsolate@v8@@PAVDatabase@@V?$Local@VValue@v8@@@2@V?$Local@VFunction@v8@@@2@22PBD_N@Z$2 100e02f3 f   better_sqlite3.obj
 0001:000df2fe       __ehhandler$??0CustomAggregate@@QAE@PAVIsolate@v8@@PAVDatabase@@V?$Local@VValue@v8@@@2@V?$Local@VFunction@v8@@@2@22PBD_N@Z 100e02fe f   better_sqlite3.obj
 0001:000df320       __unwindfunclet$??1CustomAggregate@@UAE@XZ$0 100e0320 f   better_sqlite3.obj
 0001:000df326       __unwindfunclet$??1CustomAggregate@@UAE@XZ$1 100e0326 f   better_sqlite3.obj
 0001:000df32c       __unwindfunclet$??1CustomAggregate@@UAE@XZ$2 100e032c f   better_sqlite3.obj
 0001:000df332       __unwindfunclet$??1CustomAggregate@@UAE@XZ$4 100e0332 f   better_sqlite3.obj
 0001:000df338       __ehhandler$??1CustomAggregate@@UAE@XZ 100e0338 f   better_sqlite3.obj
 0001:000df360       __unwindfunclet$?BindValueFromJS@Data@@YAHPAVIsolate@v8@@PAUsqlite3_stmt@@HV?$Local@VValue@v8@@@3@@Z$0 100e0360 f   better_sqlite3.obj
 0001:000df360       __unwindfunclet$?ResultValueFromJS@Data@@YAXPAVIsolate@v8@@PAUsqlite3_context@@V?$Local@VValue@v8@@@3@PAVCustomFunction@@@Z$0 100e0360 f   better_sqlite3.obj
 0001:000df369       __ehhandler$?ResultValueFromJS@Data@@YAXPAVIsolate@v8@@PAUsqlite3_context@@V?$Local@VValue@v8@@@3@PAVCustomFunction@@@Z 100e0369 f   better_sqlite3.obj
 0001:000df369       __ehhandler$?BindValueFromJS@Data@@YAHPAVIsolate@v8@@PAUsqlite3_stmt@@HV?$Local@VValue@v8@@@3@@Z 100e0369 f   better_sqlite3.obj
 0001:000df390       __unwindfunclet$?BindObject@Binder@@AAEHPAVIsolate@v8@@V?$Local@VObject@v8@@@3@PAVStatement@@@Z$0 100e0390 f   better_sqlite3.obj
 0001:000df399       __unwindfunclet$?BindObject@Binder@@AAEHPAVIsolate@v8@@V?$Local@VObject@v8@@@3@PAVStatement@@@Z$1 100e0399 f   better_sqlite3.obj
 0001:000df3a1       __ehhandler$?BindObject@Binder@@AAEHPAVIsolate@v8@@V?$Local@VObject@v8@@@3@PAVStatement@@@Z 100e03a1 f   better_sqlite3.obj
 0001:000df3d0       __unwindfunclet$?RegisterModule@@YAXV?$Local@VObject@v8@@@v8@@0@Z$0 100e03d0 f   better_sqlite3.obj
 0001:000df3d9       __ehhandler$?RegisterModule@@YAXV?$Local@VObject@v8@@@v8@@0@Z 100e03d9 f   better_sqlite3.obj
 0001:000df400       __unwindfunclet$??1?$_Hash@V?$_Umap_traits@HV?$Persistent@VString@v8@@V?$NonCopyablePersistentTraits@VString@v8@@@2@@v8@@V?$_Uhash_compare@HU?$hash@H@std@@U?$equal_to@H@2@@std@@V?$allocator@U?$pair@$$CBHV?$Persistent@VString@v8@@V?$NonCopyablePersistentTraits@VString@v8@@@2@@v8@@@std@@@4@$0A@@std@@@std@@QAE@XZ$2 100e0400 f   better_sqlite3.obj
 0001:000df406       __ehhandler$??1?$_Hash@V?$_Umap_traits@HV?$Persistent@VString@v8@@V?$NonCopyablePersistentTraits@VString@v8@@@2@@v8@@V?$_Uhash_compare@HU?$hash@H@std@@U?$equal_to@H@2@@std@@V?$allocator@U?$pair@$$CBHV?$Persistent@VString@v8@@V?$NonCopyablePersistentTraits@VString@v8@@@2@@v8@@@std@@@4@$0A@@std@@@std@@QAE@XZ 100e0406 f   better_sqlite3.obj
 0001:000df430       __ehhandler$??1?$Persistent@VFunction@v8@@U?$CopyablePersistentTraits@VFunction@v8@@@2@@v8@@QAE@XZ 100e0430 f   better_sqlite3.obj
 0001:000df430       __ehhandler$??1?$Persistent@VValue@v8@@U?$CopyablePersistentTraits@VValue@v8@@@2@@v8@@QAE@XZ 100e0430 f   better_sqlite3.obj
 0001:000df450       __unwindfunclet$??1?$list@U?$pair@$$CBHV?$Persistent@VString@v8@@V?$NonCopyablePersistentTraits@VString@v8@@@2@@v8@@@std@@V?$allocator@U?$pair@$$CBHV?$Persistent@VString@v8@@V?$NonCopyablePersistentTraits@VString@v8@@@2@@v8@@@std@@@2@@std@@QAE@XZ$2 100e0450 f   better_sqlite3.obj
 0001:000df456       __ehhandler$??1?$list@U?$pair@$$CBHV?$Persistent@VString@v8@@V?$NonCopyablePersistentTraits@VString@v8@@@2@@v8@@@std@@V?$allocator@U?$pair@$$CBHV?$Persistent@VString@v8@@V?$NonCopyablePersistentTraits@VString@v8@@@2@@v8@@@std@@@2@@std@@QAE@XZ 100e0456 f   better_sqlite3.obj
 0001:000df480       __unwindfunclet$??0?$_Hash@V?$_Umap_traits@HV?$Persistent@VString@v8@@V?$NonCopyablePersistentTraits@VString@v8@@@2@@v8@@V?$_Uhash_compare@HU?$hash@H@std@@U?$equal_to@H@2@@std@@V?$allocator@U?$pair@$$CBHV?$Persistent@VString@v8@@V?$NonCopyablePersistentTraits@VString@v8@@@2@@v8@@@std@@@4@$0A@@std@@@std@@QAE@ABV?$_Uhash_compare@HU?$hash@H@std@@U?$equal_to@H@2@@1@ABV?$allocator@U?$pair@$$CBHV?$Persistent@VString@v8@@V?$NonCopyablePersistentTraits@VString@v8@@@2@@v8@@@std@@@1@@Z$0 100e0480 f   better_sqlite3.obj
 0001:000df48b       __unwindfunclet$??0?$_Hash@V?$_Umap_traits@HV?$Persistent@VString@v8@@V?$NonCopyablePersistentTraits@VString@v8@@@2@@v8@@V?$_Uhash_compare@HU?$hash@H@std@@U?$equal_to@H@2@@std@@V?$allocator@U?$pair@$$CBHV?$Persistent@VString@v8@@V?$NonCopyablePersistentTraits@VString@v8@@@2@@v8@@@std@@@4@$0A@@std@@@std@@QAE@ABV?$_Uhash_compare@HU?$hash@H@std@@U?$equal_to@H@2@@1@ABV?$allocator@U?$pair@$$CBHV?$Persistent@VString@v8@@V?$NonCopyablePersistentTraits@VString@v8@@@2@@v8@@@std@@@1@@Z$1 100e048b f   better_sqlite3.obj
 0001:000df496       __ehhandler$??0?$_Hash@V?$_Umap_traits@HV?$Persistent@VString@v8@@V?$NonCopyablePersistentTraits@VString@v8@@@2@@v8@@V?$_Uhash_compare@HU?$hash@H@std@@U?$equal_to@H@2@@std@@V?$allocator@U?$pair@$$CBHV?$Persistent@VString@v8@@V?$NonCopyablePersistentTraits@VString@v8@@@2@@v8@@@std@@@4@$0A@@std@@@std@@QAE@ABV?$_Uhash_compare@HU?$hash@H@std@@U?$equal_to@H@2@@1@ABV?$allocator@U?$pair@$$CBHV?$Persistent@VString@v8@@V?$NonCopyablePersistentTraits@VString@v8@@@2@@v8@@@std@@@1@@Z 100e0496 f   better_sqlite3.obj
 0001:000df4c0       __unwindfunclet$??$_Insert@AAU?$pair@$$CBHV?$Persistent@VString@v8@@V?$NonCopyablePersistentTraits@VString@v8@@@2@@v8@@@std@@V?$_List_unchecked_iterator@V?$_List_val@U?$_List_simple_types@U?$pair@$$CBHV?$Persistent@VString@v8@@V?$NonCopyablePersistentTraits@VString@v8@@@2@@v8@@@std@@@std@@@std@@@2@@?$_Hash@V?$_Umap_traits@HV?$Persistent@VString@v8@@V?$NonCopyablePersistentTraits@VString@v8@@@2@@v8@@V?$_Uhash_compare@HU?$hash@H@std@@U?$equal_to@H@2@@std@@V?$allocator@U?$pair@$$CBHV?$Persistent@VString@v8@@V?$NonCopyablePersistentTraits@VString@v8@@@2@@v8@@@std@@@4@$0A@@std@@@std@@IAE?AU?$pair@V?$_List_iterator@V?$_List_val@U?$_List_simple_types@U?$pair@$$CBHV?$Persistent@VString@v8@@V?$NonCopyablePersistentTraits@VString@v8@@@2@@v8@@@std@@@std@@@std@@@std@@_N@1@AAU?$pair@$$CBHV?$Persistent@VString@v8@@V?$NonCopyablePersistentTraits@VString@v8@@@2@@v8@@@1@V?$_List_unchecked_iterator@V?$_List_val@U?$_List_simple_types@U?$pair@$$CBHV?$Persistent@VString@v8@@V?$NonCopyablePersistentTraits@VString@v8@@@2@@v8@@@std@@@std@@@std@@@1@@Z$2 100e04c0 f   better_sqlite3.obj
 0001:000df4c6       __ehhandler$??$_Insert@AAU?$pair@$$CBHV?$Persistent@VString@v8@@V?$NonCopyablePersistentTraits@VString@v8@@@2@@v8@@@std@@V?$_List_unchecked_iterator@V?$_List_val@U?$_List_simple_types@U?$pair@$$CBHV?$Persistent@VString@v8@@V?$NonCopyablePersistentTraits@VString@v8@@@2@@v8@@@std@@@std@@@std@@@2@@?$_Hash@V?$_Umap_traits@HV?$Persistent@VString@v8@@V?$NonCopyablePersistentTraits@VString@v8@@@2@@v8@@V?$_Uhash_compare@HU?$hash@H@std@@U?$equal_to@H@2@@std@@V?$allocator@U?$pair@$$CBHV?$Persistent@VString@v8@@V?$NonCopyablePersistentTraits@VString@v8@@@2@@v8@@@std@@@4@$0A@@std@@@std@@IAE?AU?$pair@V?$_List_iterator@V?$_List_val@U?$_List_simple_types@U?$pair@$$CBHV?$Persistent@VString@v8@@V?$NonCopyablePersistentTraits@VString@v8@@@2@@v8@@@std@@@std@@@std@@@std@@_N@1@AAU?$pair@$$CBHV?$Persistent@VString@v8@@V?$NonCopyablePersistentTraits@VString@v8@@@2@@v8@@@1@V?$_List_unchecked_iterator@V?$_List_val@U?$_List_simple_types@U?$pair@$$CBHV?$Persistent@VString@v8@@V?$NonCopyablePersistentTraits@VString@v8@@@2@@v8@@@std@@@std@@@std@@@1@@Z 100e04c6 f   better_sqlite3.obj
 0001:000df4f0       __unwindfunclet$??$_Buynode@ABUpiecewise_construct_t@std@@V?$tuple@AAH@2@V?$tuple@AAPAVIsolate@v8@@$$QAV?$Local@VString@v8@@@2@@2@@?$_List_buy@U?$pair@$$CBHV?$Persistent@VString@v8@@V?$NonCopyablePersistentTraits@VString@v8@@@2@@v8@@@std@@V?$allocator@U?$pair@$$CBHV?$Persistent@VString@v8@@V?$NonCopyablePersistentTraits@VString@v8@@@2@@v8@@@std@@@2@@std@@QAEPAU?$_List_node@U?$pair@$$CBHV?$Persistent@VString@v8@@V?$NonCopyablePersistentTraits@VString@v8@@@2@@v8@@@std@@PAX@1@PAU21@0ABUpiecewise_construct_t@1@$$QAV?$tuple@AAH@1@$$QAV?$tuple@AAPAVIsolate@v8@@$$QAV?$Local@VString@v8@@@2@@1@@Z$0 100e04f0 f   better_sqlite3.obj
 0001:000df4f5       __ehhandler$??$_Buynode@ABUpiecewise_construct_t@std@@V?$tuple@AAH@2@V?$tuple@AAPAVIsolate@v8@@$$QAV?$Local@VString@v8@@@2@@2@@?$_List_buy@U?$pair@$$CBHV?$Persistent@VString@v8@@V?$NonCopyablePersistentTraits@VString@v8@@@2@@v8@@@std@@V?$allocator@U?$pair@$$CBHV?$Persistent@VString@v8@@V?$NonCopyablePersistentTraits@VString@v8@@@2@@v8@@@std@@@2@@std@@QAEPAU?$_List_node@U?$pair@$$CBHV?$Persistent@VString@v8@@V?$NonCopyablePersistentTraits@VString@v8@@@2@@v8@@@std@@PAX@1@PAU21@0ABUpiecewise_construct_t@1@$$QAV?$tuple@AAH@1@$$QAV?$tuple@AAPAVIsolate@v8@@$$QAV?$Local@VString@v8@@@2@@1@@Z 100e04f5 f   better_sqlite3.obj
 0001:000df510       __ehhandler$?CallUnexpected@@YAXPBU_s_ESTypeList@@@Z 100e0510 f   libvcruntime:frame.obj
 0001:000df530       ??__F?database@CS@@2V?$Persistent@VString@v8@@V?$NonCopyablePersistentTraits@VString@v8@@@2@@v8@@A@@YAXXZ 100e0530 f   better_sqlite3.obj
 0001:000df570       ??__F?reader@CS@@2V?$Persistent@VString@v8@@V?$NonCopyablePersistentTraits@VString@v8@@@2@@v8@@A@@YAXXZ 100e0570 f   better_sqlite3.obj
 0001:000df5b0       ??__F?source@CS@@2V?$Persistent@VString@v8@@V?$NonCopyablePersistentTraits@VString@v8@@@2@@v8@@A@@YAXXZ 100e05b0 f   better_sqlite3.obj
 0001:000df5f0       ??__F?memory@CS@@2V?$Persistent@VString@v8@@V?$NonCopyablePersistentTraits@VString@v8@@@2@@v8@@A@@YAXXZ 100e05f0 f   better_sqlite3.obj
 0001:000df630       ??__F?readonly@CS@@2V?$Persistent@VString@v8@@V?$NonCopyablePersistentTraits@VString@v8@@@2@@v8@@A@@YAXXZ 100e0630 f   better_sqlite3.obj
 0001:000df670       ??__F?name@CS@@2V?$Persistent@VString@v8@@V?$NonCopyablePersistentTraits@VString@v8@@@2@@v8@@A@@YAXXZ 100e0670 f   better_sqlite3.obj
 0001:000df6b0       ??__F?next@CS@@2V?$Persistent@VString@v8@@V?$NonCopyablePersistentTraits@VString@v8@@@2@@v8@@A@@YAXXZ 100e06b0 f   better_sqlite3.obj
 0001:000df6f0       ??__F?length@CS@@2V?$Persistent@VString@v8@@V?$NonCopyablePersistentTraits@VString@v8@@@2@@v8@@A@@YAXXZ 100e06f0 f   better_sqlite3.obj
 0001:000df730       ??__F?done@CS@@2V?$Persistent@VString@v8@@V?$NonCopyablePersistentTraits@VString@v8@@@2@@v8@@A@@YAXXZ 100e0730 f   better_sqlite3.obj
 0001:000df770       ??__F?value@CS@@2V?$Persistent@VString@v8@@V?$NonCopyablePersistentTraits@VString@v8@@@2@@v8@@A@@YAXXZ 100e0770 f   better_sqlite3.obj
 0001:000df7b0       ??__F?changes@CS@@2V?$Persistent@VString@v8@@V?$NonCopyablePersistentTraits@VString@v8@@@2@@v8@@A@@YAXXZ 100e07b0 f   better_sqlite3.obj
 0001:000df7f0       ??__F?lastInsertRowid@CS@@2V?$Persistent@VString@v8@@V?$NonCopyablePersistentTraits@VString@v8@@@2@@v8@@A@@YAXXZ 100e07f0 f   better_sqlite3.obj
 0001:000df830       ??__F?code@CS@@2V?$Persistent@VString@v8@@V?$NonCopyablePersistentTraits@VString@v8@@@2@@v8@@A@@YAXXZ 100e0830 f   better_sqlite3.obj
 0001:000df870       ??__F?statement@CS@@2V?$Persistent@VString@v8@@V?$NonCopyablePersistentTraits@VString@v8@@@2@@v8@@A@@YAXXZ 100e0870 f   better_sqlite3.obj
 0001:000df8b0       ??__F?column@CS@@2V?$Persistent@VString@v8@@V?$NonCopyablePersistentTraits@VString@v8@@@2@@v8@@A@@YAXXZ 100e08b0 f   better_sqlite3.obj
 0001:000df8f0       ??__F?table@CS@@2V?$Persistent@VString@v8@@V?$NonCopyablePersistentTraits@VString@v8@@@2@@v8@@A@@YAXXZ 100e08f0 f   better_sqlite3.obj
 0001:000df930       ??__F?type@CS@@2V?$Persistent@VString@v8@@V?$NonCopyablePersistentTraits@VString@v8@@@2@@v8@@A@@YAXXZ 100e0930 f   better_sqlite3.obj
 0001:000df970       ??__F?totalPages@CS@@2V?$Persistent@VString@v8@@V?$NonCopyablePersistentTraits@VString@v8@@@2@@v8@@A@@YAXXZ 100e0970 f   better_sqlite3.obj
 0001:000df9b0       ??__F?remainingPages@CS@@2V?$Persistent@VString@v8@@V?$NonCopyablePersistentTraits@VString@v8@@@2@@v8@@A@@YAXXZ 100e09b0 f   better_sqlite3.obj
 0001:000df9f0       ??__F?codes@CS@@0V?$unordered_map@HV?$Persistent@VString@v8@@V?$NonCopyablePersistentTraits@VString@v8@@@2@@v8@@U?$hash@H@std@@U?$equal_to@H@4@V?$allocator@U?$pair@$$CBHV?$Persistent@VString@v8@@V?$NonCopyablePersistentTraits@VString@v8@@@2@@v8@@@std@@@4@@std@@A@@YAXXZ 100e09f0 f   better_sqlite3.obj
 0001:000dfa00       ??__F?constructor@Integer@@0V?$Persistent@VFunction@v8@@V?$NonCopyablePersistentTraits@VFunction@v8@@@2@@v8@@A@@YAXXZ 100e0a00 f   better_sqlite3.obj
 0001:000dfa40       ??__F?isInstance@Integer@@0V?$Persistent@VFunction@v8@@V?$NonCopyablePersistentTraits@VFunction@v8@@@2@@v8@@A@@YAXXZ 100e0a40 f   better_sqlite3.obj
 0001:000dfa80       ??__F?dbs@Database@@0V?$set@PAVDatabase@@VCompareDatabase@1@V?$allocator@PAVDatabase@@@std@@@std@@A@@YAXXZ 100e0a80 f   better_sqlite3.obj
 0001:000dfac0       ??__F?SqliteError@Database@@0V?$Persistent@VFunction@v8@@V?$NonCopyablePersistentTraits@VFunction@v8@@@2@@v8@@A@@YAXXZ 100e0ac0 f   better_sqlite3.obj
 0001:000dfb00       ??__F?constructor@Statement@@0V?$Persistent@VFunction@v8@@V?$NonCopyablePersistentTraits@VFunction@v8@@@2@@v8@@A@@YAXXZ 100e0b00 f   better_sqlite3.obj
 0001:000dfb40       ??__F?constructor@StatementIterator@@0V?$Persistent@VFunction@v8@@V?$NonCopyablePersistentTraits@VFunction@v8@@@2@@v8@@A@@YAXXZ 100e0b40 f   better_sqlite3.obj
 0001:000dfb80       ??__F?constructor@Backup@@0V?$Persistent@VFunction@v8@@V?$NonCopyablePersistentTraits@VFunction@v8@@@2@@v8@@A@@YAXXZ 100e0b80 f   better_sqlite3.obj
 0002:000001e0       ??done$initializer$@CS@@2P6AXXZA@@3P6AXXZA 100e11e0     better_sqlite3.obj
 0002:000001e4       ??length$initializer$@CS@@2P6AXXZA@@3P6AXXZA 100e11e4     better_sqlite3.obj
 0002:000001e8       ??constructor$initializer$@Integer@@0P6AXXZA@@3P6AXXZA 100e11e8     better_sqlite3.obj
 0002:000001ec       ??constructor$initializer$@Backup@@0P6AXXZA@@3P6AXXZA 100e11ec     better_sqlite3.obj
 0002:000001f0       ??source$initializer$@CS@@2P6AXXZA@@3P6AXXZA 100e11f0     better_sqlite3.obj
 0002:000001f4       ??table$initializer$@CS@@2P6AXXZA@@3P6AXXZA 100e11f4     better_sqlite3.obj
 0002:000001f8       ??codes$initializer$@CS@@0P6AXXZA@@3P6AXXZA 100e11f8     better_sqlite3.obj
 0002:000001fc       ??code$initializer$@CS@@2P6AXXZA@@3P6AXXZA 100e11fc     better_sqlite3.obj
 0002:00000200       ??lastInsertRowid$initializer$@CS@@2P6AXXZA@@3P6AXXZA 100e1200     better_sqlite3.obj
 0002:00000204       ??value$initializer$@CS@@2P6AXXZA@@3P6AXXZA 100e1204     better_sqlite3.obj
 0002:00000208       ??type$initializer$@CS@@2P6AXXZA@@3P6AXXZA 100e1208     better_sqlite3.obj
 0002:0000020c       ??readonly$initializer$@CS@@2P6AXXZA@@3P6AXXZA 100e120c     better_sqlite3.obj
 0002:00000210       ??constructor$initializer$@StatementIterator@@0P6AXXZA@@3P6AXXZA 100e1210     better_sqlite3.obj
 0002:00000214       ??constructor$initializer$@Statement@@0P6AXXZA@@3P6AXXZA 100e1214     better_sqlite3.obj
 0002:00000218       ??isInstance$initializer$@Integer@@0P6AXXZA@@3P6AXXZA 100e1218     better_sqlite3.obj
 0002:0000021c       ??column$initializer$@CS@@2P6AXXZA@@3P6AXXZA 100e121c     better_sqlite3.obj
 0002:00000220       ??memory$initializer$@CS@@2P6AXXZA@@3P6AXXZA 100e1220     better_sqlite3.obj
 0002:00000224       ??name$initializer$@CS@@2P6AXXZA@@3P6AXXZA 100e1224     better_sqlite3.obj
 0002:00000228       ??reader$initializer$@CS@@2P6AXXZA@@3P6AXXZA 100e1228     better_sqlite3.obj
 0002:0000022c       ??totalPages$initializer$@CS@@2P6AXXZA@@3P6AXXZA 100e122c     better_sqlite3.obj
 0002:00000230       ??remainingPages$initializer$@CS@@2P6AXXZA@@3P6AXXZA 100e1230     better_sqlite3.obj
 0002:00000234       ??SqliteError$initializer$@Database@@0P6AXXZA@@3P6AXXZA 100e1234     better_sqlite3.obj
 0002:00000238       ??database$initializer$@CS@@2P6AXXZA@@3P6AXXZA 100e1238     better_sqlite3.obj
 0002:0000023c       ??next$initializer$@CS@@2P6AXXZA@@3P6AXXZA 100e123c     better_sqlite3.obj
 0002:00000240       ??dbs$initializer$@Database@@0P6AXXZA@@3P6AXXZA 100e1240     better_sqlite3.obj
 0002:00000244       ??statement$initializer$@CS@@2P6AXXZA@@3P6AXXZA 100e1244     better_sqlite3.obj
 0002:00000248       ??changes$initializer$@CS@@2P6AXXZA@@3P6AXXZA 100e1248     better_sqlite3.obj
 0002:00000300       _GS_ExceptionPointers      100e1300     LIBCMT:gs_report.obj
 0002:00000354       ?ExceptionTemplate@?1??_CxxThrowException@@9@8@4UEHExceptionRecord@@B 100e1354     libvcruntime:throw.obj
 0002:00000374       ?module_names@?A0x89697e75@@3QBQB_WB 100e1374     libvcruntime:winapi_downlevel.obj
 0002:00000424       ?candidate_modules@?1??try_get_FlsAlloc@@YAP6GKP6GXPAX@Z@ZXZ@4QBW4module_id@?A0x89697e75@@B 100e1424     libvcruntime:winapi_downlevel.obj
 0002:00000438       ?candidate_modules@?1??try_get_FlsFree@@YAP6GHK@ZXZ@4QBW4module_id@?A0x89697e75@@B 100e1438     libvcruntime:winapi_downlevel.obj
 0002:00000448       ?candidate_modules@?1??try_get_FlsGetValue@@YAP6GPAXK@ZXZ@4QBW4module_id@?A0x89697e75@@B 100e1448     libvcruntime:winapi_downlevel.obj
 0002:0000045c       ?candidate_modules@?1??try_get_FlsSetValue@@YAP6GHKPAX@ZXZ@4QBW4module_id@?A0x89697e75@@B 100e145c     libvcruntime:winapi_downlevel.obj
 0002:00000470       ?candidate_modules@?1??try_get_InitializeCriticalSectionEx@@YAP6GHPAU_RTL_CRITICAL_SECTION@@KK@ZXZ@4QBW4module_id@?A0x89697e75@@B 100e1470     libvcruntime:winapi_downlevel.obj
 0002:00000498       ?tokenTable@@3QBQBDB       100e1498     libvcruntime:undname.obj
 0002:000004d0       ?nameTable@@3QBQBDB        100e14d0     libvcruntime:undname.obj
 0002:00000614       ?rttiTable@@3QBQBDB        100e1614     libvcruntime:undname.obj
 0002:00000c98       ___acrt_initializers       100e1c98     libucrt:initialization.obj
 0002:00000d10       _errtable                  100e1d10     libucrt:errno.obj
 0002:00001340       _module_names              100e2340     libucrt:winapi_thunks.obj
 0002:000017e0       ?candidate_modules@?1??try_get_AreFileApisANSI@@YAP6GHXZXZ@4QBW4module_id@?A0x352e5c4b@@B 100e27e0     libucrt:winapi_thunks.obj
 0002:000017e4       ?candidate_modules@?1??try_get_CompareStringEx@@YAP6GHPB_WK0H0HPAU_nlsversioninfo@@PAXJ@ZXZ@4QBW4module_id@?A0x352e5c4b@@B 100e27e4     libucrt:winapi_thunks.obj
 0002:000017fc       ?candidate_modules@?1??try_get_FlsAlloc@@YAP6GKP6GXPAX@Z@ZXZ@4QBW4module_id@?A0x352e5c4b@@B 100e27fc     libucrt:winapi_thunks.obj
 0002:00001804       ?candidate_modules@?1??try_get_FlsFree@@YAP6GHK@ZXZ@4QBW4module_id@?A0x352e5c4b@@B 100e2804     libucrt:winapi_thunks.obj
 0002:0000180c       ?candidate_modules@?1??try_get_FlsGetValue@@YAP6GPAXK@ZXZ@4QBW4module_id@?A0x352e5c4b@@B 100e280c     libucrt:winapi_thunks.obj
 0002:00001814       ?candidate_modules@?1??try_get_FlsSetValue@@YAP6GHKPAX@ZXZ@4QBW4module_id@?A0x352e5c4b@@B 100e2814     libucrt:winapi_thunks.obj
 0002:0000181c       ?candidate_modules@?1??try_get_GetCurrentPackageId@@YAP6GJPAIPAE@ZXZ@4QBW4module_id@?A0x352e5c4b@@B 100e281c     libucrt:winapi_thunks.obj
 0002:00001838       ?candidate_modules@?1??try_get_InitializeCriticalSectionEx@@YAP6GHPAU_RTL_CRITICAL_SECTION@@KK@ZXZ@4QBW4module_id@?A0x352e5c4b@@B 100e2838     libucrt:winapi_thunks.obj
 0002:00001840       ?candidate_modules@?1??try_get_LCMapStringEx@@YAP6GHPB_WK0HPA_WHPAU_nlsversioninfo@@PAXJ@ZXZ@4QBW4module_id@?A0x352e5c4b@@B 100e2840     libucrt:winapi_thunks.obj
 0002:00001858       ?candidate_modules@?1??try_get_LocaleNameToLCID@@YAP6GKPB_WK@ZXZ@4QBW4module_id@?A0x352e5c4b@@B 100e2858     libucrt:winapi_thunks.obj
 0002:00001874       __mb_locale_names          100e2874     libucrt:mbctype.obj
 0002:00001f28       _LcidToLocaleNameTable     100e2f28     libucrt:lcidtoname_downlevel.obj
 0002:00003048       _LocaleNameToIndexTable    100e4048     libucrt:lcidtoname_downlevel.obj
 0002:00003fa0       LOG_name                   100e4fa0     libucrt:log10.obj
 0002:00003fb0       _One                       100e4fb0     libucrt:ceil_pentium4.obj
 0002:00003fc0       _Bns                       100e4fc0     libucrt:ceil_pentium4.obj
 0002:00003fd0       _Zero                      100e4fd0     libucrt:ceil_pentium4.obj
 0002:00003fe0       _S                         100e4fe0     libucrt:ceil_pentium4.obj
 0002:00003ff0       _NegZero                   100e4ff0     libucrt:ceil_pentium4.obj
 0002:00004000       emask                      100e5000     libucrt:log10_pentium4.obj
 0002:00004010       CC                         100e5010     libucrt:log10_pentium4.obj
 0002:00004020       Magic                      100e5020     libucrt:log10_pentium4.obj
 0002:00004030       hi_mask                    100e5030     libucrt:log10_pentium4.obj
 0002:00004040       LOG10_2                    100e5040     libucrt:log10_pentium4.obj
 0002:00004050       place_L                    100e5050     libucrt:log10_pentium4.obj
 0002:00004070       One                        100e5070     libucrt:log10_pentium4.obj
 0002:00004080       Zero                       100e5080     libucrt:log10_pentium4.obj
 0002:00004090       Two52                      100e5090     libucrt:log10_pentium4.obj
 0002:000040a0       Infs                       100e50a0     libucrt:log10_pentium4.obj
 0002:000040b0       NaN                        100e50b0     libucrt:log10_pentium4.obj
 0002:000040c0       coeff                      100e50c0     libucrt:log10_pentium4.obj
 0002:0000411e       _log2max                   100e511e     libucrt:87tran.obj
 0002:00004128       _smallarg                  100e5128     libucrt:87tran.obj
 0002:00004132       _half                      100e5132     libucrt:87tran.obj
 0002:0000417e       One                        100e517e     libucrt:87disp.obj
 0002:00004186       Three                      100e5186     libucrt:87disp.obj
 0002:0000418e       XAMtoTagTab                100e518e     libucrt:87disp.obj
 0002:000041a0       One                        100e51a0     libucrt:common.obj
 0002:000041b4       DblMax                     100e51b4     libucrt:common.obj
 0002:000041bc       DblMin                     100e51bc     libucrt:common.obj
 0002:000041c4       IeeeAdjO                   100e51c4     libucrt:common.obj
 0002:000041cc       IeeeAdjU                   100e51cc     libucrt:common.obj
 0002:000041d4       _infinity                  100e51d4     libucrt:common.obj
 0002:000041dc       _zero                      100e51dc     libucrt:common.obj
 0002:0000421c       _over                      100e521c     libucrt:fpctrl.obj
 0002:00004228       _under                     100e5228     libucrt:fpctrl.obj
 0002:00004af0       ?_names@?1??_get_fname@@9@9 100e5af0     libucrt:fpexcept.obj
 0002:00005fc8       ?piecewise_construct@std@@3Upiecewise_construct_t@1@B 100e6fc8     better_sqlite3.obj
 0002:00005fc9       ?zerobyte@?5??syncJournal@@9@9 100e6fc9     sqlite3:sqlite3.obj
 0002:00005fca       ?lenOne@?3??trimFunc@@9@9  100e6fca     sqlite3:sqlite3.obj
 0002:00005fd0       ?max32BitValue@?1??winCurrentTimeInt64@@9@9 100e6fd0     sqlite3:sqlite3.obj
 0002:00005fd8       ?aEnc@?1??synthCollSeq@@9@9 100e6fd8     sqlite3:sqlite3.obj
 0002:00005fdc       ?azName@?1??fts3ShadowName@@9@9 100e6fdc     sqlite3:sqlite3.obj
 0002:00005ff0       ?isFtsIdChar@?1??sqlite3Fts3IsIdChar@@9@9 100e6ff0     sqlite3:sqlite3.obj
 0002:00006070       ?aCopy@?M@??sqlite3RunVacuum@@9@9 100e7070     sqlite3:sqlite3.obj
 0002:0000607c       ?aSpecial@?5??jsonAppendString@@9@9 100e707c     sqlite3:sqlite3.obj
 0002:0000609c       ?defaultMethods@?1??sqlite3PCacheSetDefault@@9@9 100e709c     sqlite3:sqlite3.obj
 0002:000060d0       ?aMsg@?1??sqlite3ErrStr@@9@9 100e70d0     sqlite3:sqlite3.obj
 0002:00006144       ?aFlag@?LI@??sqlite3VdbeExec@@9@9 100e7144     sqlite3:sqlite3.obj
 0002:00006148       _fts5yy_lookahead          100e7148     sqlite3:sqlite3.obj
 0002:000061c4       ?azSql@?1??rtreeSqlInit@@9@9 100e71c4     sqlite3:sqlite3.obj
 0002:000061e4       _fts5yyRuleInfoNRhs        100e71e4     sqlite3:sqlite3.obj
 0002:00006200       _aFts5UnicodeData          100e7200     sqlite3:sqlite3.obj
 0002:00006fcc       ?aKeyword@?1??getNextNode@@9@9 100e7fcc     sqlite3:sqlite3.obj
 0002:00006fec       _rankName                  100e7fec     sqlite3:sqlite3.obj
 0002:00006ff4       ?az@?2??sqlite3Savepoint@@9@9 100e7ff4     sqlite3:sqlite3.obj
 0002:00007000       _sqlite3Utf8Trans1         100e8000     sqlite3:sqlite3.obj
 0002:00007040       _likeInfoNorm              100e8040     sqlite3:sqlite3.obj
 0002:00007044       ?iLn@?3??sqlite3AutoincrementBegin@@9@9 100e8044     sqlite3:sqlite3.obj
 0002:00007048       ?azErr@?1??windowCheckValue@@9@9 100e8048     sqlite3:sqlite3.obj
 0002:0000705c       _aPrefix                   100e805c     sqlite3:sqlite3.obj
 0002:00007064       ?iLn@?3??autoIncrementEnd@@9@9 100e8064     sqlite3:sqlite3.obj
 0002:00007068       ?autoInc@?3??sqlite3AutoincrementBegin@@9@9 100e8068     sqlite3:sqlite3.obj
 0002:00007098       _zKWText                   100e8098     sqlite3:sqlite3.obj
 0002:0000730c       _cType                     100e830c     sqlite3:sqlite3.obj
 0002:00007328       ?aFunc@?1??sqlite3Json1Init@@9@9 100e8328     sqlite3:sqlite3.obj
 0002:00007418       _aKWLen                    100e8418     sqlite3:sqlite3.obj
 0002:000074a4       ?detach_func@?1??sqlite3Detach@@9@9 100e84a4     sqlite3:sqlite3.obj
 0002:000074cc       ?zText@?1??getSafetyLevel@@9@9 100e84cc     sqlite3:sqlite3.obj
 0002:000074e8       ?aEntry@?1??sqlite3Fts5UnicodeFold@@9@9 100e84e8     sqlite3:sqlite3.obj
 0002:00007774       ?aAgg@?1??sqlite3Json1Init@@9@9 100e8774     sqlite3:sqlite3.obj
 0002:0000779c       _lagName                   100e879c     sqlite3:sqlite3.obj
 0002:000077a0       ?aEntry@?1??sqlite3FtsUnicodeIsalnum@@9@9 100e87a0     sqlite3:sqlite3.obj
 0002:00007df8       _jsonIsSpace               100e8df8     sqlite3:sqlite3.obj
 0002:00007ef8       ?fts5Mod@?1??fts5Init@@9@9 100e8ef8     sqlite3:sqlite3.obj
 0002:00007f58       ?aiOff@?1??sqlite3FtsUnicodeFold@@9@9 100e8f58     sqlite3:sqlite3.obj
 0002:00007ff4       ?aStartOp@?CA@??sqlite3WhereCodeOneLoopStart@@9@9 100e8ff4     sqlite3:sqlite3.obj
 0002:00007ffc       ?openBlob@?BK@??sqlite3_blob_open@@9@9 100e8ffc     sqlite3:sqlite3.obj
 0002:00008014       ?aOp@?1??windowCheckValue@@9@9 100e9014     sqlite3:sqlite3.obj
 0002:00008028       _yy_default                100e9028     sqlite3:sqlite3.obj
 0002:00008468       _fts5yy_default            100e9468     sqlite3:sqlite3.obj
 0002:0000848c       _nth_valueName             100e948c     sqlite3:sqlite3.obj
 0002:00008498       _aKWOffset                 100e9498     sqlite3:sqlite3.obj
 0002:000085b0       _pragmaVtabModule          100e95b0     sqlite3:sqlite3.obj
 0002:00008610       ?totals@?1??sqliteDefaultBusyCallback@@9@9 100e9610     sqlite3:sqlite3.obj
 0002:0000861c       ?ops@?BD@??exprAnalyze@@9@9 100e961c     sqlite3:sqlite3.obj
 0002:00008620       ?azModeName@?1??sqlite3JournalModename@@9@9 100e9620     sqlite3:sqlite3.obj
 0002:00008638       ?colmask@?1??sqlite3Fts5PoslistSafeAppend@@9@9 100e9638     sqlite3:sqlite3.obj
 0002:00008640       ?aEntry@?1??sqlite3FtsUnicodeFold@@9@9 100e9640     sqlite3:sqlite3.obj
 0002:000088cc       ?zeroHdr@?4??zeroJournalHdr@@9@9 100e98cc     sqlite3:sqlite3.obj
 0002:000088e8       ?aAscii@?1??sqlite3FtsUnicodeIsalnum@@9@9 100e98e8     sqlite3:sqlite3.obj
 0002:000088f8       ?aiOff@?1??sqlite3Fts5UnicodeFold@@9@9 100e98f8     sqlite3:sqlite3.obj
 0002:00008994       ?autoIncEnd@?3??autoIncrementEnd@@9@9 100e9994     sqlite3:sqlite3.obj
 0002:000089a8       ?fts3aux_module@?1??sqlite3Fts3InitAux@@9@9 100e99a8     sqlite3:sqlite3.obj
 0002:00008a08       _yyRuleInfoNRhs            100e9a08     sqlite3:sqlite3.obj
 0002:00008b80       _aKWCode                   100e9b80     sqlite3:sqlite3.obj
 0002:00008c0c       ?azEndings@?1??sqlite3LoadExtension@@9@9 100e9c0c     sqlite3:sqlite3.obj
 0002:00008c10       _MemJournalMethods         100e9c10     sqlite3:sqlite3.obj
 0002:00008c5c       ?azName@?1??fts5ShadowName@@9@9 100e9c5c     sqlite3:sqlite3.obj
 0002:00008c70       _jsonType                  100e9c70     sqlite3:sqlite3.obj
 0002:00008c90       _last_valueName            100e9c90     sqlite3:sqlite3.obj
 0002:00008c9c       ?azColName@?BA@??sqlite3Prepare@@9@9 100e9c9c     sqlite3:sqlite3.obj
 0002:00008ccc       _aDigits                   100e9ccc     sqlite3:sqlite3.obj
 0002:00008cf0       _aXformType                100e9cf0     sqlite3:sqlite3.obj
 0002:00008d80       ?aTable@?1??openStatTable@@9@9 100e9d80     sqlite3:sqlite3.obj
 0002:00008d98       ?aFlagOp@?5??sqlite3_db_config@@9@9 100e9d98     sqlite3:sqlite3.obj
 0002:00008e00       _pragCName                 100e9e00     sqlite3:sqlite3.obj
 0002:00008ebc       ?and_logic@?IF@??sqlite3VdbeExec@@9@9 100e9ebc     sqlite3:sqlite3.obj
 0002:00008ec8       ?minInt@?1??doubleToInt64@@9@9 100e9ec8     sqlite3:sqlite3.obj
 0002:00008ed0       ?aMJNeeded@?4??vdbeCommit@@9@9 100e9ed0     sqlite3:sqlite3.obj
 0002:00008ed8       ?attach_func@?1??sqlite3Attach@@9@9 100e9ed8     sqlite3:sqlite3.obj
 0002:00008f00       _aHardLimit                100e9f00     sqlite3:sqlite3.obj
 0002:00008f30       _sqlite3CtypeMap           100e9f30     sqlite3:sqlite3.obj
 0002:00009038       ?iLn@?BK@??sqlite3_blob_open@@9@9 100ea038     sqlite3:sqlite3.obj
 0002:0000903c       ?azType@?8??createTableStmt@@9@9 100ea03c     sqlite3:sqlite3.obj
 0002:00009050       ?fts3tok_module@?1??sqlite3Fts3InitTok@@9@9 100ea050     sqlite3:sqlite3.obj
 0002:000090b0       ?endCode@?MG@??sqlite3Pragma@@9@9 100ea0b0     sqlite3:sqlite3.obj
 0002:000090cc       ?iOffset@?1??getSafetyLevel@@9@9 100ea0cc     sqlite3:sqlite3.obj
 0002:000090d4       _statMutex                 100ea0d4     sqlite3:sqlite3.obj
 0002:000090e0       _dense_rankName            100ea0e0     sqlite3:sqlite3.obj
 0002:000090ec       _likeInfoAlt               100ea0ec     sqlite3:sqlite3.obj
 0002:000090f0       _winIoMethod               100ea0f0     sqlite3:sqlite3.obj
 0002:0000913c       ?azType@?1??typeofFunc@@9@9 100ea13c     sqlite3:sqlite3.obj
 0002:00009150       _yy_reduce_ofst            100ea150     sqlite3:sqlite3.obj
 0002:00009458       ?aLTb@?HB@??sqlite3VdbeExec@@9@9 100ea458     sqlite3:sqlite3.obj
 0002:00009460       ?azType@?BC@??sqlite3VdbeExec@@9@9 100ea460     sqlite3:sqlite3.obj
 0002:00009470       ?aMod@?1??sqlite3Json1Init@@9@9 100ea470     sqlite3:sqlite3.obj
 0002:00009480       _fts5yy_reduce_ofst        100ea480     sqlite3:sqlite3.obj
 0002:00009494       _sqlite3StrBINARY          100ea494     sqlite3:sqlite3.obj
 0002:0000949c       ?iLn@?MG@??sqlite3Pragma@@9@9 100ea49c     sqlite3:sqlite3.obj
 0002:000094a0       ?iLn@?DC@??sqlite3Pragma@@9@9 100ea4a0     sqlite3:sqlite3.obj
 0002:000094a4       _globInfo                  100ea4a4     sqlite3:sqlite3.obj
 0002:000094a8       ?x@?1??sqlite3Pow10@@9@9   100ea4a8     sqlite3:sqlite3.obj
 0002:000094f0       ?aOp@?2??isAuxiliaryVtabOperator@@9@9 100ea4f0     sqlite3:sqlite3.obj
 0002:00009510       _winIoNolockMethod         100ea510     sqlite3:sqlite3.obj
 0002:0000955c       ?zOrd@?DH@??sqlite3_str_vappendf@@9@9 100ea55c     sqlite3:sqlite3.obj
 0002:00009568       _sqlite3SmallTypeSizes     100ea568     sqlite3:sqlite3.obj
 0002:000095e8       ?aLen@?2??vdbeSorterCompareInt@@9@9 100ea5e8     sqlite3:sqlite3.obj
 0002:000095f4       ?aMx@?1??getDigits@@9@9    100ea5f4     sqlite3:sqlite3.obj
 0002:00009600       _porterTokenizerModule     100ea600     sqlite3:sqlite3.obj
 0002:0000961c       ?azOne@?3??trimFunc@@9@9   100ea61c     sqlite3:sqlite3.obj
 0002:00009620       _sqlite3Apis               100ea620     sqlite3:sqlite3.obj
 0002:000099ec       _statGetFuncdef            100ea9ec     sqlite3:sqlite3.obj
 0002:00009a14       ?aCode@?7??sqlite3StartTable@@9@9 100eaa14     sqlite3:sqlite3.obj
 0002:00009a18       ?iLength@?1??getSafetyLevel@@9@9 100eaa18     sqlite3:sqlite3.obj
 0002:00009a20       ?setCookie@?NB@??sqlite3Pragma@@9@9 100eaa20     sqlite3:sqlite3.obj
 0002:00009a28       ?nullMem@?1??columnNullValue@@9@9 100eaa28     sqlite3:sqlite3.obj
 0002:00009a50       _sqlite3UpperToLower       100eaa50     sqlite3:sqlite3.obj
 0002:00009b50       _aFts5UnicodeMap           100eab50     sqlite3:sqlite3.obj
 0002:0000a91c       ?a@?1??sqlite3LogEst@@9@9  100eb91c     sqlite3:sqlite3.obj
 0002:0000a92c       ?aEQb@?HC@??sqlite3VdbeExec@@9@9 100eb92c     sqlite3:sqlite3.obj
 0002:0000a934       ?setMeta6@?DC@??sqlite3Pragma@@9@9 100eb934     sqlite3:sqlite3.obj
 0002:0000a948       _sFts5Api                  100eb948     sqlite3:sqlite3.obj
 0002:0000a998       ?fts5Vocab@?1??sqlite3Fts5VocabInit@@9@9 100eb998     sqlite3:sqlite3.obj
 0002:0000a9f8       _statInitFuncdef           100eb9f8     sqlite3:sqlite3.obj
 0002:0000aa20       ?delays@?1??sqliteDefaultBusyCallback@@9@9 100eba20     sqlite3:sqlite3.obj
 0002:0000aa2c       _simpleTokenizerModule     100eba2c     sqlite3:sqlite3.obj
 0002:0000aa48       _yyRuleInfoLhs             100eba48     sqlite3:sqlite3.obj
 0002:0000ad38       _aJournalMagic             100ebd38     sqlite3:sqlite3.obj
 0002:0000ad40       _first_valueName           100ebd40     sqlite3:sqlite3.obj
 0002:0000ad4c       ?readCookie@?NC@??sqlite3Pragma@@9@9 100ebd4c     sqlite3:sqlite3.obj
 0002:0000ad58       _aPragmaName               100ebd58     sqlite3:sqlite3.obj
 0002:0000b148       _fts5yy_action             100ec148     sqlite3:sqlite3.obj
 0002:0000b1b4       _hexdigits                 100ec1b4     sqlite3:sqlite3.obj
 0002:0000b1c4       ?aKeyword@?1??sqlite3JoinType@@9@9 100ec1c4     sqlite3:sqlite3.obj
 0002:0000b1dc       ?zKeyText@?1??sqlite3JoinType@@9@9 100ec1dc     sqlite3:sqlite3.obj
 0002:0000b200       _yy_action                 100ec200     sqlite3:sqlite3.obj
 0002:0000c2bc       ?aStep@?GI@??sqlite3WhereCodeOneLoopStart@@9@9 100ed2bc     sqlite3:sqlite3.obj
 0002:0000c2c0       _sqlite3azCompileOpt       100ed2c0     sqlite3:sqlite3.obj
 0002:0000c310       ?defaultMethods@?1??sqlite3MemSetDefault@@9@9 100ed310     sqlite3:sqlite3.obj
 0002:0000c330       _sqlite3OpcodeProperty     100ed330     sqlite3:sqlite3.obj
 0002:0000c3e0       _sqlite3IntTokens          100ed3e0     sqlite3:sqlite3.obj
 0002:0000c3f0       _ntileName                 100ed3f0     sqlite3:sqlite3.obj
 0002:0000c3f8       ?maxInt@?1??doubleToInt64@@9@9 100ed3f8     sqlite3:sqlite3.obj
 0002:0000c400       ?iCode@?1??soundexFunc@@9@9 100ed400     sqlite3:sqlite3.obj
 0002:0000c480       _yy_lookahead              100ed480     sqlite3:sqlite3.obj
 0002:0000d574       ?x@?1??sqlite3LogEstAdd@@9@9 100ee574     sqlite3:sqlite3.obj
 0002:0000d594       ?aFlag@?N@??sqlite3VdbeSerialGet@@9@9 100ee594     sqlite3:sqlite3.obj
 0002:0000d598       _porterIdChar              100ee598     sqlite3:sqlite3.obj
 0002:0000d5e8       ?encnames@?MI@??sqlite3Pragma@@9@9 100ee5e8     sqlite3:sqlite3.obj
 0002:0000d630       _fmtinfo                   100ee630     sqlite3:sqlite3.obj
 0002:0000d6bc       ?zero@?1??fts5WriteFlushLeaf@@9@9 100ee6bc     sqlite3:sqlite3.obj
 0002:0000d6c0       ?aType@?1??sqlite3_value_type@@9@9 100ee6c0     sqlite3:sqlite3.obj
 0002:0000d700       _fts5yy_shift_ofst         100ee700     sqlite3:sqlite3.obj
 0002:0000d724       ?azName@?1??rtreeShadowName@@9@9 100ee724     sqlite3:sqlite3.obj
 0002:0000d730       _yy_shift_ofst             100ee730     sqlite3:sqlite3.obj
 0002:0000db70       _zMagicHeader              100eeb70     sqlite3:sqlite3.obj
 0002:0000db80       _yyFallback                100eeb80     sqlite3:sqlite3.obj
 0002:0000dc40       ?zChars@?1??winGetTempname@@9@9 100eec40     sqlite3:sqlite3.obj
 0002:0000dc80       ?aEndOp@?CA@??sqlite3WhereCodeOneLoopStart@@9@9 100eec80     sqlite3:sqlite3.obj
 0002:0000dc84       _percent_rankName          100eec84     sqlite3:sqlite3.obj
 0002:0000dc94       ?nullRow@?BD@??sqlite3StartTable@@9@9 100eec94     sqlite3:sqlite3.obj
 0002:0000dc9c       ?vfsFlags@?BBG@??sqlite3VdbeExec@@9@9 100eec9c     sqlite3:sqlite3.obj
 0002:0000dca0       _leadName                  100eeca0     sqlite3:sqlite3.obj
 0002:0000dca8       ?winFiletimeEpoch@?1??winCurrentTimeInt64@@9@9 100eeca8     sqlite3:sqlite3.obj
 0002:0000dcb0       ?iValue@?1??getSafetyLevel@@9@9 100eecb0     sqlite3:sqlite3.obj
 0002:0000dcb8       ?zAff@?M@??sqlite3ExprCodeTarget@@9@9 100eecb8     sqlite3:sqlite3.obj
 0002:0000dcc0       _aiClass                   100eecc0     sqlite3:sqlite3.obj
 0002:0000ddc0       _statPushFuncdef           100eedc0     sqlite3:sqlite3.obj
 0002:0000dde8       ?or_logic@?IG@??sqlite3VdbeExec@@9@9 100eede8     sqlite3:sqlite3.obj
 0002:0000ddf4       ?aStart@?GI@??sqlite3WhereCodeOneLoopStart@@9@9 100eedf4     sqlite3:sqlite3.obj
 0002:0000ddf8       ?flags@?2??sqlite3OpenTempDatabase@@9@9 100eedf8     sqlite3:sqlite3.obj
 0002:0000ddfc       _aFts5UnicodeBlock         100eedfc     sqlite3:sqlite3.obj
 0002:0000de20       _fts3Module                100eee20     sqlite3:sqlite3.obj
 0002:0000de80       ?module@?1??sqlite3Fts3UnicodeTokenizer@@9@9 100eee80     sqlite3:sqlite3.obj
 0002:0000de9c       ?outOfMem@?1??sqlite3_errmsg16@@9@9 100eee9c     sqlite3:sqlite3.obj
 0002:0000deb8       ?trans@?1??sqlite3_complete@@9@9 100eeeb8     sqlite3:sqlite3.obj
 0002:0000def8       ?aMap@?1??sqlite3_vtab_on_conflict@@9@9 100eeef8     sqlite3:sqlite3.obj
 0002:0000df00       ?aGTb@?HD@??sqlite3VdbeExec@@9@9 100eef00     sqlite3:sqlite3.obj
 0002:0000df08       _row_numberName            100eef08     sqlite3:sqlite3.obj
 0002:0000df14       _fts5yyRuleInfoLhs         100eef14     sqlite3:sqlite3.obj
 0002:0000df30       _aKWHash                   100eef30     sqlite3:sqlite3.obj
 0002:0000dfb0       ?azName@?1??sqlite3OpcodeName@@9@9 100eefb0     sqlite3:sqlite3.obj
 0002:0000e264       _cume_distName             100ef264     sqlite3:sqlite3.obj
 0002:0000e270       _aKWNext                   100ef270     sqlite3:sqlite3.obj
 0002:0000e300       _arRound                   100ef300     sqlite3:sqlite3.obj
 0002:0000e350       ?misuse@?1??sqlite3_errmsg16@@9@9 100ef350     sqlite3:sqlite3.obj
 0002:000173e0       _Int32ToUInt32             100f83e0     LIBCMT:_ftol3_.obj
 0002:000173e8       _DP2to32                   100f83e8     LIBCMT:_ftol3_.obj
 0002:000173f0       _MantissaMask              100f83f0     LIBCMT:_ftol3_.obj
 0002:000173f8       _IntegerBit                100f83f8     LIBCMT:_ftol3_.obj
 0002:00017400       _SignBit64                 100f8400     LIBCMT:_ftol3_.obj
 0002:00017408       _MinFP64                   100f8408     LIBCMT:_ftol3_.obj
 0002:00017410       _MinInt64                  100f8410     LIBCMT:_ftol3_.obj
 0002:00017418       _MaxInt64                  100f8418     LIBCMT:_ftol3_.obj
 0002:00017420       _MaxUInt64                 100f8420     LIBCMT:_ftol3_.obj
 0002:00017428       _MaxFP32                   100f8428     LIBCMT:_ftol3_.obj
 0002:00017430       _MinFP32                   100f8430     LIBCMT:_ftol3_.obj
 0002:00017438       _MinSubInexact             100f8438     LIBCMT:_ftol3_.obj
 0002:00017440       _FpExcptTable              100f8440     LIBCMT:_ftol3_.obj
 0002:00017450       _i1075                     100f8450     LIBCMT:_ftol3_.obj
 0002:00017454       _i1087                     100f8454     LIBCMT:_ftol3_.obj
 0002:00017458       _x0800                     100f8458     LIBCMT:_ftol3_.obj
 0002:0001745c       _x17FF                     100f845c     LIBCMT:_ftol3_.obj
 0002:00017460       _CWMask                    100f8460     LIBCMT:_ftol3_.obj
 0002:00017470       emask                      100f8470     libucrt:log_sse2_precise.obj
 0002:00017480       Magic                      100f8480     libucrt:log_sse2_precise.obj
 0002:00017490       hi_mask                    100f8490     libucrt:log_sse2_precise.obj
 0002:000174a0       LOG_2                      100f84a0     libucrt:log_sse2_precise.obj
 0002:000174b0       place_L                    100f84b0     libucrt:log_sse2_precise.obj
 0002:000174d0       One                        100f84d0     libucrt:log_sse2_precise.obj
 0002:000174e0       Zero                       100f84e0     libucrt:log_sse2_precise.obj
 0002:000174f0       Two52                      100f84f0     libucrt:log_sse2_precise.obj
 0002:00017500       Infs                       100f8500     libucrt:log_sse2_precise.obj
 0002:00017510       NaN                        100f8510     libucrt:log_sse2_precise.obj
 0002:00017520       coeff                      100f8520     libucrt:log_sse2_precise.obj
 0002:00017550       LOG_name                   100f8550     libucrt:log.obj
 0002:00017d80       emask                      100f8d80     libucrt:log_pentium4.obj
 0002:00017d90       Magic                      100f8d90     libucrt:log_pentium4.obj
 0002:00017da0       hi_mask                    100f8da0     libucrt:log_pentium4.obj
 0002:00017db0       LOG_2                      100f8db0     libucrt:log_pentium4.obj
 0002:00017dc0       place_L                    100f8dc0     libucrt:log_pentium4.obj
 0002:00017de0       One                        100f8de0     libucrt:log_pentium4.obj
 0002:00017df0       Zero                       100f8df0     libucrt:log_pentium4.obj
 0002:00017e00       Two52                      100f8e00     libucrt:log_pentium4.obj
 0002:00017e10       Infs                       100f8e10     libucrt:log_pentium4.obj
 0002:00017e20       NaN                        100f8e20     libucrt:log_pentium4.obj
 0002:00017e30       coeff                      100f8e30     libucrt:log_pentium4.obj
 0002:00018618       __unwindtable$?NODE_SET_PROTOTYPE_METHOD@node@@YAXV?$Local@VFunctionTemplate@v8@@@v8@@PBDP6AXABV?$FunctionCallbackInfo@VValue@v8@@@3@@Z@Z 100f9618     better_sqlite3.obj
 0002:00018618       __unwindtable$?xValueBase@CustomAggregate@@CAXPAUsqlite3_context@@_N@Z 100f9618     better_sqlite3.obj
 0002:00018620       __ehfuncinfo$?NODE_SET_PROTOTYPE_METHOD@node@@YAXV?$Local@VFunctionTemplate@v8@@@v8@@PBDP6AXABV?$FunctionCallbackInfo@VValue@v8@@@3@@Z@Z 100f9620     better_sqlite3.obj
 0002:00018620       __ehfuncinfo$?xValueBase@CustomAggregate@@CAXPAUsqlite3_context@@_N@Z 100f9620     better_sqlite3.obj
 0002:00018644       __unwindtable$??1CustomFunction@@UAE@XZ 100f9644     better_sqlite3.obj
 0002:00018644       __unwindtable$??_GCustomFunction@@UAEPAXI@Z 100f9644     better_sqlite3.obj
 0002:00018644       __unwindtable$??1ObjectWrap@node@@UAE@XZ 100f9644     better_sqlite3.obj
 0002:0001864c       __ehfuncinfo$??1CustomFunction@@UAE@XZ 100f964c     better_sqlite3.obj
 0002:0001864c       __ehfuncinfo$??1ObjectWrap@node@@UAE@XZ 100f964c     better_sqlite3.obj
 0002:0001864c       __ehfuncinfo$??_GCustomFunction@@UAEPAXI@Z 100f964c     better_sqlite3.obj
 0002:00018670       __unwindtable$??1StatementIterator@@UAE@XZ 100f9670     better_sqlite3.obj
 0002:00018670       __unwindtable$??_GObjectWrap@node@@UAEPAXI@Z 100f9670     better_sqlite3.obj
 0002:00018670       __unwindtable$??1Backup@@UAE@XZ 100f9670     better_sqlite3.obj
 0002:00018680       __ehfuncinfo$??1Backup@@UAE@XZ 100f9680     better_sqlite3.obj
 0002:00018680       __ehfuncinfo$??1StatementIterator@@UAE@XZ 100f9680     better_sqlite3.obj
 0002:00018680       __ehfuncinfo$??_GObjectWrap@node@@UAEPAXI@Z 100f9680     better_sqlite3.obj
 0002:000186a4       __unwindtable$?NODE_SET_PROTOTYPE_GETTER@@YAXV?$Local@VFunctionTemplate@v8@@@v8@@PBDP6AXV?$Local@VString@v8@@@2@ABV?$PropertyCallbackInfo@VValue@v8@@@2@@Z@Z 100f96a4     better_sqlite3.obj
 0002:000186ac       __ehfuncinfo$?NODE_SET_PROTOTYPE_GETTER@@YAXV?$Local@VFunctionTemplate@v8@@@v8@@PBDP6AXV?$Local@VString@v8@@@2@ABV?$PropertyCallbackInfo@VValue@v8@@@2@@Z@Z 100f96ac     better_sqlite3.obj
 0002:000186d0       __unwindtable$?NODE_SET_PROTOTYPE_SYMBOL_METHOD@@YAXV?$Local@VFunctionTemplate@v8@@@v8@@V?$Local@VSymbol@v8@@@2@P6AXABV?$FunctionCallbackInfo@VValue@v8@@@2@@Z@Z 100f96d0     better_sqlite3.obj
 0002:000186d8       __ehfuncinfo$?NODE_SET_PROTOTYPE_SYMBOL_METHOD@@YAXV?$Local@VFunctionTemplate@v8@@@v8@@V?$Local@VSymbol@v8@@@2@P6AXABV?$FunctionCallbackInfo@VValue@v8@@@2@@Z@Z 100f96d8     better_sqlite3.obj
 0002:000186fc       __unwindtable$?xStepBase@CustomAggregate@@CAXPAUsqlite3_context@@HPAPAUsqlite3_value@@PR1@V?$Persistent@VFunction@v8@@U?$CopyablePersistentTraits@VFunction@v8@@@2@@v8@@@Z 100f96fc     better_sqlite3.obj
 0002:00018704       __ehfuncinfo$?xStepBase@CustomAggregate@@CAXPAUsqlite3_context@@HPAPAUsqlite3_value@@PR1@V?$Persistent@VFunction@v8@@U?$CopyablePersistentTraits@VFunction@v8@@@2@@v8@@@Z 100f9704     better_sqlite3.obj
 0002:00018728       __unwindtable$?CONCAT@@YA?AV?$basic_string@DU?$char_traits@D@std@@V?$allocator@D@2@@std@@PBD00@Z 100f9728     better_sqlite3.obj
 0002:00018730       __ehfuncinfo$?CONCAT@@YA?AV?$basic_string@DU?$char_traits@D@std@@V?$allocator@D@2@@std@@PBD00@Z 100f9730     better_sqlite3.obj
 0002:00018754       __unwindtable$?Code@CS@@SA?AV?$Local@VString@v8@@@v8@@PAVIsolate@3@H@Z 100f9754     better_sqlite3.obj
 0002:00018764       __ehfuncinfo$?Code@CS@@SA?AV?$Local@VString@v8@@@v8@@PAVIsolate@3@H@Z 100f9764     better_sqlite3.obj
 0002:00018788       __unwindtable$??__F?changes@CS@@2V?$Persistent@VString@v8@@V?$NonCopyablePersistentTraits@VString@v8@@@2@@v8@@A@@YAXXZ 100f9788     better_sqlite3.obj
 0002:00018788       __unwindtable$??__F?table@CS@@2V?$Persistent@VString@v8@@V?$NonCopyablePersistentTraits@VString@v8@@@2@@v8@@A@@YAXXZ 100f9788     better_sqlite3.obj
 0002:00018788       __unwindtable$??__F?totalPages@CS@@2V?$Persistent@VString@v8@@V?$NonCopyablePersistentTraits@VString@v8@@@2@@v8@@A@@YAXXZ 100f9788     better_sqlite3.obj
 0002:00018788       __unwindtable$??__F?length@CS@@2V?$Persistent@VString@v8@@V?$NonCopyablePersistentTraits@VString@v8@@@2@@v8@@A@@YAXXZ 100f9788     better_sqlite3.obj
 0002:00018788       __unwindtable$??__F?value@CS@@2V?$Persistent@VString@v8@@V?$NonCopyablePersistentTraits@VString@v8@@@2@@v8@@A@@YAXXZ 100f9788     better_sqlite3.obj
 0002:00018788       __unwindtable$??__F?done@CS@@2V?$Persistent@VString@v8@@V?$NonCopyablePersistentTraits@VString@v8@@@2@@v8@@A@@YAXXZ 100f9788     better_sqlite3.obj
 0002:00018788       __unwindtable$??__F?SqliteError@Database@@0V?$Persistent@VFunction@v8@@V?$NonCopyablePersistentTraits@VFunction@v8@@@2@@v8@@A@@YAXXZ 100f9788     better_sqlite3.obj
 0002:00018788       __unwindtable$??__F?name@CS@@2V?$Persistent@VString@v8@@V?$NonCopyablePersistentTraits@VString@v8@@@2@@v8@@A@@YAXXZ 100f9788     better_sqlite3.obj
 0002:00018788       __unwindtable$??__F?constructor@Statement@@0V?$Persistent@VFunction@v8@@V?$NonCopyablePersistentTraits@VFunction@v8@@@2@@v8@@A@@YAXXZ 100f9788     better_sqlite3.obj
 0002:00018788       __unwindtable$??__F?column@CS@@2V?$Persistent@VString@v8@@V?$NonCopyablePersistentTraits@VString@v8@@@2@@v8@@A@@YAXXZ 100f9788     better_sqlite3.obj
 0002:00018788       __unwindtable$??__F?remainingPages@CS@@2V?$Persistent@VString@v8@@V?$NonCopyablePersistentTraits@VString@v8@@@2@@v8@@A@@YAXXZ 100f9788     better_sqlite3.obj
 0002:00018788       __unwindtable$??__F?constructor@StatementIterator@@0V?$Persistent@VFunction@v8@@V?$NonCopyablePersistentTraits@VFunction@v8@@@2@@v8@@A@@YAXXZ 100f9788     better_sqlite3.obj
 0002:00018788       __unwindtable$??__F?readonly@CS@@2V?$Persistent@VString@v8@@V?$NonCopyablePersistentTraits@VString@v8@@@2@@v8@@A@@YAXXZ 100f9788     better_sqlite3.obj
 0002:00018788       __unwindtable$??__F?lastInsertRowid@CS@@2V?$Persistent@VString@v8@@V?$NonCopyablePersistentTraits@VString@v8@@@2@@v8@@A@@YAXXZ 100f9788     better_sqlite3.obj
 0002:00018788       __unwindtable$??__F?type@CS@@2V?$Persistent@VString@v8@@V?$NonCopyablePersistentTraits@VString@v8@@@2@@v8@@A@@YAXXZ 100f9788     better_sqlite3.obj
 0002:00018788       __unwindtable$??__F?constructor@Backup@@0V?$Persistent@VFunction@v8@@V?$NonCopyablePersistentTraits@VFunction@v8@@@2@@v8@@A@@YAXXZ 100f9788     better_sqlite3.obj
 0002:00018788       __unwindtable$??__F?memory@CS@@2V?$Persistent@VString@v8@@V?$NonCopyablePersistentTraits@VString@v8@@@2@@v8@@A@@YAXXZ 100f9788     better_sqlite3.obj
 0002:00018788       __unwindtable$??__F?code@CS@@2V?$Persistent@VString@v8@@V?$NonCopyablePersistentTraits@VString@v8@@@2@@v8@@A@@YAXXZ 100f9788     better_sqlite3.obj
 0002:00018788       __unwindtable$??__F?constructor@Integer@@0V?$Persistent@VFunction@v8@@V?$NonCopyablePersistentTraits@VFunction@v8@@@2@@v8@@A@@YAXXZ 100f9788     better_sqlite3.obj
 0002:00018788       __unwindtable$??__F?statement@CS@@2V?$Persistent@VString@v8@@V?$NonCopyablePersistentTraits@VString@v8@@@2@@v8@@A@@YAXXZ 100f9788     better_sqlite3.obj
 0002:00018788       __unwindtable$??__F?database@CS@@2V?$Persistent@VString@v8@@V?$NonCopyablePersistentTraits@VString@v8@@@2@@v8@@A@@YAXXZ 100f9788     better_sqlite3.obj
 0002:00018788       __unwindtable$??__F?source@CS@@2V?$Persistent@VString@v8@@V?$NonCopyablePersistentTraits@VString@v8@@@2@@v8@@A@@YAXXZ 100f9788     better_sqlite3.obj
 0002:00018788       __unwindtable$??__F?reader@CS@@2V?$Persistent@VString@v8@@V?$NonCopyablePersistentTraits@VString@v8@@@2@@v8@@A@@YAXXZ 100f9788     better_sqlite3.obj
 0002:00018788       __unwindtable$??__F?next@CS@@2V?$Persistent@VString@v8@@V?$NonCopyablePersistentTraits@VString@v8@@@2@@v8@@A@@YAXXZ 100f9788     better_sqlite3.obj
 0002:00018788       __unwindtable$??__F?isInstance@Integer@@0V?$Persistent@VFunction@v8@@V?$NonCopyablePersistentTraits@VFunction@v8@@@2@@v8@@A@@YAXXZ 100f9788     better_sqlite3.obj
 0002:00018790       __ehfuncinfo$??__F?database@CS@@2V?$Persistent@VString@v8@@V?$NonCopyablePersistentTraits@VString@v8@@@2@@v8@@A@@YAXXZ 100f9790     better_sqlite3.obj
 0002:00018790       __ehfuncinfo$??__F?source@CS@@2V?$Persistent@VString@v8@@V?$NonCopyablePersistentTraits@VString@v8@@@2@@v8@@A@@YAXXZ 100f9790     better_sqlite3.obj
 0002:00018790       __ehfuncinfo$??__F?remainingPages@CS@@2V?$Persistent@VString@v8@@V?$NonCopyablePersistentTraits@VString@v8@@@2@@v8@@A@@YAXXZ 100f9790     better_sqlite3.obj
 0002:00018790       __ehfuncinfo$??__F?constructor@Backup@@0V?$Persistent@VFunction@v8@@V?$NonCopyablePersistentTraits@VFunction@v8@@@2@@v8@@A@@YAXXZ 100f9790     better_sqlite3.obj
 0002:00018790       __ehfuncinfo$??__F?memory@CS@@2V?$Persistent@VString@v8@@V?$NonCopyablePersistentTraits@VString@v8@@@2@@v8@@A@@YAXXZ 100f9790     better_sqlite3.obj
 0002:00018790       __ehfuncinfo$??__F?constructor@StatementIterator@@0V?$Persistent@VFunction@v8@@V?$NonCopyablePersistentTraits@VFunction@v8@@@2@@v8@@A@@YAXXZ 100f9790     better_sqlite3.obj
 0002:00018790       __ehfuncinfo$??__F?readonly@CS@@2V?$Persistent@VString@v8@@V?$NonCopyablePersistentTraits@VString@v8@@@2@@v8@@A@@YAXXZ 100f9790     better_sqlite3.obj
 0002:00018790       __ehfuncinfo$??__F?changes@CS@@2V?$Persistent@VString@v8@@V?$NonCopyablePersistentTraits@VString@v8@@@2@@v8@@A@@YAXXZ 100f9790     better_sqlite3.obj
 0002:00018790       __ehfuncinfo$??__F?constructor@Statement@@0V?$Persistent@VFunction@v8@@V?$NonCopyablePersistentTraits@VFunction@v8@@@2@@v8@@A@@YAXXZ 100f9790     better_sqlite3.obj
 0002:00018790       __ehfuncinfo$??__F?constructor@Integer@@0V?$Persistent@VFunction@v8@@V?$NonCopyablePersistentTraits@VFunction@v8@@@2@@v8@@A@@YAXXZ 100f9790     better_sqlite3.obj
 0002:00018790       __ehfuncinfo$??__F?table@CS@@2V?$Persistent@VString@v8@@V?$NonCopyablePersistentTraits@VString@v8@@@2@@v8@@A@@YAXXZ 100f9790     better_sqlite3.obj
 0002:00018790       __ehfuncinfo$??__F?type@CS@@2V?$Persistent@VString@v8@@V?$NonCopyablePersistentTraits@VString@v8@@@2@@v8@@A@@YAXXZ 100f9790     better_sqlite3.obj
 0002:00018790       __ehfuncinfo$??__F?column@CS@@2V?$Persistent@VString@v8@@V?$NonCopyablePersistentTraits@VString@v8@@@2@@v8@@A@@YAXXZ 100f9790     better_sqlite3.obj
 0002:00018790       __ehfuncinfo$??__F?isInstance@Integer@@0V?$Persistent@VFunction@v8@@V?$NonCopyablePersistentTraits@VFunction@v8@@@2@@v8@@A@@YAXXZ 100f9790     better_sqlite3.obj
 0002:00018790       __ehfuncinfo$??__F?name@CS@@2V?$Persistent@VString@v8@@V?$NonCopyablePersistentTraits@VString@v8@@@2@@v8@@A@@YAXXZ 100f9790     better_sqlite3.obj
 0002:00018790       __ehfuncinfo$??__F?SqliteError@Database@@0V?$Persistent@VFunction@v8@@V?$NonCopyablePersistentTraits@VFunction@v8@@@2@@v8@@A@@YAXXZ 100f9790     better_sqlite3.obj
 0002:00018790       __ehfuncinfo$??__F?next@CS@@2V?$Persistent@VString@v8@@V?$NonCopyablePersistentTraits@VString@v8@@@2@@v8@@A@@YAXXZ 100f9790     better_sqlite3.obj
 0002:00018790       __ehfuncinfo$??__F?lastInsertRowid@CS@@2V?$Persistent@VString@v8@@V?$NonCopyablePersistentTraits@VString@v8@@@2@@v8@@A@@YAXXZ 100f9790     better_sqlite3.obj
 0002:00018790       __ehfuncinfo$??__F?length@CS@@2V?$Persistent@VString@v8@@V?$NonCopyablePersistentTraits@VString@v8@@@2@@v8@@A@@YAXXZ 100f9790     better_sqlite3.obj
 0002:00018790       __ehfuncinfo$??__F?totalPages@CS@@2V?$Persistent@VString@v8@@V?$NonCopyablePersistentTraits@VString@v8@@@2@@v8@@A@@YAXXZ 100f9790     better_sqlite3.obj
 0002:00018790       __ehfuncinfo$??__F?done@CS@@2V?$Persistent@VString@v8@@V?$NonCopyablePersistentTraits@VString@v8@@@2@@v8@@A@@YAXXZ 100f9790     better_sqlite3.obj
 0002:00018790       __ehfuncinfo$??__F?code@CS@@2V?$Persistent@VString@v8@@V?$NonCopyablePersistentTraits@VString@v8@@@2@@v8@@A@@YAXXZ 100f9790     better_sqlite3.obj
 0002:00018790       __ehfuncinfo$??__F?value@CS@@2V?$Persistent@VString@v8@@V?$NonCopyablePersistentTraits@VString@v8@@@2@@v8@@A@@YAXXZ 100f9790     better_sqlite3.obj
 0002:00018790       __ehfuncinfo$??__F?statement@CS@@2V?$Persistent@VString@v8@@V?$NonCopyablePersistentTraits@VString@v8@@@2@@v8@@A@@YAXXZ 100f9790     better_sqlite3.obj
 0002:00018790       __ehfuncinfo$??__F?reader@CS@@2V?$Persistent@VString@v8@@V?$NonCopyablePersistentTraits@VString@v8@@@2@@v8@@A@@YAXXZ 100f9790     better_sqlite3.obj
 0002:000187b4       __unwindtable$??1BindMap@@QAE@XZ 100f97b4     better_sqlite3.obj
 0002:000187bc       __ehfuncinfo$??1BindMap@@QAE@XZ 100f97bc     better_sqlite3.obj
 0002:000187e0       __unwindtable$?Grow@BindMap@@AAEXPAVIsolate@v8@@@Z 100f97e0     better_sqlite3.obj
 0002:000187f0       __ehfuncinfo$?Grow@BindMap@@AAEXPAVIsolate@v8@@@Z 100f97f0     better_sqlite3.obj
 0002:00018814       __unwindtable$??1Database@@UAE@XZ 100f9814     better_sqlite3.obj
 0002:0001882c       __ehfuncinfo$??1Database@@UAE@XZ 100f982c     better_sqlite3.obj
 0002:00018850       __unwindtable$??0Database@@AAE@PAUsqlite3@@PAVIsolate@v8@@V?$Local@VValue@v8@@@3@@Z 100f9850     better_sqlite3.obj
 0002:00018870       __ehfuncinfo$??0Database@@AAE@PAUsqlite3@@PAVIsolate@v8@@V?$Local@VValue@v8@@@3@@Z 100f9870     better_sqlite3.obj
 0002:00018894       __unwindtable$?JS_new@Database@@CAXABV?$FunctionCallbackInfo@VValue@v8@@@v8@@@Z 100f9894     better_sqlite3.obj
 0002:000188a4       __ehfuncinfo$?JS_new@Database@@CAXABV?$FunctionCallbackInfo@VValue@v8@@@v8@@@Z 100f98a4     better_sqlite3.obj
 0002:000188c8       __unwindtable$?JS_exec@Database@@CAXABV?$FunctionCallbackInfo@VValue@v8@@@v8@@@Z 100f98c8     better_sqlite3.obj
 0002:000188d0       __ehfuncinfo$?JS_exec@Database@@CAXABV?$FunctionCallbackInfo@VValue@v8@@@v8@@@Z 100f98d0     better_sqlite3.obj
 0002:000188f4       __unwindtable$?JS_checkpoint@Database@@CAXABV?$FunctionCallbackInfo@VValue@v8@@@v8@@@Z 100f98f4     better_sqlite3.obj
 0002:0001890c       __ehfuncinfo$?JS_checkpoint@Database@@CAXABV?$FunctionCallbackInfo@VValue@v8@@@v8@@@Z 100f990c     better_sqlite3.obj
 0002:00018930       __unwindtable$?JS_function@Database@@CAXABV?$FunctionCallbackInfo@VValue@v8@@@v8@@@Z 100f9930     better_sqlite3.obj
 0002:00018940       __ehfuncinfo$?JS_function@Database@@CAXABV?$FunctionCallbackInfo@VValue@v8@@@v8@@@Z 100f9940     better_sqlite3.obj
 0002:00018964       __unwindtable$?JS_aggregate@Database@@CAXABV?$FunctionCallbackInfo@VValue@v8@@@v8@@@Z 100f9964     better_sqlite3.obj
 0002:00018974       __ehfuncinfo$?JS_aggregate@Database@@CAXABV?$FunctionCallbackInfo@VValue@v8@@@v8@@@Z 100f9974     better_sqlite3.obj
 0002:00018998       __unwindtable$?JS_loadExtension@Database@@CAXABV?$FunctionCallbackInfo@VValue@v8@@@v8@@@Z 100f9998     better_sqlite3.obj
 0002:000189a0       __ehfuncinfo$?JS_loadExtension@Database@@CAXABV?$FunctionCallbackInfo@VValue@v8@@@v8@@@Z 100f99a0     better_sqlite3.obj
 0002:000189c4       __unwindtable$?GetBindMap@Statement@@QAEPAVBindMap@@PAVIsolate@v8@@@Z 100f99c4     better_sqlite3.obj
 0002:000189cc       __ehfuncinfo$?GetBindMap@Statement@@QAEPAVBindMap@@PAVIsolate@v8@@@Z 100f99cc     better_sqlite3.obj
 0002:000189f0       __unwindtable$??1Statement@@UAE@XZ 100f99f0     better_sqlite3.obj
 0002:00018a00       __ehfuncinfo$??1Statement@@UAE@XZ 100f9a00     better_sqlite3.obj
 0002:00018a24       __unwindtable$??0Statement@@AAE@PAVDatabase@@PAUsqlite3_stmt@@_N@Z 100f9a24     better_sqlite3.obj
 0002:00018a2c       __ehfuncinfo$??0Statement@@AAE@PAVDatabase@@PAUsqlite3_stmt@@_N@Z 100f9a2c     better_sqlite3.obj
 0002:00018a50       __unwindtable$?JS_new@Statement@@CAXABV?$FunctionCallbackInfo@VValue@v8@@@v8@@@Z 100f9a50     better_sqlite3.obj
 0002:00018a60       __ehfuncinfo$?JS_new@Statement@@CAXABV?$FunctionCallbackInfo@VValue@v8@@@v8@@@Z 100f9a60     better_sqlite3.obj
 0002:00018a84       __unwindtable$?CloseHandles@Backup@@QAEXXZ 100f9a84     better_sqlite3.obj
 0002:00018a8c       __ehfuncinfo$?CloseHandles@Backup@@QAEXXZ 100f9a8c     better_sqlite3.obj
 0002:00018ab0       __unwindtable$??0Backup@@AAE@PAVDatabase@@PAUsqlite3@@PAUsqlite3_backup@@_N@Z 100f9ab0     better_sqlite3.obj
 0002:00018ab8       __ehfuncinfo$??0Backup@@AAE@PAVDatabase@@PAUsqlite3@@PAUsqlite3_backup@@_N@Z 100f9ab8     better_sqlite3.obj
 0002:00018adc       __unwindtable$?JS_new@Backup@@CAXABV?$FunctionCallbackInfo@VValue@v8@@@v8@@@Z 100f9adc     better_sqlite3.obj
 0002:00018af4       __ehfuncinfo$?JS_new@Backup@@CAXABV?$FunctionCallbackInfo@VValue@v8@@@v8@@@Z 100f9af4     better_sqlite3.obj
 0002:00018b18       __unwindtable$?xFunc@CustomFunction@@SAXPAUsqlite3_context@@HPAPAUsqlite3_value@@@Z 100f9b18     better_sqlite3.obj
 0002:00018b20       __ehfuncinfo$?xFunc@CustomFunction@@SAXPAUsqlite3_context@@HPAPAUsqlite3_value@@@Z 100f9b20     better_sqlite3.obj
 0002:00018b44       __unwindtable$?ThrowResultValueError@CustomFunction@@QAEXPAUsqlite3_context@@@Z 100f9b44     better_sqlite3.obj
 0002:00018b4c       __ehfuncinfo$?ThrowResultValueError@CustomFunction@@QAEXPAUsqlite3_context@@@Z 100f9b4c     better_sqlite3.obj
 0002:00018b70       __unwindtable$??0CustomAggregate@@QAE@PAVIsolate@v8@@PAVDatabase@@V?$Local@VValue@v8@@@2@V?$Local@VFunction@v8@@@2@22PBD_N@Z 100f9b70     better_sqlite3.obj
 0002:00018b88       __ehfuncinfo$??0CustomAggregate@@QAE@PAVIsolate@v8@@PAVDatabase@@V?$Local@VValue@v8@@@2@V?$Local@VFunction@v8@@@2@22PBD_N@Z 100f9b88     better_sqlite3.obj
 0002:00018bac       __unwindtable$??1CustomAggregate@@UAE@XZ 100f9bac     better_sqlite3.obj
 0002:00018bcc       __ehfuncinfo$??1CustomAggregate@@UAE@XZ 100f9bcc     better_sqlite3.obj
 0002:00018bf0       __unwindtable$?BindValueFromJS@Data@@YAHPAVIsolate@v8@@PAUsqlite3_stmt@@HV?$Local@VValue@v8@@@3@@Z 100f9bf0     better_sqlite3.obj
 0002:00018bf0       __unwindtable$?ResultValueFromJS@Data@@YAXPAVIsolate@v8@@PAUsqlite3_context@@V?$Local@VValue@v8@@@3@PAVCustomFunction@@@Z 100f9bf0     better_sqlite3.obj
 0002:00018bf8       __ehfuncinfo$?BindValueFromJS@Data@@YAHPAVIsolate@v8@@PAUsqlite3_stmt@@HV?$Local@VValue@v8@@@3@@Z 100f9bf8     better_sqlite3.obj
 0002:00018bf8       __ehfuncinfo$?ResultValueFromJS@Data@@YAXPAVIsolate@v8@@PAUsqlite3_context@@V?$Local@VValue@v8@@@3@PAVCustomFunction@@@Z 100f9bf8     better_sqlite3.obj
 0002:00018c1c       __unwindtable$?BindObject@Binder@@AAEHPAVIsolate@v8@@V?$Local@VObject@v8@@@3@PAVStatement@@@Z 100f9c1c     better_sqlite3.obj
 0002:00018c2c       __ehfuncinfo$?BindObject@Binder@@AAEHPAVIsolate@v8@@V?$Local@VObject@v8@@@3@PAVStatement@@@Z 100f9c2c     better_sqlite3.obj
 0002:00018c50       __unwindtable$?RegisterModule@@YAXV?$Local@VObject@v8@@@v8@@0@Z 100f9c50     better_sqlite3.obj
 0002:00018c58       __ehfuncinfo$?RegisterModule@@YAXV?$Local@VObject@v8@@@v8@@0@Z 100f9c58     better_sqlite3.obj
 0002:00018c7c       __unwindtable$??1?$_Hash@V?$_Umap_traits@HV?$Persistent@VString@v8@@V?$NonCopyablePersistentTraits@VString@v8@@@2@@v8@@V?$_Uhash_compare@HU?$hash@H@std@@U?$equal_to@H@2@@std@@V?$allocator@U?$pair@$$CBHV?$Persistent@VString@v8@@V?$NonCopyablePersistentTraits@VString@v8@@@2@@v8@@@std@@@4@$0A@@std@@@std@@QAE@XZ 100f9c7c     better_sqlite3.obj
 0002:00018c84       __ehfuncinfo$??1?$_Hash@V?$_Umap_traits@HV?$Persistent@VString@v8@@V?$NonCopyablePersistentTraits@VString@v8@@@2@@v8@@V?$_Uhash_compare@HU?$hash@H@std@@U?$equal_to@H@2@@std@@V?$allocator@U?$pair@$$CBHV?$Persistent@VString@v8@@V?$NonCopyablePersistentTraits@VString@v8@@@2@@v8@@@std@@@4@$0A@@std@@@std@@QAE@XZ 100f9c84     better_sqlite3.obj
 0002:00018ca8       __ehfuncinfo$??1?$Persistent@VValue@v8@@U?$CopyablePersistentTraits@VValue@v8@@@2@@v8@@QAE@XZ 100f9ca8     better_sqlite3.obj
 0002:00018ca8       __ehfuncinfo$??1?$Persistent@VFunction@v8@@U?$CopyablePersistentTraits@VFunction@v8@@@2@@v8@@QAE@XZ 100f9ca8     better_sqlite3.obj
 0002:00018ccc       __unwindtable$??1?$list@U?$pair@$$CBHV?$Persistent@VString@v8@@V?$NonCopyablePersistentTraits@VString@v8@@@2@@v8@@@std@@V?$allocator@U?$pair@$$CBHV?$Persistent@VString@v8@@V?$NonCopyablePersistentTraits@VString@v8@@@2@@v8@@@std@@@2@@std@@QAE@XZ 100f9ccc     better_sqlite3.obj
 0002:00018cd4       __ehfuncinfo$??1?$list@U?$pair@$$CBHV?$Persistent@VString@v8@@V?$NonCopyablePersistentTraits@VString@v8@@@2@@v8@@@std@@V?$allocator@U?$pair@$$CBHV?$Persistent@VString@v8@@V?$NonCopyablePersistentTraits@VString@v8@@@2@@v8@@@std@@@2@@std@@QAE@XZ 100f9cd4     better_sqlite3.obj
 0002:00018cf8       __unwindtable$??0?$_Hash@V?$_Umap_traits@HV?$Persistent@VString@v8@@V?$NonCopyablePersistentTraits@VString@v8@@@2@@v8@@V?$_Uhash_compare@HU?$hash@H@std@@U?$equal_to@H@2@@std@@V?$allocator@U?$pair@$$CBHV?$Persistent@VString@v8@@V?$NonCopyablePersistentTraits@VString@v8@@@2@@v8@@@std@@@4@$0A@@std@@@std@@QAE@ABV?$_Uhash_compare@HU?$hash@H@std@@U?$equal_to@H@2@@1@ABV?$allocator@U?$pair@$$CBHV?$Persistent@VString@v8@@V?$NonCopyablePersistentTraits@VString@v8@@@2@@v8@@@std@@@1@@Z 100f9cf8     better_sqlite3.obj
 0002:00018d08       __ehfuncinfo$??0?$_Hash@V?$_Umap_traits@HV?$Persistent@VString@v8@@V?$NonCopyablePersistentTraits@VString@v8@@@2@@v8@@V?$_Uhash_compare@HU?$hash@H@std@@U?$equal_to@H@2@@std@@V?$allocator@U?$pair@$$CBHV?$Persistent@VString@v8@@V?$NonCopyablePersistentTraits@VString@v8@@@2@@v8@@@std@@@4@$0A@@std@@@std@@QAE@ABV?$_Uhash_compare@HU?$hash@H@std@@U?$equal_to@H@2@@1@ABV?$allocator@U?$pair@$$CBHV?$Persistent@VString@v8@@V?$NonCopyablePersistentTraits@VString@v8@@@2@@v8@@@std@@@1@@Z 100f9d08     better_sqlite3.obj
 0002:00018d2c       __unwindtable$??$_Insert@AAU?$pair@$$CBHV?$Persistent@VString@v8@@V?$NonCopyablePersistentTraits@VString@v8@@@2@@v8@@@std@@V?$_List_unchecked_iterator@V?$_List_val@U?$_List_simple_types@U?$pair@$$CBHV?$Persistent@VString@v8@@V?$NonCopyablePersistentTraits@VString@v8@@@2@@v8@@@std@@@std@@@std@@@2@@?$_Hash@V?$_Umap_traits@HV?$Persistent@VString@v8@@V?$NonCopyablePersistentTraits@VString@v8@@@2@@v8@@V?$_Uhash_compare@HU?$hash@H@std@@U?$equal_to@H@2@@std@@V?$allocator@U?$pair@$$CBHV?$Persistent@VString@v8@@V?$NonCopyablePersistentTraits@VString@v8@@@2@@v8@@@std@@@4@$0A@@std@@@std@@IAE?AU?$pair@V?$_List_iterator@V?$_List_val@U?$_List_simple_types@U?$pair@$$CBHV?$Persistent@VString@v8@@V?$NonCopyablePersistentTraits@VString@v8@@@2@@v8@@@std@@@std@@@std@@@std@@_N@1@AAU?$pair@$$CBHV?$Persistent@VString@v8@@V?$NonCopyablePersistentTraits@VString@v8@@@2@@v8@@@1@V?$_List_unchecked_iterator@V?$_List_val@U?$_List_simple_types@U?$pair@$$CBHV?$Persistent@VString@v8@@V?$NonCopyablePersistentTraits@VString@v8@@@2@@v8@@@std@@@std@@@std@@@1@@Z 100f9d2c     better_sqlite3.obj
 0002:00018d3c       __ehfuncinfo$??$_Insert@AAU?$pair@$$CBHV?$Persistent@VString@v8@@V?$NonCopyablePersistentTraits@VString@v8@@@2@@v8@@@std@@V?$_List_unchecked_iterator@V?$_List_val@U?$_List_simple_types@U?$pair@$$CBHV?$Persistent@VString@v8@@V?$NonCopyablePersistentTraits@VString@v8@@@2@@v8@@@std@@@std@@@std@@@2@@?$_Hash@V?$_Umap_traits@HV?$Persistent@VString@v8@@V?$NonCopyablePersistentTraits@VString@v8@@@2@@v8@@V?$_Uhash_compare@HU?$hash@H@std@@U?$equal_to@H@2@@std@@V?$allocator@U?$pair@$$CBHV?$Persistent@VString@v8@@V?$NonCopyablePersistentTraits@VString@v8@@@2@@v8@@@std@@@4@$0A@@std@@@std@@IAE?AU?$pair@V?$_List_iterator@V?$_List_val@U?$_List_simple_types@U?$pair@$$CBHV?$Persistent@VString@v8@@V?$NonCopyablePersistentTraits@VString@v8@@@2@@v8@@@std@@@std@@@std@@@std@@_N@1@AAU?$pair@$$CBHV?$Persistent@VString@v8@@V?$NonCopyablePersistentTraits@VString@v8@@@2@@v8@@@1@V?$_List_unchecked_iterator@V?$_List_val@U?$_List_simple_types@U?$pair@$$CBHV?$Persistent@VString@v8@@V?$NonCopyablePersistentTraits@VString@v8@@@2@@v8@@@std@@@std@@@std@@@1@@Z 100f9d3c     better_sqlite3.obj
 0002:00018d60       __unwindtable$??$_Buynode@ABUpiecewise_construct_t@std@@V?$tuple@AAH@2@V?$tuple@AAPAVIsolate@v8@@$$QAV?$Local@VString@v8@@@2@@2@@?$_List_buy@U?$pair@$$CBHV?$Persistent@VString@v8@@V?$NonCopyablePersistentTraits@VString@v8@@@2@@v8@@@std@@V?$allocator@U?$pair@$$CBHV?$Persistent@VString@v8@@V?$NonCopyablePersistentTraits@VString@v8@@@2@@v8@@@std@@@2@@std@@QAEPAU?$_List_node@U?$pair@$$CBHV?$Persistent@VString@v8@@V?$NonCopyablePersistentTraits@VString@v8@@@2@@v8@@@std@@PAX@1@PAU21@0ABUpiecewise_construct_t@1@$$QAV?$tuple@AAH@1@$$QAV?$tuple@AAPAVIsolate@v8@@$$QAV?$Local@VString@v8@@@2@@1@@Z 100f9d60     better_sqlite3.obj
 0002:00018d68       __ehfuncinfo$??$_Buynode@ABUpiecewise_construct_t@std@@V?$tuple@AAH@2@V?$tuple@AAPAVIsolate@v8@@$$QAV?$Local@VString@v8@@@2@@2@@?$_List_buy@U?$pair@$$CBHV?$Persistent@VString@v8@@V?$NonCopyablePersistentTraits@VString@v8@@@2@@v8@@@std@@V?$allocator@U?$pair@$$CBHV?$Persistent@VString@v8@@V?$NonCopyablePersistentTraits@VString@v8@@@2@@v8@@@std@@@2@@std@@QAEPAU?$_List_node@U?$pair@$$CBHV?$Persistent@VString@v8@@V?$NonCopyablePersistentTraits@VString@v8@@@2@@v8@@@std@@PAX@1@PAU21@0ABUpiecewise_construct_t@1@$$QAV?$tuple@AAH@1@$$QAV?$tuple@AAPAVIsolate@v8@@$$QAV?$Local@VString@v8@@@2@@1@@Z 100f9d68     better_sqlite3.obj
 0002:00018e78       __sehtable$___scrt_is_nonwritable_in_current_image 100f9e78     LIBCMT:utility.obj
 0002:00018e98       __sehtable$?dllmain_crt_process_attach@@YAHQAUHINSTANCE__@@QAX@Z 100f9e98     LIBCMT:dll_dllmain.obj
 0002:00018eb8       __sehtable$?dllmain_crt_process_detach@@YAH_N@Z 100f9eb8     LIBCMT:dll_dllmain.obj
 0002:00018ed8       __sehtable$?dllmain_dispatch@@YAHQAUHINSTANCE__@@KQAX@Z 100f9ed8     LIBCMT:dll_dllmain.obj
 0002:00018f30       __sehtable$___FrameUnwindToState 100f9f30     libvcruntime:frame.obj
 0002:00018f58       __sehtable$?CallCatchBlock@@YAPAXPAUEHExceptionRecord@@PAUEHRegistrationNode@@PAU_CONTEXT@@PBU_s_FuncInfo@@PAXHK@Z 100f9f58     libvcruntime:frame.obj
 0002:00018f80       __sehtable$___BuildCatchObject 100f9f80     libvcruntime:frame.obj
 0002:00018fa0       __sehtable$___DestructExceptionObject 100f9fa0     libvcruntime:frame.obj
 0002:00018fbc       __catchsym$?CallUnexpected@@YAXPBU_s_ESTypeList@@@Z$2 100f9fbc     libvcruntime:frame.obj
 0002:00018fcc       __unwindtable$?CallUnexpected@@YAXPBU_s_ESTypeList@@@Z 100f9fcc     libvcruntime:frame.obj
 0002:00018fdc       __tryblocktable$?CallUnexpected@@YAXPBU_s_ESTypeList@@@Z 100f9fdc     libvcruntime:frame.obj
 0002:00018ff0       __ehfuncinfo$?CallUnexpected@@YAXPBU_s_ESTypeList@@@Z 100f9ff0     libvcruntime:frame.obj
 0002:00019018       __sehtable$___BuildCatchObjectHelper 100fa018     libvcruntime:frame.obj
 0002:00019070       __sehtable$__query_new_handler 100fa070     libucrt:new_handler.obj
 0002:00019090       __sehtable$?common_exit@@YAXHW4_crt_exit_cleanup_mode@@W4_crt_exit_return_mode@@@Z 100fa090     libucrt:exit.obj
 0002:000190b8       __sehtable$??$?RV<lambda_800076c951b434888f4765a74a194fcc>@@AAV<lambda_4e60a939b0d047cfe11ddc22648dfba9>@@V<lambda_6dbb1268764f43b569ce7b67e331d33a>@@@?$__crt_seh_guarded_call@H@@QAEH$$QAV<lambda_800076c951b434888f4765a74a194fcc>@@AAV<lambda_4e60a939b0d047cfe11ddc22648dfba9>@@$$QAV<lambda_6dbb1268764f43b569ce7b67e331d33a>@@@Z 100fa0b8     libucrt:onexit.obj
 0002:000190d8       __sehtable$??$?RV<lambda_995298e7d72eb4c2aab26c0585b3abe5>@@AAV<lambda_275893d493268fdec8709772e3fcec0e>@@V<lambda_293819299cbf9a7022e18b56a874bb5c>@@@?$__crt_seh_guarded_call@H@@QAEH$$QAV<lambda_995298e7d72eb4c2aab26c0585b3abe5>@@AAV<lambda_275893d493268fdec8709772e3fcec0e>@@$$QAV<lambda_293819299cbf9a7022e18b56a874bb5c>@@@Z 100fa0d8     libucrt:onexit.obj
 0002:000190f8       __sehtable$_terminate      100fa0f8     libucrt:terminate.obj
 0002:00019118       __sehtable$??$?RV<lambda_9df27f884b057bc3edfc946cb5b7cf47>@@AAV<lambda_e69574bed617af4e071282c136b37893>@@V<lambda_cc0d902bcbbeb830f749456577db4721>@@@?$__crt_seh_guarded_call@X@@QAEX$$QAV<lambda_9df27f884b057bc3edfc946cb5b7cf47>@@AAV<lambda_e69574bed617af4e071282c136b37893>@@$$QAV<lambda_cc0d902bcbbeb830f749456577db4721>@@@Z 100fa118     libucrt:per_thread_data.obj
 0002:00019138       __sehtable$??$?RV<lambda_3518db117f0e7cdb002338c5d3c47b6c>@@AAV<lambda_b2ea41f6bbb362cd97d94c6828d90b61>@@V<lambda_abdedf541bb04549bc734292b4a045d4>@@@?$__crt_seh_guarded_call@X@@QAEX$$QAV<lambda_3518db117f0e7cdb002338c5d3c47b6c>@@AAV<lambda_b2ea41f6bbb362cd97d94c6828d90b61>@@$$QAV<lambda_abdedf541bb04549bc734292b4a045d4>@@@Z 100fa138     libucrt:per_thread_data.obj
 0002:00019158       __sehtable$??$?RV<lambda_51b6e8b1eb166f2a3faf91f424b38130>@@AAV<lambda_6250bd4b2a391816dd638c3bf72b0bcb>@@V<lambda_0b5a4a3e68152e1d9b943535f5f47bed>@@@?$__crt_seh_guarded_call@X@@QAEX$$QAV<lambda_51b6e8b1eb166f2a3faf91f424b38130>@@AAV<lambda_6250bd4b2a391816dd638c3bf72b0bcb>@@$$QAV<lambda_0b5a4a3e68152e1d9b943535f5f47bed>@@@Z 100fa158     libucrt:per_thread_data.obj
 0002:00019178       __sehtable$??$?RV<lambda_5b71d36f03204c0beab531769a5b5694>@@AAV<lambda_be2b3da3f62db62e9dad5dc70221a656>@@V<lambda_8f9ce462984622f9bf76b59e2aaaf805>@@@?$__crt_seh_guarded_call@X@@QAEX$$QAV<lambda_5b71d36f03204c0beab531769a5b5694>@@AAV<lambda_be2b3da3f62db62e9dad5dc70221a656>@@$$QAV<lambda_8f9ce462984622f9bf76b59e2aaaf805>@@@Z 100fa178     libucrt:per_thread_data.obj
 0002:00019198       __sehtable$___acrt_uninitialize_locale 100fa198     libucrt:wsetlocale.obj
 0002:000191b8       __sehtable$__isindst       100fa1b8     libucrt:tzset.obj
 0002:000191d8       __sehtable$___tzset        100fa1d8     libucrt:tzset.obj
 0002:000191f8       __sehtable$___acrt_update_thread_multibyte_data 100fa1f8     libucrt:mbctype.obj
 0002:00019218       __sehtable$??$?RV<lambda_978dc153c237d78434369da87b74ff60>@@AAV<lambda_ad1ced32f4ac17aa236e5ef05d6b3b7c>@@V<lambda_4a8533e2866a575feecb8298ce776b0d>@@@?$__crt_seh_guarded_call@X@@QAEX$$QAV<lambda_978dc153c237d78434369da87b74ff60>@@AAV<lambda_ad1ced32f4ac17aa236e5ef05d6b3b7c>@@$$QAV<lambda_4a8533e2866a575feecb8298ce776b0d>@@@Z 100fa218     libucrt:mbctype.obj
 0002:00019238       __sehtable$___acrt_initialize_lowio 100fa238     libucrt:ioinit.obj
 0002:00019258       __sehtable$_raise          100fa258     libucrt:signal.obj
 0002:00019278       __sehtable$??$?RV<lambda_a048d3beccc847880fc8490e18b82769>@@AAV<lambda_ec61778202f4f5fc7e7711acc23c3bca>@@V<lambda_f7496a158712204296dd6628a163878e>@@@?$__crt_seh_guarded_call@P6AXH@Z@@QAEP6AXH@Z$$QAV<lambda_a048d3beccc847880fc8490e18b82769>@@AAV<lambda_ec61778202f4f5fc7e7711acc23c3bca>@@$$QAV<lambda_f7496a158712204296dd6628a163878e>@@@Z 100fa278     libucrt:signal.obj
 0002:00019298       __sehtable$___acrt_update_thread_locale_data 100fa298     libucrt:locale_refcounting.obj
 0002:000192b8       __sehtable$??$common_getenv_s@D@@YAHQAIQADIQBD@Z 100fa2b8     libucrt:getenv.obj
 0002:000192d8       __sehtable$___acrt_lowio_ensure_fh_exists 100fa2d8     libucrt:osfinfo.obj
 0002:000192f8       __sehtable$_common_flush_all 100fa2f8     libucrt:fflush.obj
 0002:00019320       __sehtable$__fcloseall     100fa320     libucrt:closeall.obj
 0002:00019340       __sehtable$??$?RV<lambda_61cee617f5178ae960314fd4d05640a0>@@AAV<lambda_6978c1fb23f02e42e1d9e99668cc68aa>@@V<lambda_9cd88cf8ad10232537feb2133f08c833>@@@?$__crt_seh_guarded_call@H@@QAEH$$QAV<lambda_61cee617f5178ae960314fd4d05640a0>@@AAV<lambda_6978c1fb23f02e42e1d9e99668cc68aa>@@$$QAV<lambda_9cd88cf8ad10232537feb2133f08c833>@@@Z 100fa340     libucrt:commit.obj
 0002:00019360       __sehtable$__write         100fa360     libucrt:write.obj
 0002:00019380       __sehtable$_fclose         100fa380     libucrt:fclose.obj
 0002:000193a0       __sehtable$??$?RV<lambda_123407a5e2ac06da108355a851863b7a>@@AAV<lambda_2fe9b910cf3cbf4a0ab98a02ba45b3ec>@@V<lambda_ae55bdf541ad94d75914d381c370e64d>@@@?$__crt_seh_guarded_call@H@@QAEH$$QAV<lambda_123407a5e2ac06da108355a851863b7a>@@AAV<lambda_2fe9b910cf3cbf4a0ab98a02ba45b3ec>@@$$QAV<lambda_ae55bdf541ad94d75914d381c370e64d>@@@Z 100fa3a0     libucrt:close.obj
 0002:000193c0       __sehtable$__IsNonwritableInCurrentImage 100fa3c0     LIBCMT:pesect.obj
 0002:0001a890       .edata                     100fb890     better_sqlite3.exp
 0002:0001a8b8       rgpv                       100fb8b8     better_sqlite3.exp
 0002:0001a8bc       rgszName                   100fb8bc     better_sqlite3.exp
 0002:0001a8c0       rgwOrd                     100fb8c0     better_sqlite3.exp
 0002:0001a8c2       szName                     100fb8c2     better_sqlite3.exp
 0002:0001a8d6       $N00001                    100fb8d6     better_sqlite3.exp
 0002:0001ab04       .idata$6                   100fbb04     kernel32:KERNEL32.dll
 0003:00000010       ?__vcrt_flsindex@@3KA      100fd010     libvcruntime:per_thread_data.obj
 0003:00000034       ___acrt_flsindex           100fd034     libucrt:per_thread_data.obj
 0003:00000038       _errno_no_memory           100fd038     libucrt:errno.obj
 0003:0000003c       _doserrno_no_memory        100fd03c     libucrt:errno.obj
 0003:00000108       _tzstd_program             100fd108     libucrt:timeset.obj
 0003:00000148       _tzdst_program             100fd148     libucrt:timeset.obj
 0003:00000188       _tzname_states             100fd188     libucrt:timeset.obj
 0003:00000190       _dststart                  100fd190     libucrt:tzset.obj
 0003:0000019c       _dstend                    100fd19c     libucrt:tzset.obj
 0003:000001a8       ___rgctypeflag             100fd1a8     libucrt:mbctype.obj
 0003:000001b0       ___rgcode_page_info        100fd1b0     libucrt:mbctype.obj
 0003:00000800       __module                   100fd800     better_sqlite3.obj
 0003:00000824       _winNolockAppData          100fd824     sqlite3:sqlite3.obj
 0003:00000830       _sqlite3OomStr             100fd830     sqlite3:sqlite3.obj
 0003:00000848       ?winVfs@?1??sqlite3_os_init@@9@9 100fd848     sqlite3:sqlite3.obj
 0003:000008a0       _winAppData                100fd8a0     sqlite3:sqlite3.obj
 0003:000008ac       ?aCacheMode@?BD@??sqlite3ParseUri@@9@9 100fd8ac     sqlite3:sqlite3.obj
 0003:000008c4       _winIoerrRetry             100fd8c4     sqlite3:sqlite3.obj
 0003:000008c8       _sqlite3PendingByte        100fd8c8     sqlite3:sqlite3.obj
 0003:000008cc       _winIoerrRetryDelay        100fd8cc     sqlite3:sqlite3.obj
 0003:000008d0       _jsonTreeModule            100fd8d0     sqlite3:sqlite3.obj
 0003:00000930       ?aOpenMode@?BE@??sqlite3ParseUri@@9@9 100fd930     sqlite3:sqlite3.obj
 0003:00000958       _jsonEachModule            100fd958     sqlite3:sqlite3.obj
 0003:000009b8       ?aAlterTableFuncs@?1??sqlite3AlterFunctions@@9@9 100fd9b8     sqlite3:sqlite3.obj
 0003:00000a30       _rtreeModule               100fda30     sqlite3:sqlite3.obj
 0003:00000a90       _aSyscall                  100fda90     sqlite3:sqlite3.obj
 0003:00000e50       ?winLongPathNolockVfs@?1??sqlite3_os_init@@9@9 100fde50     sqlite3:sqlite3.obj
 0003:00000ea8       ?winNolockVfs@?1??sqlite3_os_init@@9@9 100fdea8     sqlite3:sqlite3.obj
 0003:00000f00       ?aWindowFuncs@?1??sqlite3WindowFunctions@@9@9 100fdf00     sqlite3:sqlite3.obj
 0003:00001158       _aAsciiTokenChar           100fe158     sqlite3:sqlite3.obj
 0003:000011d8       _sqlite3Config             100fe1d8     sqlite3:sqlite3.obj
 0003:000012f0       ?aAnalyzeTableFuncs@?1??sqlite3AnalyzeFunctions@@9@9 100fe2f0     sqlite3:sqlite3.obj
 0003:00001318       ?aDateTimeFuncs@?1??sqlite3RegisterDateTimeFunctions@@9@9 100fe318     sqlite3:sqlite3.obj
 0003:00001458       ?winLongPathVfs@?1??sqlite3_os_init@@9@9 100fe458     sqlite3:sqlite3.obj
 0003:000014b0       ?aBuiltinFunc@?1??sqlite3RegisterBuiltinFunctions@@9@9 100fe4b0     sqlite3:sqlite3.obj
 0003:0000202c       ?module_local_atexit_table@@3U_onexit_table_t@@A 100ff02c     LIBCMT:utility.obj
 0003:00002038       ?module_local_at_quick_exit_table@@3U_onexit_table_t@@A 100ff038     LIBCMT:utility.obj
 0003:00002044       ?is_initialized_as_dll@@3_NA 100ff044     LIBCMT:utility.obj
 0003:00002048       ?__proc_attached@@3HA      100ff048     LIBCMT:dll_dllmain.obj
 0003:00002050       _GS_ExceptionRecord        100ff050     LIBCMT:gs_report.obj
 0003:000020a0       _GS_ContextRecord          100ff0a0     LIBCMT:gs_report.obj
 0003:00002394       ?__vcrt_startup_thread_ptd@@3U__vcrt_ptd@@A 100ff394     libvcruntime:per_thread_data.obj
 0003:000023bc       ___vcrt_lock_table         100ff3bc     libvcruntime:locks.obj
 0003:000023d4       ___vcrt_locks_initialized  100ff3d4     libvcruntime:locks.obj
 0003:000023d8       ?module_handles@@3PAPAUHINSTANCE__@@A 100ff3d8     libvcruntime:winapi_downlevel.obj
 0003:000023e8       ?encoded_function_pointers@@3PAPAXA 100ff3e8     libvcruntime:winapi_downlevel.obj
 0003:00002438       ?heap@@3V_HeapManager@@A   100ff438     libvcruntime:undname.obj
 0003:0000244c       ___acrt_invalid_parameter_handler 100ff44c     libucrt:invalid_parameter.obj
 0003:00002450       ___acrt_new_handler        100ff450     libucrt:new_handler.obj
 0003:00002454       _c_termination_complete    100ff454     libucrt:exit.obj
 0003:00002458       _thread_local_exit_callback_func 100ff458     libucrt:exit.obj
 0003:0000245c       ?c_exit_complete@?5??common_exit@@YAXHW4_crt_exit_cleanup_mode@@W4_crt_exit_return_mode@@@Z@4_NA 100ff45c     libucrt:exit.obj
 0003:00002460       ?program_name@?5???$common_configure_argv@D@@YAHW4_crt_argv_mode@@@Z@4PADA 100ff460     libucrt:argv_parsing.obj
 0003:000025a4       __tzname                   100ff5a4     libucrt:timeset.obj
 0003:000025a8       _last_tz                   100ff5a8     libucrt:tzset.obj
 0003:000025b0       _tz_api_used               100ff5b0     libucrt:tzset.obj
 0003:000025b8       _tz_info                   100ff5b8     libucrt:tzset.obj
 0003:00002664       ?first_time@?1??__tzset@@9@4JA 100ff664     libucrt:tzset.obj
 0003:00002670       ___acrt_lock_table         100ff670     libucrt:locks.obj
 0003:000027a8       ___acrt_locks_initialized  100ff7a8     libucrt:locks.obj
 0003:000027b0       _module_handles            100ff7b0     libucrt:winapi_thunks.obj
 0003:00002800       _encoded_function_pointers 100ff800     libucrt:winapi_thunks.obj
 0003:00002880       ?state_cache@?1??__acrt_is_packaged_app@@9@4JA 100ff880     libucrt:winapi_thunks.obj
 0003:0000289c       _fSystemSet                100ff89c     libucrt:mbctype.obj
 0003:000028a0       ?initialized@?1??__acrt_initialize_multibyte@@9@4_NA 100ff8a0     libucrt:mbctype.obj
 0003:00002ac4       _ctrlc_action              100ffac4     libucrt:signal.obj
 0003:00002ac8       _ctrlbreak_action          100ffac8     libucrt:signal.obj
 0003:00002acc       _abort_action              100ffacc     libucrt:signal.obj
 0003:00002ad0       _term_action               100ffad0     libucrt:signal.obj
 0003:00002ad4       _user_matherr              100ffad4     libucrt:matherr.obj
 0003:00002ae0       ___acrt_global_new_mode    100ffae0     libucrt:new_mode.obj
 0003:00002af4       ___acrt_app_type           100ffaf4     libucrt:report_runtime_error.obj
 0003:00002afc       __pmatherr_set             100ffafc     libucrt:libm_error.obj
 0003:00002b2e       ?fakeCursor@?1??sqlite3BtreeFakeValidCursor@@9@9 100ffb2e     sqlite3:sqlite3.obj
 0003:00002b44       _sqlite3SharedCacheList    100ffb44     sqlite3:sqlite3.obj
 0003:00002b48       _mem0                      100ffb48     sqlite3:sqlite3.obj
 0003:00002b60       _sqlite3Hooks              100ffb60     sqlite3:sqlite3.obj
 0003:00002b68       ?nullElement@?1??findElementWithHash@@9@9 100ffb68     sqlite3:sqlite3.obj
 0003:00002b78       _sqlite3Stat               100ffb78     sqlite3:sqlite3.obj
 0003:00002bc8       _winShmNodeList            100ffbc8     sqlite3:sqlite3.obj
 0003:00002bcc       _sqlite3Autoext            100ffbcc     sqlite3:sqlite3.obj
 0003:00002bd4       _vfsList                   100ffbd4     sqlite3:sqlite3.obj
 0003:00002c64       ?aZero@?LM@??sqlite3VdbeExec@@9@9 100ffc64     sqlite3:sqlite3.obj
 0003:00002c74       _winSysInfo                100ffc74     sqlite3:sqlite3.obj
 0003:00002c98       _pcache1_g                 100ffc98     sqlite3:sqlite3.obj
 0003:00002cfc       ?dummy@?1??sqlite3VdbeGetOp@@9@9 100ffcfc     sqlite3:sqlite3.obj
 0003:00002d10       _sqlite3BuiltinFunctions   100ffd10     sqlite3:sqlite3.obj
 0003:00002d70       _sqlite3Prng               100ffd70     sqlite3:sqlite3.obj
 0003:00002e78       _sqlite3SavedPrng          100ffe78     sqlite3:sqlite3.obj
 0004:00000000       __guard_fids____dcrt_uninitialize_environments_nolock 10100000     libucrt:environment_initialization.obj
 0004:00000008       __guard_fids__             10100008     libucrt:initialization.obj
 0004:00000068       __guard_fids____acrt_initialize_ptd 10100068     libucrt:per_thread_data.obj
 0004:0000006c       __guard_fids_??$expand_argument_wildcards@D@@YAHQAD0AAV?$argument_list@D@?A0xb0e4b824@@@Z 1010006c     libucrt:argv_wildcards.obj
 0004:00000070       __guard_fids__             10100070     libucrt:locale_initializer.obj
 0004:00000074       __guard_fids__             10100074     libucrt:timeset_initializer.obj
 0004:00000078       __guard_fids__             10100078     libucrt:multibyte_initializer.obj
 0004:0000007c       __guard_fids__             1010007c     libucrt:stdio_initializer.obj
 0004:00000080       __guard_fids__             10100080     libucrt:stdio_initializer.obj
 0004:00000084       __guard_fids____libm_error_support 10100084     libucrt:libm_error.obj
 0004:00000088       __guard_fids__             10100088     libucrt:sse2_initializer.obj
 0004:0000008c       __guard_fids__             1010008c     libucrt:console_output_initializer.obj
 0004:00000090       __guard_fids__             10100090     libcpmt:xthrow.obj
 0004:00000098       __guard_fids__             10100098     libcpmt:xthrow.obj
 0004:000000a0       __guard_fids__             101000a0     libcpmt:xthrow.obj
 0004:000000a8       __guard_fids__             101000a8     libcpmt:xthrow.obj
 0004:000000b0       __guard_fids__             101000b0     libcpmt:xthrow.obj
 0004:000000b8       __guard_fids__             101000b8     libcpmt:xthrow.obj
 0004:000000bc       __guard_fids__             101000bc     libcpmt:xthrow.obj
 0004:000000c0       __guard_fids__             101000c0     libcpmt:xthrow.obj
 0004:000000c4       __guard_fids__             101000c4     libcpmt:xthrow.obj
 0004:000000c8       __guard_fids__             101000c8     libcpmt:xthrow.obj
 0004:000000cc       __guard_fids__             101000cc     libcpmt:xthrow.obj
 0004:000000d0       __guard_fids__             101000d0     libcpmt:xthrow.obj
 0004:000000d4       __guard_fids__             101000d4     libcpmt:xthrow.obj
 0004:000000d8       __guard_fids_?dllmain_crt_process_attach@@YAHQAUHINSTANCE__@@QAX@Z 101000d8     LIBCMT:dll_dllmain.obj
 0004:000000e0       __guard_fids_?dllmain_dispatch@@YAHQAUHINSTANCE__@@KQAX@Z 101000e0     LIBCMT:dll_dllmain.obj
 0004:000000e4       __guard_fids__             101000e4     LIBCMT:std_type_info_static.obj
 0004:000000e8       __guard_fids__             101000e8     LIBCMT:throw_bad_alloc.obj
 0004:000000f0       __guard_fids__             101000f0     LIBCMT:throw_bad_alloc.obj
 0004:000000f4       __guard_fids__             101000f4     LIBCMT:throw_bad_alloc.obj
 0004:000000f8       __guard_fids__             101000f8     LIBCMT:guard_support.obj
 0004:000000fc       __guard_fids__             101000fc     libvcruntime:frame.obj
 0004:00000100       __guard_fids__             10100100     libvcruntime:frame.obj
 0004:00000108       __guard_fids__             10100108     libvcruntime:frame.obj
 0004:0000010c       __guard_fids__             1010010c     libvcruntime:frame.obj
 0004:00000110       __guard_fids____vcrt_initialize_ptd 10100110     libvcruntime:per_thread_data.obj
 0005:00000060       $R000000                   10101060     * linker generated manifest res *

 Exports

  ordinal    name

        1    __register_better_sqlite3_
               exported name: _register_better_sqlite3_
